 ConEmu.x64

 Timestamp is 5ffcd15a (Mon Jan 11 23:29:46 2021)

 Preferred load address is 0000000180000000

 Start         Length     Name                   Class
 0001:00000000 00000010H .text$di                CODE
 0001:00000010 00030930H .text$mn                CODE
 0001:00030940 00000040H .text$mn$00             CODE
 0001:00030980 000006a0H .text$x                 CODE
 0001:00031020 0000003dH .text$yd                CODE
 0002:00000000 00000660H .idata$5                DATA
 0002:00000660 00000028H .00cfg                  DATA
 0002:00000688 00000008H .CRT$XCA                DATA
 0002:00000690 00000008H .CRT$XCU                DATA
 0002:00000698 00000008H .CRT$XCZ                DATA
 0002:000006a0 00000008H .CRT$XIA                DATA
 0002:000006a8 00000020H .CRT$XIC                DATA
 0002:000006c8 00000008H .CRT$XIZ                DATA
 0002:000006d0 00000008H .CRT$XLA                DATA
 0002:000006d8 00000008H .CRT$XLZ                DATA
 0002:000006e0 00000008H .CRT$XPA                DATA
 0002:000006e8 00000010H .CRT$XPX                DATA
 0002:000006f8 00000008H .CRT$XPXA               DATA
 0002:00000700 00000008H .CRT$XPZ                DATA
 0002:00000708 00000008H .CRT$XTA                DATA
 0002:00000710 00000010H .CRT$XTZ                DATA
 0002:00000718 00000000H .gehcont$y              DATA
 0002:00000718 00000000H .gfids$y                DATA
 0002:00000720 0000c5e0H .rdata                  DATA
 0002:0000cd00 00000000H .rdata$CastGuardVftablesA DATA
 0002:0000cd00 00000000H .rdata$CastGuardVftablesC DATA
 0002:0000cd00 00000028H .rdata$T                DATA
 0002:0000cd28 0000097cH .rdata$r                DATA
 0002:0000d6a4 0000040cH .rdata$zzzdbg           DATA
 0002:0000dab0 00000008H .rtc$IAA                DATA
 0002:0000dab8 00000008H .rtc$IZZ                DATA
 0002:0000dac0 00000008H .rtc$TAA                DATA
 0002:0000dac8 00000008H .rtc$TZZ                DATA
 0002:0000dad0 00000004H .tls                    DATA
 0002:0000dad4 00000004H .tls$                   DATA
 0002:0000dad8 00000008H .tls$ZZZ                DATA
 0002:0000dae0 000025a0H .xdata                  DATA
 0002:00010080 00000260H .xdata$x                DATA
 0002:000102e0 000002e4H .edata                  DATA
 0002:000105c4 00000064H .idata$2                DATA
 0002:00010628 00000018H .idata$3                DATA
 0002:00010640 00000660H .idata$4                DATA
 0002:00010ca0 00000e82H .idata$6                DATA
 0003:00000000 00000ca0H .data                   DATA
 0003:00000ca0 000001d0H .data$r                 DATA
 0003:00000e70 000002c0H .data$rs                DATA
 0003:00001130 0000bc00H .bss                    DATA
 0004:00000000 0000285cH .pdata                  DATA
 0005:00000000 00000100H _RDATA                  DATA
 0006:00000000 000000a0H .rsrc$01                DATA
 0006:000000a0 00000490H .rsrc$02                DATA

  Address         Publics by Value              Rva+Base               Lib:Object

 0000:00000000       ___safe_se_handler_table   0000000000000000     <absolute>
 0000:00000000       __arm64x_redirection_metadata 0000000000000000     <absolute>
 0000:00000000       __guard_iat_table          0000000000000000     <absolute>
 0000:00000000       __guard_longjmp_table      0000000000000000     <absolute>
 0000:00000000       __x64_code_ranges_to_entry_points 0000000000000000     <absolute>
 0000:00000000       __guard_iat_count          0000000000000000     <absolute>
 0000:00000000       __guard_longjmp_count      0000000000000000     <absolute>
 0000:00000000       __guard_fids_count         0000000000000000     <absolute>
 0000:00000000       __dynamic_value_reloc_table 0000000000000000     <absolute>
 0000:00000000       __x64_code_ranges_to_entry_points_count 0000000000000000     <absolute>
 0000:00000000       __arm64x_extra_rfe_table   0000000000000000     <absolute>
 0000:00000000       __hybrid_auxiliary_iat     0000000000000000     <absolute>
 0000:00000000       __hybrid_code_map          0000000000000000     <absolute>
 0000:00000000       __volatile_metadata        0000000000000000     <absolute>
 0000:00000000       __arm64x_extra_rfe_table_size 0000000000000000     <absolute>
 0000:00000000       ___safe_se_handler_count   0000000000000000     <absolute>
 0000:00000000       __AbsoluteZero             0000000000000000     <absolute>
 0000:00000000       __guard_fids_table         0000000000000000     <absolute>
 0000:00000000       __guard_eh_cont_count      0000000000000000     <absolute>
 0000:00000000       __arm64x_redirection_metadata_count 0000000000000000     <absolute>
 0000:00000000       __enclave_config           0000000000000000     <absolute>
 0000:00000000       __guard_eh_cont_table      0000000000000000     <absolute>
 0000:00000000       __arm64x_native_entrypoint 0000000000000000     <absolute>
 0000:00000000       __hybrid_code_map_count    0000000000000000     <absolute>
 0000:00000100       __guard_flags              0000000000000100     <absolute>
 0000:00000000       __ImageBase                0000000180000000     <linker-defined>
 0001:00000010       ??$swprintf_c@$0EA@@@YAHAEAY0EA@_WPEB_WZZ 0000000180001010 f i ConEmuInjects.obj
 0001:0000003c       ??$swprintf_c@$0IA@@@YAHAEAY0IA@_WPEB_WZZ 000000018000103c f i ConEmuInjects.obj
 0001:00000068       ??$swprintf_c@$0PP@@@YAHAEAY0PP@_WPEB_WZZ 0000000180001068 f i ConEmuInjects.obj
 0001:00000094       ?ShutdownHooks@@YAXXZ      0000000180001094 f   ConEmuInjects.obj
 0001:00000284       ?StartupConsoleHooks@@YAXXZ 0000000180001284 f   ConEmuInjects.obj
 0001:00000310       ?StartupHooks@@YA_NPEAUHINSTANCE__@@@Z 0000000180001310 f   ConEmuInjects.obj
 0001:000006f8       ?StringCchVPrintfW@@YAJPEA_W_KPEB_WPEAD@Z 00000001800016f8 f i ConEmuInjects.obj
 0001:0000079c       __local_stdio_printf_options 000000018000179c f i ConEmuInjects.obj
 0001:000007a4       ?ProcessViewerEventW3@@YA_JPEAX@Z 00000001800017a4 f   ConEmuPlugin.obj
 0001:000007cc       ?ExitFARW3@@YAXPEAX@Z      00000001800017cc f   ConEmuPlugin.obj
 0001:00000824       ExitFARW                   0000000180001824 f   ConEmuPlugin.obj
 0001:0000087c       ?ProcessEditorEvent@@YAHHPEAX@Z 000000018000187c f   ConEmuPlugin.obj
 0001:0000087c       ProcessEditorEventW        000000018000187c f   ConEmuPlugin.obj
 0001:0000089c       ProcessSynchroEventW       000000018000189c f   ConEmuPlugin.obj
 0001:000008c8       ?ProcessViewerEvent@@YAHHPEAX@Z 00000001800018c8 f   ConEmuPlugin.obj
 0001:000008c8       ProcessViewerEventW        00000001800018c8 f   ConEmuPlugin.obj
 0001:000008e8       ?ProcessSynchroEventW3@@YA_JPEAX@Z 00000001800018e8 f   ConEmuPlugin.obj
 0001:00000910       ?ProcessEditorEventW3@@YA_JPEAX@Z 0000000180001910 f   ConEmuPlugin.obj
 0001:00000938       ?ActivateConsole@@YAHXZ    0000000180001938 f   ConEmuPlugin.obj
 0001:000009c8       ?ExitFAR@@YAXXZ            00000001800019c8 f   ConEmuPlugin.obj
 0001:00000a20       ?GetFarHWND2@@YAPEAUHWND__@@H@Z 0000000180001a20 f   ConEmuPlugin.obj
 0001:00000a8c       ?GetFarHWND@@YAPEAUHWND__@@XZ 0000000180001a8c f   ConEmuPlugin.obj
 0001:00000a94       ?GetFarVersion@@YAXPEAUFarVersion@@@Z 0000000180001a94 f   ConEmuPlugin.obj
 0001:00000ab0       ?GetMinFarVersion@@YAHXZ   0000000180001ab0 f   ConEmuPlugin.obj
 0001:00000ae0       ?GetPluginInfo@@YAXPEAX@Z  0000000180001ae0 f   ConEmuPlugin.obj
 0001:00000b34       ?GetPluginInfoW@@YAXPEAX@Z 0000000180001b34 f   ConEmuPlugin.obj
 0001:00000b54       ?IsConsoleActive@@YAHXZ    0000000180001b54 f   ConEmuPlugin.obj
 0001:00000bac       ?IsTerminalMode@@YAHXZ     0000000180001bac f   ConEmuPlugin.obj
 0001:00000bb4       ?OpenPlugin@@YAPEAXH_J@Z   0000000180001bb4 f   ConEmuPlugin.obj
 0001:00000be4       ?OpenW@@YAPEAXPEBX@Z       0000000180001be4 f   ConEmuPlugin.obj
 0001:00000c08       ?ProcessEditorInput@@YAHPEBU_INPUT_RECORD@@@Z 0000000180001c08 f   ConEmuPlugin.obj
 0001:00000c2c       ?RegisterBackground@@YAHPEAURegisterBackgroundArg@@@Z 0000000180001c2c f   ConEmuPlugin.obj
 0001:00000ca8       ?RegisterPanelView@@YAHPEAUPanelViewInit@@@Z 0000000180001ca8 f   ConEmuPlugin.obj
 0001:00000e10       ?SetStartupInfo@@YAXPEAX@Z 0000000180001e10 f   ConEmuPlugin.obj
 0001:00000e74       ?SetupExportsFar3@@YAXXZ   0000000180001e74 f   ConEmuPlugin.obj
 0001:00000fe4       ?SyncExecute@@YAHPEAUHINSTANCE__@@P6AX_J@Z1@Z 0000000180001fe4 f   ConEmuPlugin.obj
 0001:00001030       DllMain                    0000000180002030 f   ConEmuPlugin.obj
 0001:00001054       GetMinFarVersionW          0000000180002054 f   ConEmuPlugin.obj
 0001:0000105c       OpenPluginW                000000018000205c f   ConEmuPlugin.obj
 0001:0000109c       ProcessEditorInputW        000000018000209c f   ConEmuPlugin.obj
 0001:000010c0       SetStartupInfoW            00000001800020c0 f   ConEmuPlugin.obj
 0001:000010f0       ??0CPluginW1900@@QEAA@XZ   00000001800020f0 f   ConEmuPlugin1900.obj
 0001:00001294       ??_GCPluginW1900@@UEAAPEAXI@Z 0000000180002294 f i ConEmuPlugin1900.obj
 0001:00001294       ??_ECPluginW1900@@UEAAPEAXI@Z 0000000180002294 f i ConEmuPlugin1900.obj
 0001:0000179c       ?CheckPanelExist@CPluginW1900@@UEAA_NXZ 000000018000279c f   ConEmuPlugin1900.obj
 0001:000017d8       ?Color2BgIndex@Far3Color@@SAXKHAEAGPEBK@Z 00000001800027d8 f i ConEmuPlugin1900.obj
 0001:000018ec       ?Color2FgIndex@Far3Color@@SAXKAEAGPEBK@Z 00000001800028ec f i ConEmuPlugin1900.obj
 0001:000019dc       ?ExecuteSynchroApi@CPluginW1900@@UEAA_NXZ 00000001800029dc f   ConEmuPlugin1900.obj
 0001:00001a10       ?ExitFar@CPluginW1900@@UEAAXXZ 0000000180002a10 f   ConEmuPlugin1900.obj
 0001:00001a98       ?FarColor_3_2@@YAEAEBUFarColor@@_N@Z 0000000180002a98 f i ConEmuPlugin1900.obj
 0001:00001b58       ?GetActiveWindowType@CPluginW1900@@UEAAHXZ 0000000180002b58 f   ConEmuPlugin1900.obj
 0001:00001c04       ?GetEditorModifiedState@CPluginW1900@@UEAAKXZ 0000000180002c04 f   ConEmuPlugin1900.obj
 0001:00001c60       ?GetFarRect@CPluginW1900@@UEAA_NAEAU_SMALL_RECT@@@Z 0000000180002c60 f   ConEmuPlugin1900.obj
 0001:00001d0c       ?GetMacroArea@CPluginW1900@@UEAAHXZ 0000000180002d0c f   ConEmuPlugin1900.obj
 0001:00001d2c       ?GetMsg@CPluginW1900@@UEAAPEB_WHPEA_W_K@Z 0000000180002d2c f   ConEmuPlugin1900.obj
 0001:00001da0       ?GetPanelDir@CPluginW1900@@UEAAPEA_WKPEA_WH@Z 0000000180002da0 f   ConEmuPlugin1900.obj
 0001:00001f00       ?GetPanelInfo@CPluginW1900@@UEAA_NKPEAUCEPanelInfo@@@Z 0000000180002f00 f   ConEmuPlugin1900.obj
 0001:000021a0       ?GetPanelItemInfo@CPluginW1900@@UEAA_NAEBUCEPanelInfo@@_N_JAEAU_WIN32_FIND_DATAW@@PEAPEA_W@Z 00000001800031a0 f   ConEmuPlugin1900.obj
 0001:0000235c       ?GetPluginInfoPtr@CPluginW1900@@UEAAXPEAX@Z 000000018000335c f   ConEmuPlugin1900.obj
 0001:000023b8       ?GetWindowCount@CPluginW1900@@UEAAHXZ 00000001800033b8 f   ConEmuPlugin1900.obj
 0001:000023e8       ?GetWindowTypeName@CPluginW995@@UEAAPEB_WH@Z 00000001800033e8 f   ConEmuPlugin995.obj
 0001:000023e8       ?GetWindowTypeName@CPluginW2800@@UEAAPEB_WH@Z 00000001800033e8 f   ConEmuPlugin2800.obj
 0001:000023e8       ?GetWindowTypeName@CPluginAnsi@@UEAAPEB_WH@Z 00000001800033e8 f   ConEmuPluginA.obj
 0001:000023e8       ?GetWindowTypeName@CPluginW1900@@UEAAPEB_WH@Z 00000001800033e8 f   ConEmuPlugin1900.obj
 0001:00002440       ?GuiMacroDlg@CPluginW1900@@UEAAXXZ 0000000180003440 f   ConEmuPlugin1900.obj
 0001:00002448       ?InputBox@CPluginW1900@@UEAA_NPEB_W000AEAPEA_W@Z 0000000180003448 f   ConEmuPlugin1900.obj
 0001:000024f8       ?IsMacroActive@CPluginW1900@@UEAA_NXZ 00000001800034f8 f   ConEmuPlugin1900.obj
 0001:0000253c       ?LoadFarColors@CPluginW1900@@UEAAXAEAY0BAA@E@Z 000000018000353c f   ConEmuPlugin1900.obj
 0001:000026d0       ?LoadFarSettings@CPluginW1900@@UEAAXPEAUCEFarInterfaceSettings@@PEAUCEFarPanelSettings@@@Z 00000001800036d0 f   ConEmuPlugin1900.obj
 0001:00002810       ?Open@CPluginW1900@@UEAAPEAXPEBX@Z 0000000180003810 f   ConEmuPlugin1900.obj
 0001:000028ec       ?OpenEditor@CPluginW1900@@UEAA_NPEB_W_N11HH@Z 00000001800038ec f   ConEmuPlugin1900.obj
 0001:00002a00       ?PanelControlApi@CPluginW1900@@UEAA_JPEAXH_J0@Z 0000000180003a00 f   ConEmuPlugin1900.obj
 0001:00002a38       ?PostMacroApi@CPluginW1900@@UEAAXPEB_WPEAU_INPUT_RECORD@@_N@Z 0000000180003a38 f   ConEmuPlugin1900.obj
 0001:00002ff0       ?ProcessEditorEventPtr@CPluginW2800@@UEAAHPEAX@Z 0000000180003ff0 f   ConEmuPlugin2800.obj
 0001:00002ff0       ?ProcessEditorEventPtr@CPluginW1900@@UEAAHPEAX@Z 0000000180003ff0 f   ConEmuPlugin1900.obj
 0001:00002ffc       ?ProcessEditorInputPtr@CPluginW1900@@UEAAHPEBX@Z 0000000180003ffc f   ConEmuPlugin1900.obj
 0001:0000301c       ?ProcessSynchroEventPtr@CPluginW1900@@UEAAHPEAX@Z 000000018000401c f   ConEmuPlugin1900.obj
 0001:0000301c       ?ProcessSynchroEventPtr@CPluginW2800@@UEAAHPEAX@Z 000000018000401c f   ConEmuPlugin2800.obj
 0001:00003040       ?ProcessViewerEventPtr@CPluginW2800@@UEAAHPEAX@Z 0000000180004040 f   ConEmuPlugin2800.obj
 0001:00003040       ?ProcessViewerEventPtr@CPluginW1900@@UEAAHPEAX@Z 0000000180004040 f   ConEmuPlugin1900.obj
 0001:0000304c       ?RedrawAll@CPluginW1900@@UEAAXXZ 000000018000404c f   ConEmuPlugin1900.obj
 0001:00003084       ?SetStartupInfoPtr@CPluginW1900@@UEAAXPEAX@Z 0000000180004084 f   ConEmuPlugin1900.obj
 0001:000031d4       ?SetWindow@CPluginW1900@@UEAAXH@Z 00000001800041d4 f   ConEmuPlugin1900.obj
 0001:0000322c       ?ShowMessage@CPluginW1900@@UEAAHPEB_WH_N@Z 000000018000422c f   ConEmuPlugin1900.obj
 0001:00003294       ?ShowPluginMenu@CPluginW1900@@UEAAHPEAUConEmuPluginMenuItem@@HH@Z 0000000180004294 f   ConEmuPlugin1900.obj
 0001:000033e4       ?ShowUserScreen@CPluginW1900@@UEAAX_N@Z 00000001800043e4 f   ConEmuPlugin1900.obj
 0001:00003410       ?WaitEndSynchro@CPluginAnsi@@UEAAXXZ 0000000180004410 f   ConEmuPluginA.obj
 0001:00003410       ?ShutdownPluginStep@CPluginBase@@SAXPEB_WHHHH@Z 0000000180004410 f   ConEmuPluginBase.obj
 0001:00003410       ?StopWaitEndSynchro@CPluginW2800@@UEAAXXZ 0000000180004410 f   ConEmuPlugin2800.obj
 0001:00003410       ?StopWaitEndSynchro@CPluginAnsi@@UEAAXXZ 0000000180004410 f   ConEmuPluginA.obj
 0001:00003410       ?StopWaitEndSynchro@CPluginW1900@@UEAAXXZ 0000000180004410 f   ConEmuPlugin1900.obj
 0001:00003410       ?WaitEndSynchro@CPluginW2800@@UEAAXXZ 0000000180004410 f   ConEmuPlugin2800.obj
 0001:00003410       ?_Doraise@exception@stdext@@MEBAXXZ 0000000180004410 f   common-kernel64:CEStr.obj
 0001:00003410       ?WaitEndSynchro@CPluginW1900@@UEAAXXZ 0000000180004410 f   ConEmuPlugin1900.obj
 0001:00003410       _guard_check_icall_nop     0000000180004410 f   LIBCMT:guard_support.obj
 0001:00003410       ?PlugServerInit@@YAXXZ     0000000180004410 f   PluginSrv.obj
 0001:00003414       ?UpdateConEmuTabsApi@CPluginW1900@@UEAA_NH@Z 0000000180004414 f   ConEmuPlugin1900.obj
 0001:000038e4       ??$_Emplace_reallocate@AEBUWindowInfo@@@?$vector@UWindowInfo@@V?$MArrayAllocator@UWindowInfo@@@@@std@@QEAAPEAUWindowInfo@@QEAU2@AEBU2@@Z 00000001800048e4 f i ConEmuPlugin2800.obj
 0001:00003a88       ??$_Uninitialized_fill_n@V?$MArrayAllocator@UWindowInfo@@@@@std@@YAPEAUWindowInfo@@PEAU1@_KAEBU1@AEAV?$MArrayAllocator@UWindowInfo@@@@@Z 0000000180004a88 f i ConEmuPlugin2800.obj
 0001:00003ac8       ??0CPluginW2800@@QEAA@XZ   0000000180004ac8 f   ConEmuPlugin2800.obj
 0001:00003c6c       ??0bad_alloc@std@@QEAA@AEBV01@@Z 0000000180004c6c f i ConEmuPlugin2800.obj
 0001:00003ca8       ??0bad_alloc@std@@QEAA@XZ  0000000180004ca8 f i ConEmuPlugin2800.obj
 0001:00003cc8       ??0exception@std@@QEAA@AEBV01@@Z 0000000180004cc8 f i ConEmuPlugin2800.obj
 0001:00003cfc       ??1?$MArray@UWindowInfo@@@@QEAA@XZ 0000000180004cfc f i ConEmuPlugin2800.obj
 0001:00003d28       ??1bad_function_call@std@@UEAA@XZ 0000000180004d28 f i libcpmt:xthrow.obj
 0001:00003d28       ??1length_error@std@@UEAA@XZ 0000000180004d28 f i libcpmt:xthrow.obj
 0001:00003d28       ??1bad_alloc@std@@UEAA@XZ  0000000180004d28 f i ConEmuPlugin2800.obj
 0001:00003d28       ??1bad_exception@std@@UEAA@XZ 0000000180004d28 f i libvcruntime:frame.obj
 0001:00003d3c       ??_ECPluginW2800@@UEAAPEAXI@Z 0000000180004d3c f i ConEmuPlugin2800.obj
 0001:00003d3c       ??_GCPluginW2800@@UEAAPEAXI@Z 0000000180004d3c f i ConEmuPlugin2800.obj
 0001:00003d7c       ??_Eexception@std@@UEAAPEAXI@Z 0000000180004d7c f i ConEmuPlugin2800.obj
 0001:00003d7c       ??_Glogic_error@std@@UEAAPEAXI@Z 0000000180004d7c f i libcpmt:xthrow.obj
 0001:00003d7c       ??_Ebad_alloc@std@@UEAAPEAXI@Z 0000000180004d7c f i ConEmuPlugin2800.obj
 0001:00003d7c       ??_Glength_error@std@@UEAAPEAXI@Z 0000000180004d7c f i libcpmt:xthrow.obj
 0001:00003d7c       ??_Gbad_function_call@std@@UEAAPEAXI@Z 0000000180004d7c f i libcpmt:xthrow.obj
 0001:00003d7c       ??_Gexception@std@@UEAAPEAXI@Z 0000000180004d7c f i ConEmuPlugin2800.obj
 0001:00003d7c       ??_Ebad_exception@std@@UEAAPEAXI@Z 0000000180004d7c f i libvcruntime:frame.obj
 0001:00003d7c       ??_Ebad_function_call@std@@UEAAPEAXI@Z 0000000180004d7c f i libcpmt:xthrow.obj
 0001:00003d7c       ??_Elength_error@std@@UEAAPEAXI@Z 0000000180004d7c f i libcpmt:xthrow.obj
 0001:00003d7c       ??_Gbad_alloc@std@@UEAAPEAXI@Z 0000000180004d7c f i ConEmuPlugin2800.obj
 0001:00003d7c       ??_Gbad_exception@std@@UEAAPEAXI@Z 0000000180004d7c f i libvcruntime:frame.obj
 0001:00003d7c       ??_Elogic_error@std@@UEAAPEAXI@Z 0000000180004d7c f i libcpmt:xthrow.obj
 0001:0000430c       ?CheckPanelExist@CPluginW2800@@UEAA_NXZ 000000018000530c f   ConEmuPlugin2800.obj
 0001:00004348       ?ExecuteSynchroApi@CPluginW2800@@UEAA_NXZ 0000000180005348 f   ConEmuPlugin2800.obj
 0001:0000437c       ?ExitFar@CPluginW2800@@UEAAXXZ 000000018000537c f   ConEmuPlugin2800.obj
 0001:00004410       ?GetActiveWindowType@CPluginW2800@@UEAAHXZ 0000000180005410 f   ConEmuPlugin2800.obj
 0001:000044c8       ?GetEditorModifiedState@CPluginW2800@@UEAAKXZ 00000001800054c8 f   ConEmuPlugin2800.obj
 0001:00004528       ?GetFarRect@CPluginW2800@@UEAA_NAEAU_SMALL_RECT@@@Z 0000000180005528 f   ConEmuPlugin2800.obj
 0001:000045dc       ?GetMacroArea@CPluginW2800@@UEAAHXZ 00000001800055dc f   ConEmuPlugin2800.obj
 0001:000045fc       ?GetMsg@CPluginW2800@@UEAAPEB_WHPEA_W_K@Z 00000001800055fc f   ConEmuPlugin2800.obj
 0001:00004674       ?GetPanelDir@CPluginW2800@@UEAAPEA_WKPEA_WH@Z 0000000180005674 f   ConEmuPlugin2800.obj
 0001:000047d4       ?GetPanelInfo@CPluginW2800@@UEAA_NKPEAUCEPanelInfo@@@Z 00000001800057d4 f   ConEmuPlugin2800.obj
 0001:00004a74       ?GetPanelItemInfo@CPluginW2800@@UEAA_NAEBUCEPanelInfo@@_N_JAEAU_WIN32_FIND_DATAW@@PEAPEA_W@Z 0000000180005a74 f   ConEmuPlugin2800.obj
 0001:00004c50       ?GetPluginInfoPtr@CPluginW2800@@UEAAXPEAX@Z 0000000180005c50 f   ConEmuPlugin2800.obj
 0001:00004cac       ?GetWindowCount@CPluginW2800@@UEAAHXZ 0000000180005cac f   ConEmuPlugin2800.obj
 0001:00004cdc       ?GuiMacroDlg@CPluginW2800@@UEAAXXZ 0000000180005cdc f   ConEmuPlugin2800.obj
 0001:00004ce4       ?InputBox@CPluginW2800@@UEAA_NPEB_W000AEAPEA_W@Z 0000000180005ce4 f   ConEmuPlugin2800.obj
 0001:00004d94       ?IsMacroActive@CPluginW2800@@UEAA_NXZ 0000000180005d94 f   ConEmuPlugin2800.obj
 0001:00004dd8       ?LoadFarColors@CPluginW2800@@UEAAXAEAY0BAA@E@Z 0000000180005dd8 f   ConEmuPlugin2800.obj
 0001:00004f6c       ?LoadFarSettings@CPluginW2800@@UEAAXPEAUCEFarInterfaceSettings@@PEAUCEFarPanelSettings@@@Z 0000000180005f6c f   ConEmuPlugin2800.obj
 0001:000050ac       ?Open@CPluginW2800@@UEAAPEAXPEBX@Z 00000001800060ac f   ConEmuPlugin2800.obj
 0001:000051fc       ?OpenEditor@CPluginW2800@@UEAA_NPEB_W_N11HH@Z 00000001800061fc f   ConEmuPlugin2800.obj
 0001:00005320       ?PanelControlApi@CPluginW2800@@UEAA_JPEAXH_J0@Z 0000000180006320 f   ConEmuPlugin2800.obj
 0001:00005358       ?PostMacroApi@CPluginW2800@@UEAAXPEB_WPEAU_INPUT_RECORD@@_N@Z 0000000180006358 f   ConEmuPlugin2800.obj
 0001:000056cc       ?ProcessEditorInputPtr@CPluginW2800@@UEAAHPEBX@Z 00000001800066cc f   ConEmuPlugin2800.obj
 0001:000056ec       ?RedrawAll@CPluginW2800@@UEAAXXZ 00000001800066ec f   ConEmuPlugin2800.obj
 0001:00005724       ?SetStartupInfoPtr@CPluginW2800@@UEAAXPEAX@Z 0000000180006724 f   ConEmuPlugin2800.obj
 0001:00005874       ?SetWindow@CPluginW2800@@UEAAXH@Z 0000000180006874 f   ConEmuPlugin2800.obj
 0001:000059b0       ?ShowMessage@CPluginW2800@@UEAAHPEB_WH_N@Z 00000001800069b0 f   ConEmuPlugin2800.obj
 0001:00005a18       ?ShowPluginMenu@CPluginW2800@@UEAAHPEAUConEmuPluginMenuItem@@HH@Z 0000000180006a18 f   ConEmuPlugin2800.obj
 0001:00005b6c       ?ShowUserScreen@CPluginW2800@@UEAAX_N@Z 0000000180006b6c f   ConEmuPlugin2800.obj
 0001:00005b98       ?UpdateConEmuTabsApi@CPluginW2800@@UEAA_NH@Z 0000000180006b98 f   ConEmuPlugin2800.obj
 0001:00006514       ?_Getal@?$vector@UWindowInfo@@V?$MArrayAllocator@UWindowInfo@@@@@std@@AEAAAEAV?$MArrayAllocator@UWindowInfo@@@@XZ 0000000180007514 f i ConEmuPlugin2800.obj
 0001:00006518       ?_Xlength@?$vector@UtagPROCESSENTRY32W@@V?$MArrayAllocator@UtagPROCESSENTRY32W@@@@@std@@CAXXZ 0000000180007518 f i common-kernel64:MProcess.obj
 0001:00006518       ?_Xlength@?$vector@UWindowInfo@@V?$MArrayAllocator@UWindowInfo@@@@@std@@CAXXZ 0000000180007518 f i ConEmuPlugin2800.obj
 0001:0000652c       ?deallocate@?$MArrayAllocator@UWindowInfo@@@@QEAAXPEAUWindowInfo@@_K@Z 000000018000752c f i ConEmuPlugin2800.obj
 0001:00006544       ?erase@?$MArray@UWindowInfo@@@@QEAAX_J0@Z 0000000180007544 f i ConEmuPlugin2800.obj
 0001:000065d8       ?insert@?$MArray@UWindowInfo@@@@QEAA_J_JAEBUWindowInfo@@0@Z 00000001800075d8 f i ConEmuPlugin2800.obj
 0001:00006680       ?insert@?$vector@UWindowInfo@@V?$MArrayAllocator@UWindowInfo@@@@@std@@QEAA?AV?$_Vector_iterator@V?$_Vector_val@U?$_Simple_types@UWindowInfo@@@std@@@std@@@2@V?$_Vector_const_iterator@V?$_Vector_val@U?$_Simple_types@UWindowInfo@@@std@@@std@@@2@_KAEBUWindowInfo@@@Z 0000000180007680 f i ConEmuPlugin2800.obj
 0001:00006a88       ?push_back@?$MArray@UWindowInfo@@@@QEAA_JAEBUWindowInfo@@@Z 0000000180007a88 f i ConEmuPlugin2800.obj
 0001:00006b0c       ?what@exception@std@@UEBAPEBDXZ 0000000180007b0c f i ConEmuPlugin2800.obj
 0001:00006b20       GetGlobalInfoW             0000000180007b20 f   ConEmuPlugin2800.obj
 0001:00006bb8       ??0CPluginW995@@QEAA@XZ    0000000180007bb8 f   ConEmuPlugin995.obj
 0001:00006d50       ??_ECPluginW995@@UEAAPEAXI@Z 0000000180007d50 f i ConEmuPlugin995.obj
 0001:00006d50       ??_GCPluginW995@@UEAAPEAXI@Z 0000000180007d50 f i ConEmuPlugin995.obj
 0001:000071d0       ?CheckPanelExist@CPluginW995@@UEAA_NXZ 00000001800081d0 f   ConEmuPlugin995.obj
 0001:00007208       ?ExecuteSynchroApi@CPluginW995@@UEAA_NXZ 0000000180008208 f   ConEmuPlugin995.obj
 0001:00007238       ?ExitFar@CPluginW995@@UEAAXXZ 0000000180008238 f   ConEmuPlugin995.obj
 0001:000072c0       ?GetActiveWindowType@CPluginW995@@UEAAHXZ 00000001800082c0 f   ConEmuPlugin995.obj
 0001:000073a0       ?GetEditorModifiedState@CPluginW995@@UEAAKXZ 00000001800083a0 f   ConEmuPlugin995.obj
 0001:000073f8       ?GetFarRect@CPluginW995@@UEAA_NAEAU_SMALL_RECT@@@Z 00000001800083f8 f   ConEmuPlugin995.obj
 0001:00007450       ?GetMacroArea@CPluginW995@@UEAAHXZ 0000000180008450 f   ConEmuPlugin995.obj
 0001:000074a8       ?GetMsg@CPluginW995@@UEAAPEB_WHPEA_W_K@Z 00000001800084a8 f   ConEmuPlugin995.obj
 0001:00007518       ?GetPanelDir@CPluginW995@@UEAAPEA_WKPEA_WH@Z 0000000180008518 f   ConEmuPlugin995.obj
 0001:0000763c       ?GetPanelInfo@CPluginW995@@UEAA_NKPEAUCEPanelInfo@@@Z 000000018000863c f   ConEmuPlugin995.obj
 0001:0000787c       ?GetPanelItemInfo@CPluginW995@@UEAA_NAEBUCEPanelInfo@@_N_JAEAU_WIN32_FIND_DATAW@@PEAPEA_W@Z 000000018000887c f   ConEmuPlugin995.obj
 0001:00007a24       ?GetPluginInfoPtr@CPluginW995@@UEAAXPEAX@Z 0000000180008a24 f   ConEmuPlugin995.obj
 0001:00007a90       ?GetWindowCount@CPluginW995@@UEAAHXZ 0000000180008a90 f   ConEmuPlugin995.obj
 0001:00007abc       ?GuiMacroDlg@CPluginW995@@UEAAXXZ 0000000180008abc f   ConEmuPlugin995.obj
 0001:00007ac4       ?InputBox@CPluginW995@@UEAA_NPEB_W000AEAPEA_W@Z 0000000180008ac4 f   ConEmuPlugin995.obj
 0001:00007b74       ?IsMacroActive@CPluginW995@@UEAA_NXZ 0000000180008b74 f   ConEmuPlugin995.obj
 0001:00007be4       ?LoadFarColors@CPluginW995@@UEAAXAEAY0BAA@E@Z 0000000180008be4 f   ConEmuPlugin995.obj
 0001:00007ca0       ?LoadFarSettings@CPluginW995@@UEAAXPEAUCEFarInterfaceSettings@@PEAUCEFarPanelSettings@@@Z 0000000180008ca0 f   ConEmuPlugin995.obj
 0001:00007cfc       ?Open@CPluginAnsi@@UEAAPEAXPEBX@Z 0000000180008cfc f i ConEmuPluginA.obj
 0001:00007cfc       ?Open@CPluginW995@@UEAAPEAXPEBX@Z 0000000180008cfc f i ConEmuPlugin995.obj
 0001:00007d04       ?OpenEditor@CPluginW995@@UEAA_NPEB_W_N11HH@Z 0000000180008d04 f   ConEmuPlugin995.obj
 0001:00007e0c       ?PanelControlApi@CPluginW995@@UEAA_JPEAXH_J0@Z 0000000180008e0c f   ConEmuPlugin995.obj
 0001:00007e50       ?PostMacroApi@CPluginW995@@UEAAXPEB_WPEAU_INPUT_RECORD@@_N@Z 0000000180008e50 f   ConEmuPlugin995.obj
 0001:00007ef8       ?ProcessSynchroEventPtr@CPluginW995@@UEAAHPEAX@Z 0000000180008ef8 f i ConEmuPlugin995.obj
 0001:00007ef8       ?ProcessEditorEventPtr@CPluginW995@@UEAAHPEAX@Z 0000000180008ef8 f i ConEmuPlugin995.obj
 0001:00007ef8       ?ProcessViewerEventPtr@CPluginAnsi@@UEAAHPEAX@Z 0000000180008ef8 f i ConEmuPluginA.obj
 0001:00007ef8       ?ProcessEditorInputPtr@CPluginAnsi@@UEAAHPEBX@Z 0000000180008ef8 f i ConEmuPluginA.obj
 0001:00007ef8       ?ProcessEditorEventPtr@CPluginAnsi@@UEAAHPEAX@Z 0000000180008ef8 f i ConEmuPluginA.obj
 0001:00007ef8       ?ProcessViewerEventPtr@CPluginW995@@UEAAHPEAX@Z 0000000180008ef8 f i ConEmuPlugin995.obj
 0001:00007ef8       ?ProcessSynchroEventPtr@CPluginAnsi@@UEAAHPEAX@Z 0000000180008ef8 f i ConEmuPluginA.obj
 0001:00007efc       ?ProcessEditorInputPtr@CPluginW995@@UEAAHPEBX@Z 0000000180008efc f   ConEmuPlugin995.obj
 0001:00007f18       ?RedrawAll@CPluginW995@@UEAAXXZ 0000000180008f18 f   ConEmuPlugin995.obj
 0001:00007f48       ?SetStartupInfoPtr@CPluginW995@@UEAAXPEAX@Z 0000000180008f48 f   ConEmuPlugin995.obj
 0001:00008088       ?SetWindow@CPluginW995@@UEAAXH@Z 0000000180009088 f   ConEmuPlugin995.obj
 0001:000080d4       ?ShowMessage@CPluginW995@@UEAAHPEB_WH_N@Z 00000001800090d4 f   ConEmuPlugin995.obj
 0001:00008134       ?ShowPluginMenu@CPluginW995@@UEAAHPEAUConEmuPluginMenuItem@@HH@Z 0000000180009134 f   ConEmuPlugin995.obj
 0001:00008270       ?ShowUserScreen@CPluginW995@@UEAAX_N@Z 0000000180009270 f   ConEmuPlugin995.obj
 0001:0000829c       ?StopWaitEndSynchro@CPluginW995@@UEAAXXZ 000000018000929c f   ConEmuPlugin995.obj
 0001:000082cc       ?UpdateConEmuTabsApi@CPluginW995@@UEAA_NH@Z 00000001800092cc f   ConEmuPlugin995.obj
 0001:00008544       ?WaitEndSynchro@CPluginW995@@UEAAXXZ 0000000180009544 f   ConEmuPlugin995.obj
 0001:000086d8       ??0CPluginAnsi@@QEAA@XZ    00000001800096d8 f   ConEmuPluginA.obj
 0001:0000883c       ??_ECPluginAnsi@@UEAAPEAXI@Z 000000018000983c f i ConEmuPluginA.obj
 0001:0000883c       ??_GCPluginAnsi@@UEAAPEAXI@Z 000000018000983c f i ConEmuPluginA.obj
 0001:00008df4       ?CheckPanelExist@CPluginAnsi@@UEAA_NXZ 0000000180009df4 f   ConEmuPluginA.obj
 0001:00008e2c       ?ExecuteSynchroApi@CPluginAnsi@@UEAA_NXZ 0000000180009e2c f i ConEmuPluginA.obj
 0001:00008e2c       ?GetFarRect@CPluginAnsi@@UEAA_NAEAU_SMALL_RECT@@@Z 0000000180009e2c f i ConEmuPluginA.obj
 0001:00008e30       ?ExitFar@CPluginAnsi@@UEAAXXZ 0000000180009e30 f   ConEmuPluginA.obj
 0001:00008e74       ?GetActiveWindowType@CPluginAnsi@@UEAAHXZ 0000000180009e74 f   ConEmuPluginA.obj
 0001:00008ef8       ?GetEditorModifiedState@CPluginAnsi@@UEAAKXZ 0000000180009ef8 f   ConEmuPluginA.obj
 0001:00008f50       _get_startup_argv_mode     0000000180009f50 f   LIBCMT:argv_mode.obj
 0001:00008f50       ?GetMacroArea@CPluginAnsi@@UEAAHXZ 0000000180009f50 f   ConEmuPluginA.obj
 0001:00008f58       ?GetMsg@CPluginAnsi@@UEAAPEB_WHPEA_W_K@Z 0000000180009f58 f   ConEmuPluginA.obj
 0001:00008ff8       ?GetPanelDir@CPluginAnsi@@UEAAPEA_WKPEA_WH@Z 0000000180009ff8 f   ConEmuPluginA.obj
 0001:000090f0       ?GetPanelInfo@CPluginAnsi@@UEAA_NKPEAUCEPanelInfo@@@Z 000000018000a0f0 f   ConEmuPluginA.obj
 0001:00009348       ?GetPanelItemInfo@CPluginAnsi@@UEAA_NAEBUCEPanelInfo@@_N_JAEAU_WIN32_FIND_DATAW@@PEAPEA_W@Z 000000018000a348 f   ConEmuPluginA.obj
 0001:0000946c       ?GetPluginInfoPtr@CPluginAnsi@@UEAAXPEAX@Z 000000018000a46c f   ConEmuPluginA.obj
 0001:000094f8       ?GetWindowCount@CPluginAnsi@@UEAAHXZ 000000018000a4f8 f   ConEmuPluginA.obj
 0001:00009524       ?GuiMacroDlg@CPluginAnsi@@UEAAXXZ 000000018000a524 f   ConEmuPluginA.obj
 0001:0000952c       ?InputBox@CPluginAnsi@@UEAA_NPEB_W000AEAPEA_W@Z 000000018000a52c f   ConEmuPluginA.obj
 0001:0000968c       ?IsMacroActive@CPluginAnsi@@UEAA_NXZ 000000018000a68c f   ConEmuPluginA.obj
 0001:00009700       ?LoadFarColors@CPluginAnsi@@UEAAXAEAY0BAA@E@Z 000000018000a700 f   ConEmuPluginA.obj
 0001:000097c0       ?LoadFarSettings@CPluginAnsi@@UEAAXPEAUCEFarInterfaceSettings@@PEAUCEFarPanelSettings@@@Z 000000018000a7c0 f   ConEmuPluginA.obj
 0001:00009820       ?OpenEditor@CPluginAnsi@@UEAA_NPEB_W_N11HH@Z 000000018000a820 f   ConEmuPluginA.obj
 0001:0000995c       ?PanelControlApi@CPluginAnsi@@UEAA_JPEAXH_J0@Z 000000018000a95c f   ConEmuPluginA.obj
 0001:00009998       ?PostMacroApi@CPluginAnsi@@UEAAXPEB_WPEAU_INPUT_RECORD@@_N@Z 000000018000a998 f   ConEmuPluginA.obj
 0001:00009a5c       ?RedrawAll@CPluginAnsi@@UEAAXXZ 000000018000aa5c f   ConEmuPluginA.obj
 0001:00009a90       ?SetStartupInfoPtr@CPluginAnsi@@UEAAXPEAX@Z 000000018000aa90 f   ConEmuPluginA.obj
 0001:00009bd4       ?SetWindow@CPluginAnsi@@UEAAXH@Z 000000018000abd4 f   ConEmuPluginA.obj
 0001:00009c28       ?ShowMessage@CPluginAnsi@@UEAAHPEB_WH_N@Z 000000018000ac28 f   ConEmuPluginA.obj
 0001:00009d04       ?ShowPluginMenu@CPluginAnsi@@UEAAHPEAUConEmuPluginMenuItem@@HH@Z 000000018000ad04 f   ConEmuPluginA.obj
 0001:00009ea4       ?ShowUserScreen@CPluginAnsi@@UEAAX_N@Z 000000018000aea4 f   ConEmuPluginA.obj
 0001:00009ed0       ?UpdateConEmuTabsApi@CPluginAnsi@@UEAA_NH@Z 000000018000aed0 f   ConEmuPluginA.obj
 0001:0000a18c       ??$swprintf_c@$0BAE@@@YAHAEAY0BAE@_WPEB_WZZ 000000018000b18c f i ConEmuPluginBase.obj
 0001:0000a1b8       ??$swprintf_c@$0DAM@@@YAHAEAY0DAM@_WPEB_WZZ 000000018000b1b8 f i ConEmuPluginBase.obj
 0001:0000a1e4       ??$swprintf_c@$0EAA@@@YAHAEAY0EAA@_WPEB_WZZ 000000018000b1e4 f i ConEmuPluginBase.obj
 0001:0000a210       ??$swprintf_c@$0MI@@@YAHAEAY0MI@_WPEB_WZZ 000000018000b210 f i ConEmuPluginBase.obj
 0001:0000a23c       ??$wcscpy_c@$0BBE@@@YAHAEAY0BBE@_WPEB_W@Z 000000018000b23c f i ConEmuPluginBase.obj
 0001:0000a288       ??$wcscpy_c@$0CAI@@@YAHAEAY0CAI@_WPEB_W@Z 000000018000b288 f i ConEmuPluginBase.obj
 0001:0000a2d4       ??0CPluginBase@@QEAA@XZ    000000018000b2d4 f   ConEmuPluginBase.obj
 0001:0000a3fc       ??0MWow64Disable@@QEAA@XZ  000000018000b3fc f i ConEmuPluginBase.obj
 0001:0000a470       ??1?$MFileMapping@UPanelViewSetMapping@@@@QEAA@XZ 000000018000b470 f i PluginBackground.obj
 0001:0000a470       ??1?$MFileMapping@UConEmuGuiMapping@@@@QEAA@XZ 000000018000b470 f i common-user64:ConEmuCheckEx.obj
 0001:0000a470       ??1?$MFileMapping@UCESERVER_CONSOLE_MAPPING_HDR@@@@QEAA@XZ 000000018000b470 f i ConEmuPluginBase.obj
 0001:0000a484       ??1CPluginBase@@UEAA@XZ    000000018000b484 f   ConEmuPluginBase.obj
 0001:0000a490       ??1MWow64Disable@@QEAA@XZ  000000018000b490 f i ConEmuPluginBase.obj
 0001:0000a4b4       ??_ECPluginBase@@UEAAPEAXI@Z 000000018000b4b4 f i ConEmuPluginBase.obj
 0001:0000a4b4       ??_GCPluginBase@@UEAAPEAXI@Z 000000018000b4b4 f i ConEmuPluginBase.obj
 0001:0000a4e0       ?ActivatePlugin@CPluginBase@@QEAA_NKPEAXK@Z 000000018000b4e0 f   ConEmuPluginBase.obj
 0001:0000a694       ?AddTab@CPluginBase@@QEAA_NAEAHH_N1HPEB_W2HHHH@Z 000000018000b694 f   ConEmuPluginBase.obj
 0001:0000a9f8       ?AddTabFinish@CPluginBase@@QEAAXH@Z 000000018000b9f8 f   ConEmuPluginBase.obj
 0001:0000aa04       ?Attach2Gui@CPluginBase@@QEAA_N_N@Z 000000018000ba04 f   ConEmuPluginBase.obj
 0001:0000ae2c       ?BackgroundMacroError@CPluginBase@@SAKPEAX@Z 000000018000be2c f   ConEmuPluginBase.obj
 0001:0000ae54       ?CheckBufferEnabled@CPluginBase@@QEAA_NXZ 000000018000be54 f   ConEmuPluginBase.obj
 0001:0000aeb8       ?CheckConEmuDetached@CPluginBase@@SAXXZ 000000018000beb8 f   ConEmuPluginBase.obj
 0001:0000b0a8       ?CheckResources@CPluginBase@@QEAAX_N@Z 000000018000c0a8 f   ConEmuPluginBase.obj
 0001:0000b288       ?CloseMap@?$MFileMapping@UPanelViewSetMapping@@@@QEAAXXZ 000000018000c288 f i PluginBackground.obj
 0001:0000b288       ?CloseMap@?$MFileMapping@UCESERVER_CONSOLE_MAPPING_HDR@@@@QEAAXXZ 000000018000c288 f i ConEmuPluginBase.obj
 0001:0000b288       ?CloseMap@?$MFileMapping@UConEmuGuiMapping@@@@QEAAXXZ 000000018000c288 f i common-kernel64:ConEmuCheck.obj
 0001:0000b2ec       ?CloseMapHeader@CPluginBase@@SAXXZ 000000018000c2ec f   ConEmuPluginBase.obj
 0001:0000b310       ?CloseTabs@CPluginBase@@SAXXZ 000000018000c310 f   ConEmuPluginBase.obj
 0001:0000b3b0       ?CommonPluginStartup@CPluginBase@@QEAAXXZ 000000018000c3b0 f   ConEmuPluginBase.obj
 0001:0000b4bc       ?CreateTabs@CPluginBase@@SA_NH@Z 000000018000c4bc f   ConEmuPluginBase.obj
 0001:0000b57c       ?DllCheckUnique@CPluginBase@@KA_N_N@Z 000000018000c57c f   ConEmuPluginBase.obj
 0001:0000b7b8       ?DllMain_ProcessAttach@CPluginBase@@KAXPEAUHINSTANCE__@@@Z 000000018000c7b8 f   ConEmuPluginBase.obj
 0001:0000b8a0       ?DllMain_ProcessDetach@CPluginBase@@KAXXZ 000000018000c8a0 f   ConEmuPluginBase.obj
 0001:0000b988       ?EditViewConsoleOutput@CPluginBase@@QEAAX_N@Z 000000018000c988 f   ConEmuPluginBase.obj
 0001:0000ba60       ?EmergencyShow@CPluginBase@@KAXXZ 000000018000ca60 f   ConEmuPluginBase.obj
 0001:0000babc       ?ExecuteSynchro@CPluginBase@@QEAAXXZ 000000018000cabc f   ConEmuPluginBase.obj
 0001:0000bb40       ?ExitFarCommon@CPluginBase@@QEAAX_N@Z 000000018000cb40 f   ConEmuPluginBase.obj
 0001:0000bb6c       ?FarSetConsoleSize@CPluginBase@@SA_NFF@Z 000000018000cb6c f   ConEmuPluginBase.obj
 0001:0000bc78       ?FillLoadedParm@CPluginBase@@SAXPEAUConEmuLoadedArg@@PEAUHINSTANCE__@@H@Z 000000018000cc78 f   ConEmuPluginBase.obj
 0001:0000bd50       ?FillUpdateBackground@CPluginBase@@QEAAXPEAUPaintBackgroundArg@@@Z 000000018000cd50 f   ConEmuPluginBase.obj
 0001:0000becc       ?FindServerCmd@CPluginBase@@QEAA_NKAEAK_N@Z 000000018000cecc f   ConEmuPluginBase.obj
 0001:0000bfc8       ?GetMainThreadId@CPluginBase@@SAKXZ 000000018000cfc8 f   ConEmuPluginBase.obj
 0001:0000c078       ?GetPanelInfo@CPluginBase@@QEAA_NKPEAUBkPanelInfo@@@Z 000000018000d078 f   ConEmuPluginBase.obj
 0001:0000c11c       ?InitHWND@CPluginBase@@SAXXZ 000000018000d11c f   ConEmuPluginBase.obj
 0001:0000c3bc       ?InitResources@CPluginBase@@QEAAXXZ 000000018000d3bc f   ConEmuPluginBase.obj
 0001:0000c5e0       ?InitRootRegKey@CPluginBase@@IEAAXXZ 000000018000d5e0 f   ConEmuPluginBase.obj
 0001:0000c6dc       ?InternalOpenCreate@?$MFileMapping@UCESERVER_CONSOLE_MAPPING_HDR@@@@IEAAPEAUCESERVER_CONSOLE_MAPPING_HDR@@_N0H@Z 000000018000d6dc f i ConEmuPluginBase.obj
 0001:0000c6dc       ?InternalOpenCreate@?$MFileMapping@UPanelViewSetMapping@@@@IEAAPEAUPanelViewSetMapping@@_N0H@Z 000000018000d6dc f i PluginBackground.obj
 0001:0000c6dc       ?InternalOpenCreate@?$MFileMapping@UConEmuGuiMapping@@@@IEAAPEAUConEmuGuiMapping@@_N0H@Z 000000018000d6dc f i common-kernel64:ConEmuCheck.obj
 0001:0000c990       ?IsCurrentTabModal@CPluginBase@@QEAA_NXZ 000000018000d990 f   ConEmuPluginBase.obj
 0001:0000cb4c       ?LoadFarVersion@CPluginBase@@SA_NXZ 000000018000db4c f   ConEmuPluginBase.obj
 0001:0000ce00       ?LoadPanelTabsFromRegistry@CPluginBase@@IEAAXXZ 000000018000de00 f   ConEmuPluginBase.obj
 0001:0000cf2c       ?MonitorThreadProcW@CPluginBase@@SAKPEAX@Z 000000018000df2c f   ConEmuPluginBase.obj
 0001:0000d330       ?NotifyConEmuUnloaded@CPluginBase@@SAXXZ 000000018000e330 f   ConEmuPluginBase.obj
 0001:0000d454       ?OnConsoleDetaching@CPluginBase@@SAHPEAUHookCallbackArg@@@Z 000000018000e454 f   ConEmuPluginBase.obj
 0001:0000d580       ?OnConsolePeekInput@CPluginBase@@SAHPEAUHookCallbackArg@@@Z 000000018000e580 f   ConEmuPluginBase.obj
 0001:0000d5e8       ?OnConsolePeekInputPost@CPluginBase@@SAHPEAUHookCallbackArg@@@Z 000000018000e5e8 f   ConEmuPluginBase.obj
 0001:0000d618       ?OnConsolePeekReadInput@CPluginBase@@SAX_N@Z 000000018000e618 f   ConEmuPluginBase.obj
 0001:0000d810       ?OnConsoleReadInput@CPluginBase@@SAHPEAUHookCallbackArg@@@Z 000000018000e810 f   ConEmuPluginBase.obj
 0001:0000d818       ?OnConsoleReadInputPost@CPluginBase@@SAHPEAUHookCallbackArg@@@Z 000000018000e818 f   ConEmuPluginBase.obj
 0001:0000d9c8       ?OnConsoleReadInputWork@CPluginBase@@SAHPEAUHookCallbackArg@@@Z 000000018000e9c8 f   ConEmuPluginBase.obj
 0001:0000da3c       ?OnConsoleWasAttached@CPluginBase@@SAHPEAUHookCallbackArg@@@Z 000000018000ea3c f   ConEmuPluginBase.obj
 0001:0000daa4       ?OnCurDirChanged@CPluginBase@@SAXXZ 000000018000eaa4 f   ConEmuPluginBase.obj
 0001:0000db08       ?OnGetNumberOfConsoleInputEventsPost@CPluginBase@@SAHPEAUHookCallbackArg@@@Z 000000018000eb08 f   ConEmuPluginBase.obj
 0001:0000db3c       ?OnLibraryLoaded@CPluginBase@@SAXPEAUHINSTANCE__@@@Z 000000018000eb3c f   ConEmuPluginBase.obj
 0001:0000dbdc       ?OnMainThreadActivated@CPluginBase@@QEAAXXZ 000000018000ebdc f   ConEmuPluginBase.obj
 0001:0000dd80       ?OnPanelViewCallbacks@CPluginBase@@SA_NPEAUHookCallbackArg@@P6AHPEAXPEAU_INPUT_RECORD@@KPEAKPEAH@Z5@Z 000000018000ed80 f   ConEmuPluginBase.obj
 0001:0000de58       ?OnPostWriteConsoleOutput@CPluginBase@@SAHPEAUHookCallbackArg@@@Z 000000018000ee58 f   ConEmuPluginBase.obj
 0001:0000de64       ?OnShellExecuteExW_Except@CPluginBase@@SAHPEAUHookCallbackArg@@@Z 000000018000ee64 f   ConEmuPluginBase.obj
 0001:0000dea4       ?OnWriteConsoleOutput@CPluginBase@@SAHPEAUHookCallbackArg@@@Z 000000018000eea4 f   ConEmuPluginBase.obj
 0001:0000df78       ?OpenMapHeader@CPluginBase@@SAHXZ 000000018000ef78 f   ConEmuPluginBase.obj
 0001:0000e134       ?OpenPluginCommon@CPluginBase@@QEAAPEAXH_J_N@Z 000000018000f134 f   ConEmuPluginBase.obj
 0001:0000e414       ?OutDataAlloc@CPluginBase@@SA_NK@Z 000000018000f414 f   ConEmuPluginBase.obj
 0001:0000e474       ?OutDataRealloc@CPluginBase@@SA_NK@Z 000000018000f474 f   ConEmuPluginBase.obj
 0001:0000e540       ?OutDataWrite@CPluginBase@@SA_NPEAXK@Z 000000018000f540 f   ConEmuPluginBase.obj
 0001:0000e5e0       ?PanelControl@CPluginBase@@QEAA_JPEAXH_J0@Z 000000018000f5e0 f   ConEmuPluginBase.obj
 0001:0000e678       ?Plugin@@YAPEAVCPluginBase@@XZ 000000018000f678 f   ConEmuPluginBase.obj
 0001:0000e740       ?PrintText@CPluginBase@@QEAA_NPEB_W@Z 000000018000f740 f   ConEmuPluginBase.obj
 0001:0000e86c       ?ProcessCommand@CPluginBase@@QEAA_NKHPEAXPEAPEAUCESERVER_REQ@@_N@Z 000000018000f86c f   ConEmuPluginBase.obj
 0001:0000ecf4       ?ProcessCommandLine@CPluginBase@@QEAA_NPEA_W@Z 000000018000fcf4 f   ConEmuPluginBase.obj
 0001:0000ed40       ?ProcessDragFrom@CPluginBase@@QEAAXXZ 000000018000fd40 f   ConEmuPluginBase.obj
 0001:0000f1c4       ?ProcessDragTo@CPluginBase@@QEAAXXZ 00000001800101c4 f   ConEmuPluginBase.obj
 0001:0000f4d4       ?ProcessEditorInputInternal@CPluginBase@@QEAAXAEBU_INPUT_RECORD@@@Z 00000001800104d4 f   ConEmuPluginBase.obj
 0001:0000f500       ?ProcessEditorViewerEvent@CPluginBase@@QEAAHHH@Z 0000000180010500 f   ConEmuPluginBase.obj
 0001:0000f5b4       ?ProcessSetWindowCommand@CPluginBase@@QEAAXXZ 00000001800105b4 f   ConEmuPluginBase.obj
 0001:0000f6d8       ?ProcessSynchroEvent@CPluginBase@@QEAAHHPEAX@Z 00000001800106d8 f   ConEmuPluginBase.obj
 0001:0000f75c       ?ReloadFarInfo@CPluginBase@@QEAA_N_N@Z 000000018001075c f   ConEmuPluginBase.obj
 0001:0000f9dc       ?ReloadFarInfoApi@CPluginBase@@IEAA_NXZ 00000001800109dc f   ConEmuPluginBase.obj
 0001:0000fbb0       ?RunExternalProgram@CPluginBase@@QEAA_NPEA_W@Z 0000000180010bb0 f   ConEmuPluginBase.obj
 0001:0000fd2c       ?RunExternalProgramW@CPluginBase@@SA_NPEA_W0_N@Z 0000000180010d2c f   ConEmuPluginBase.obj
 0001:0000ff90       ?SendTabs@CPluginBase@@SAXH_N@Z 0000000180010f90 f   ConEmuPluginBase.obj
 0001:0001014c       ?SetRootRegKey@CPluginBase@@IEAAXPEA_W@Z 000000018001114c f   ConEmuPluginBase.obj
 0001:000101e8       ?ShowConsoleInfo@CPluginBase@@QEAAXXZ 00000001800111e8 f   ConEmuPluginBase.obj
 0001:000103ec       ?ShowMessage@CPluginBase@@QEAAHHH@Z 00000001800113ec f   ConEmuPluginBase.obj
 0001:00010468       ?ShowMessageBox@CPluginBase@@KAHPEB_WI@Z 0000000180011468 f   ConEmuPluginBase.obj
 0001:0001054c       ?ShowMessageGui@CPluginBase@@QEAAHHH@Z 000000018001154c f   ConEmuPluginBase.obj
 0001:000105d4       ?ShowPanelsList@CPluginBase@@QEAAXXZ 00000001800115d4 f   ConEmuPluginBase.obj
 0001:00010728       ?ShowPluginMenu@CPluginBase@@QEAAXW4PluginCallCommands@@@Z 0000000180011728 f   ConEmuPluginBase.obj
 0001:0001093c       ?ShowProtocolWarning@CPluginBase@@KAXXZ 000000018001193c f   ConEmuPluginBase.obj
 0001:00010ab4       ?ShowTabsList@CPluginBase@@QEAAXXZ 0000000180011ab4 f   ConEmuPluginBase.obj
 0001:00010d40       ?StartDebugger@CPluginBase@@QEAA_NXZ 0000000180011d40 f   ConEmuPluginBase.obj
 0001:00010ff4       ?StopThread@CPluginBase@@QEAAX_N@Z 0000000180011ff4 f   ConEmuPluginBase.obj
 0001:00011258       ?StorePanelDirs@CPluginBase@@QEAA_NPEB_W0@Z 0000000180012258 f   ConEmuPluginBase.obj
 0001:000113c8       ?StringCchCatW@@YAJPEA_W_KPEB_W@Z 00000001800123c8 f i ConEmuPluginBase.obj
 0001:00011484       ?StringCchCopyW@@YAJPEA_W_KPEB_W@Z 0000000180012484 f i ConEmuPluginBase.obj
 0001:000114f0       ?SwitchTabCommand@CPluginBase@@QEAAXW4PluginMenuCommands@@@Z 00000001800124f0 f   ConEmuPluginBase.obj
 0001:00011574       ?ToOem@CPluginBase@@SAPEADPEB_W@Z 0000000180012574 f   ConEmuPluginBase.obj
 0001:000115d0       ?ToOem@CPluginBase@@SAXPEB_WPEAD_J@Z 00000001800125d0 f   ConEmuPluginBase.obj
 0001:00011610       ?ToUnicode@CPluginBase@@SAPEA_WPEBD@Z 0000000180012610 f   ConEmuPluginBase.obj
 0001:00011690       ?TouchReadPeekConsoleInputs@CPluginBase@@SAXH@Z 0000000180012690 f   ConEmuPluginBase.obj
 0001:000116dc       ?UngetDummyMouseEvent@CPluginBase@@SA_N_NPEAUHookCallbackArg@@@Z 00000001800126dc f   ConEmuPluginBase.obj
 0001:00011888       ?UpdateConEmuTabs@CPluginBase@@QEAA_N_N@Z 0000000180012888 f   ConEmuPluginBase.obj
 0001:00011b08       ?UpdatePanelDirs@CPluginBase@@QEAAXXZ 0000000180012b08 f   ConEmuPluginBase.obj
 0001:00011ccc       ?WaitPluginActivation@CPluginBase@@SAKKPEAPEAXHK@Z 0000000180012ccc f   ConEmuPluginBase.obj
 0001:00011ddc       ?cmd_CloseQSearch@CPluginBase@@QEAAXXZ 0000000180012ddc f   ConEmuPluginBase.obj
 0001:00011e18       ?cmd_ConSetFont@CPluginBase@@QEAAXPEAX@Z 0000000180012e18 f   ConEmuPluginBase.obj
 0001:00011e6c       ?cmd_EMenu@CPluginBase@@QEAAXPEAX@Z 0000000180012e6c f   ConEmuPluginBase.obj
 0001:00011f88       ?cmd_ExternalCallback@CPluginBase@@QEAA_NPEAX@Z 0000000180012f88 f   ConEmuPluginBase.obj
 0001:00011fec       ?cmd_GuiChanged@CPluginBase@@QEAAXPEAX@Z 0000000180012fec f   ConEmuPluginBase.obj
 0001:00012078       ?cmd_LeftClickSync@CPluginBase@@QEAAXPEAX@Z 0000000180013078 f   ConEmuPluginBase.obj
 0001:00012164       ?cmd_OpenEditorLine@CPluginBase@@QEAA_NPEAUCESERVER_REQ_FAREDITOR@@@Z 0000000180013164 f   ConEmuPluginBase.obj
 0001:00012230       ?cmd_RedrawFarCall@CPluginBase@@QEAA_NAEAPEAUCESERVER_REQ@@PEAPEAU2@@Z 0000000180013230 f   ConEmuPluginBase.obj
 0001:00012304       ?cmd_SetWindow@CPluginBase@@QEAA_NPEAX_N@Z 0000000180013304 f   ConEmuPluginBase.obj
 0001:00012390       ?isMacroActive@CPluginBase@@QEAA_NAEAH@Z 0000000180013390 f   ConEmuPluginBase.obj
 0001:000123cc       ?isModalEditorViewer@CPluginBase@@QEAA_NXZ 00000001800133cc f   ConEmuPluginBase.obj
 0001:000123f8       ?pcc_Disabled@CPluginBase@@SA_NW4PluginMenuCommands@@@Z 00000001800133f8 f   ConEmuPluginBase.obj
 0001:0001246c       ?pcc_Selected@CPluginBase@@SA_NW4PluginMenuCommands@@@Z 000000018001346c f   ConEmuPluginBase.obj
 0001:000124c8       ??0CPluginBackground@@QEAA@XZ 00000001800134c8 f   PluginBackground.obj
 0001:00012680       ??1CPluginBackground@@QEAA@XZ 0000000180013680 f   PluginBackground.obj
 0001:000127e8       ?CheckPanelFolders@CPluginBackground@@IEAAXH@Z 00000001800137e8 f   PluginBackground.obj
 0001:000128b8       ?GetTo@?$MFileMapping@UPanelViewSetMapping@@@@QEAA_NPEAUPanelViewSetMapping@@H@Z 00000001800138b8 f i PluginBackground.obj
 0001:00012988       ?IsParmChanged@CPluginBackground@@IEAA_NPEAUPaintBackgroundArg@@0@Z 0000000180013988 f   PluginBackground.obj
 0001:00012c00       ?LoadThSet@CPluginBackground@@IEAAHH@Z 0000000180013c00 f   PluginBackground.obj
 0001:00012f74       ?MonitorBackground@CPluginBackground@@QEAAXXZ 0000000180013f74 f   PluginBackground.obj
 0001:00012fdc       ?OnMainThreadActivated@CPluginBackground@@QEAAXHH@Z 0000000180013fdc f   PluginBackground.obj
 0001:000130a0       ?ReallocItems@CPluginBackground@@IEAAXH@Z 00000001800140a0 f   PluginBackground.obj
 0001:00013108       ?RegisterSubplugin@CPluginBackground@@QEAAHPEAURegisterBackgroundArg@@@Z 0000000180014108 f   PluginBackground.obj
 0001:00013390       ?SetDcPanelRect@CPluginBackground@@IEAAXPEAUtagRECT@@PEAUBkPanelInfo@@PEAUPaintBackgroundArg@@@Z 0000000180014390 f   PluginBackground.obj
 0001:00013464       ?SetForceThLoad@CPluginBackground@@QEAAXXZ 0000000180014464 f   PluginBackground.obj
 0001:0001347c       ?SetForceUpdate@CPluginBackground@@QEAAX_N@Z 000000018001447c f   PluginBackground.obj
 0001:0001349c       ?UpdateBackground@CPluginBackground@@IEAAXXZ 000000018001449c f   PluginBackground.obj
 0001:00013d10       ?UpdateBackground_Exec@CPluginBackground@@KAXPEAURegisterBackgroundArg@@PEAUPaintBackgroundArg@@@Z 0000000180014d10 f   PluginBackground.obj
 0001:00013d54       ??$swprintf_c@$09@@YAHAEAY09_WPEB_WZZ 0000000180014d54 f i PluginSrv.obj
 0001:00013d80       ??$wcscpy_c@$0BAE@@@YAHAEAY0BAE@_WPEB_W@Z 0000000180014d80 f i PluginSrv.obj
 0001:00013dcc       ?DumpError@?$PipeServer@UCESERVER_REQ@@@@IEAAXPEAUPipeInst@1@PEB_WH@Z 0000000180014dcc f i PluginSrv.obj
 0001:00013ee0       ?PipeServerRead@?$PipeServer@UCESERVER_REQ@@@@IEAAHPEAUPipeInst@1@@Z 0000000180014ee0 f i PluginSrv.obj
 0001:0001417c       ?PipeServerThread@?$PipeServer@UCESERVER_REQ@@@@IEAAKPEAUPipeInst@1@@Z 000000018001517c f i PluginSrv.obj
 0001:0001444c       ?PipeServerWrite@?$PipeServer@UCESERVER_REQ@@@@IEAAHPEAUPipeInst@1@PEBXKPEAKH@Z 000000018001544c f i PluginSrv.obj
 0001:00014578       ?PlugServerCommand@@YAHPEAXPEAUCESERVER_REQ@@AEAPEAU1@AEAK3_J@Z 0000000180015578 f   PluginSrv.obj
 0001:00014ab8       ?PlugServerFree@@YAXPEAUCESERVER_REQ@@_J@Z 0000000180015ab8 f   PluginSrv.obj
 0001:00014ad0       ?PlugServerStart@@YA_NXZ   0000000180015ad0 f   PluginSrv.obj
 0001:00014be4       ?PlugServerStop@@YAX_N@Z   0000000180015be4 f   PluginSrv.obj
 0001:00014c2c       ?StartPipeInstance@?$PipeServer@UCESERVER_REQ@@@@IEAA_NPEAUPipeInst@1@@Z 0000000180015c2c f i PluginSrv.obj
 0001:00014dbc       ?StartPipeServer@?$PipeServer@UCESERVER_REQ@@@@QEAA_N_NPEB_W_JPEAU_SECURITY_ATTRIBUTES@@P6AHPEAXPEAUCESERVER_REQ@@AEAPEAU3@AEAK72@ZP6AX52@ZP6AH42@ZP6AH42@ZP6AH42@Z@Z 0000000180015dbc f i PluginSrv.obj
 0001:00014f40       ?StopPipeServer@?$PipeServer@UCESERVER_REQ@@@@QEAAX_NAEA_N@Z 0000000180015f40 f i PluginSrv.obj
 0001:000152c8       ?WaitForClient@?$PipeServer@UCESERVER_REQ@@@@IEAA_NPEAUPipeInst@1@AEAH1@Z 00000001800162c8 f i PluginSrv.obj
 0001:000155e0       ?WaitOverlapped@?$PipeServer@UCESERVER_REQ@@@@IEAAHPEAUPipeInst@1@PEAK@Z 00000001800165e0 f i PluginSrv.obj
 0001:000157b4       ?WriteDummyAnswer@?$PipeServer@UCESERVER_REQ@@@@IEAAHPEAUPipeInst@1@@Z 00000001800167b4 f i PluginSrv.obj
 0001:00015834       ?_PipeServerThread@?$PipeServer@UCESERVER_REQ@@@@KAKPEAX@Z 0000000180016834 f i PluginSrv.obj
 0001:00015890       ?cmd_FarSetChanged@@YAXPEAUFAR_REQ_FARSETCHANGED@@@Z 0000000180016890 f   PluginSrv.obj
 0001:000158ea       GetFileVersionInfoSizeW    00000001800168ea f   version:VERSION.dll
 0001:000158f0       GetFileVersionInfoW        00000001800168f0 f   version:VERSION.dll
 0001:000158f6       VerQueryValueW             00000001800168f6 f   version:VERSION.dll
 0001:000158fc       CreateToolhelp32Snapshot   00000001800168fc f   kernel32:KERNEL32.dll
 0001:00015902       Thread32First              0000000180016902 f   kernel32:KERNEL32.dll
 0001:00015908       Thread32Next               0000000180016908 f   kernel32:KERNEL32.dll
 0001:0001590e       Module32FirstW             000000018001690e f   kernel32:KERNEL32.dll
 0001:00015914       Module32NextW              0000000180016914 f   kernel32:KERNEL32.dll
 0001:0001591c       ??2@YAPEAX_K@Z             000000018001691c f   common-kernel64:Memory.obj
 0001:00015944       ??3@YAXPEAX@Z              0000000180016944 f   common-kernel64:Memory.obj
 0001:00015944       ??_V@YAXPEAX@Z             0000000180016944 f   common-kernel64:Memory.obj
 0001:0001594c       ??_U@YAPEAX_K@Z            000000018001694c f   common-kernel64:Memory.obj
 0001:00015954       ?HeapDeinitialize@@YAXXZ   0000000180016954 f   common-kernel64:Memory.obj
 0001:000159b4       ?HeapInitialize@@YA_NXZ    00000001800169b4 f   common-kernel64:Memory.obj
 0001:000159f0       ?xf_calloc@@YAPEAX_K0@Z    00000001800169f0 f   common-kernel64:Memory.obj
 0001:00015a20       ?xf_free@@YAXPEAX@Z        0000000180016a20 f   common-kernel64:Memory.obj
 0001:00015a94       ?xf_malloc@@YAPEAX_K@Z     0000000180016a94 f   common-kernel64:Memory.obj
 0001:00015abc       ?xf_realloc@@YAPEAXPEAX_K@Z 0000000180016abc f   common-kernel64:Memory.obj
 0001:00015ae4       ??$wcscpy_c@$0CA@@@YAHAEAY0CA@_WPEB_W@Z 0000000180016ae4 f i common-kernel64:ConEmuCheck.obj
 0001:00015b30       ?ExecuteCmd@@YAPEAUCESERVER_REQ@@PEB_WPEAU1@KPEAUHWND__@@HKH@Z 0000000180016b30 f   common-kernel64:ConEmuCheck.obj
 0001:00015d18       ?ExecuteFreeResult@@YAXAEAPEAUCESERVER_REQ@@@Z 0000000180016d18 f   common-kernel64:ConEmuCheck.obj
 0001:00015d38       ?ExecuteGuiCmd@@YAPEAUCESERVER_REQ@@PEAUHWND__@@PEAU1@0H@Z 0000000180016d38 f   common-kernel64:ConEmuCheck.obj
 0001:00015df8       ?ExecuteNewCmd@@YAPEAUCESERVER_REQ@@K_K@Z 0000000180016df8 f   common-kernel64:ConEmuCheck.obj
 0001:00015e5c       ?ExecuteNewCmd@@YA_NAEAPEAUCESERVER_REQ@@AEAKK_K@Z 0000000180016e5c f   common-kernel64:ConEmuCheck.obj
 0001:00015f50       ?ExecuteOpenPipe@@YAPEAXPEB_WAEAY0CAI@_W0KKHPEAXH@Z 0000000180016f50 f   common-kernel64:ConEmuCheck.obj
 0001:00016100       ?ExecutePrepareCmd@@YAXPEAUCESERVER_REQ@@K_K@Z 0000000180017100 f   common-kernel64:ConEmuCheck.obj
 0001:0001613c       ?ExecutePrepareCmd@@YAXPEAUCESERVER_REQ_HDR@@K_K@Z 000000018001713c f   common-kernel64:ConEmuCheck.obj
 0001:000161ac       ?ExecuteSrvCmd@@YAPEAUCESERVER_REQ@@KPEAU1@PEAUHWND__@@HKH@Z 00000001800171ac f   common-kernel64:ConEmuCheck.obj
 0001:00016280       ?GetConEmuHWND@@YAPEAUHWND__@@H@Z 0000000180017280 f   common-kernel64:ConEmuCheck.obj
 0001:000163c4       ?GuiMessageBox@@YAHPEAUHWND__@@PEB_W1H@Z 00000001800173c4 f   common-kernel64:ConEmuCheck.obj
 0001:0001652c       ?LoadSrvMapping@@YAHPEAUHWND__@@AEAUCESERVER_CONSOLE_MAPPING_HDR@@@Z 000000018001752c f   common-kernel64:ConEmuCheck.obj
 0001:00016730       ?ModuleName@@YAPEB_WPEB_W@Z 0000000180017730 f   common-kernel64:ConEmuCheck.obj
 0001:000167f0       ?isConsoleClass@@YA_NPEB_W@Z 00000001800177f0 f   common-kernel64:ConEmuCheck.obj
 0001:00016840       ?isConsoleWindow@@YA_NPEAUHWND__@@@Z 0000000180017840 f   common-kernel64:ConEmuCheck.obj
 0001:00016930       ?myGetConsoleWindow@@YAPEAUHWND__@@XZ 0000000180017930 f   common-kernel64:ConEmuCheck.obj
 0001:000169cc       ?StringCchVPrintfA@@YAJPEAD_KPEBD0@Z 00000001800179cc f i common-kernel64:MStrSafe.obj
 0001:00016a74       ?lstrcmpni@@YAHPEB_W0H@Z   0000000180017a74 f   common-kernel64:MStrSafe.obj
 0001:00016b88       ?msprintf@@YAPEB_WPEA_W_KPEB_WZZ 0000000180017b88 f   common-kernel64:MStrSafe.obj
 0001:00016f98       ?sprintf_c@@YAHPEAD_JPEBDZZ 0000000180017f98 f   common-kernel64:MStrSafe.obj
 0001:00016fd8       ?swprintf_c@@YAHPEA_W_JPEB_WZZ 0000000180017fd8 f   common-kernel64:MStrSafe.obj
 0001:00017018       ?IsFilePath@@YA_NPEB_W_N@Z 0000000180018018 f   common-kernel64:CmdLine.obj
 0001:000171b8       ?PointToExt@@YAPEB_WPEB_W@Z 00000001800181b8 f   common-kernel64:CmdLine.obj
 0001:000171dc       ?PointToName@@YAPEB_WPEB_W@Z 00000001800181dc f   common-kernel64:CmdLine.obj
 0001:00017238       ?Unquote@@YAPEB_WPEA_W_N@Z 0000000180018238 f   common-kernel64:CmdLine.obj
 0001:000172a0       ??$sprintf_c@$0CI@@@YAHAEAY0CI@DPEBDZZ 00000001800182a0 f i common-kernel64:WThreads.obj
 0001:000172cc       ?SetThreadName@@YAXKPEAD@Z 00000001800182cc f   common-kernel64:WThreads.obj
 0001:00017304       ?apiCreateThread@@YAPEAXP6AKPEAX@Z0PEAKPEBDH@Z 0000000180018304 f   common-kernel64:WThreads.obj
 0001:0001744c       ?apiTerminateThreadEx@@YAHPEAXKPEBDH@Z 000000018001844c f   common-kernel64:WThreads.obj
 0001:00017554       ?apiThreadHelper@@YAKPEAX@Z 0000000180018554 f   common-kernel64:WThreads.obj
 0001:00017760       ?lstrdup@@YAPEA_WPEB_W_K@Z 0000000180018760 f   common-kernel64:MStrDup.obj
 0001:000177d4       ?lstrmerge@@YAPEA_WPEB_W00000000@Z 00000001800187d4 f   common-kernel64:MStrDup.obj
 0001:00017918       ?lstrmerge@@YA_NPEAPEA_WPEB_W1111111@Z 0000000180018918 f   common-kernel64:MStrDup.obj
 0001:00017990       ??0CEnvStrings@@QEAA@PEA_W@Z 0000000180018990 f   common-kernel64:EnvVar.obj
 0001:00017a04       ??1CEnvStrings@@QEAA@XZ    0000000180018a04 f   common-kernel64:EnvVar.obj
 0001:00017a28       ?Clear@CEnvRestorer@@QEAAXXZ 0000000180018a28 f   common-kernel64:EnvVar.obj
 0001:00017a4c       ?ExpandEnvStr@@YAPEA_WPEB_W@Z 0000000180018a4c f   common-kernel64:EnvVar.obj
 0001:00017af8       ?GetEnvVar@@YAPEA_WPEB_W@Z 0000000180018af8 f   common-kernel64:EnvVar.obj
 0001:00017b9c       ?SavePathVar@CEnvRestorer@@QEAAXPEB_W@Z 0000000180018b9c f   common-kernel64:EnvVar.obj
 0001:00017bd0       ?CommonShutdown@@YAXXZ     0000000180018bd0 f   common-kernel64:Common.obj
 0001:00017be0       ?IsEnvBlockVariableValid@@YA_NPEB_W@Z 0000000180018be0 f   common-kernel64:Common.obj
 0001:00017c14       ?IsEnvBlockVariableValid@@YA_NPEB_WAEAPEB_W@Z 0000000180018c14 f   common-kernel64:Common.obj
 0001:00017c68       ?SetCommand@CESERVER_REQ_NEWCMD@@QEAAXPEB_W@Z 0000000180018c68 f   common-kernel64:Common.obj
 0001:00017cd0       ?SetEnvStrings@CESERVER_REQ_NEWCMD@@QEAAXPEB_WK@Z 0000000180018cd0 f   common-kernel64:Common.obj
 0001:00017de8       ??_GMNullDesc@@QEAAPEAXI@Z 0000000180018de8 f i common-kernel64:MSecurity.obj
 0001:00017e5c       ?LoadAdvApi@MNullDesc@@IEAAHXZ 0000000180018e5c f i common-kernel64:MSecurity.obj
 0001:00017f84       ?LocalSecurity@@YAPEAU_SECURITY_ATTRIBUTES@@XZ 0000000180018f84 f   common-kernel64:MSecurity.obj
 0001:00017fdc       ?LocalSecurity@MNullDesc@@QEAAPEAU_SECURITY_ATTRIBUTES@@XZ 0000000180018fdc f i common-kernel64:MSecurity.obj
 0001:00018158       ?ShutdownSecurity@@YAXXZ   0000000180019158 f   common-kernel64:MSecurity.obj
 0001:00018180       ??0CEStr@@QEAA@$$QEAPEA_W@Z 0000000180019180 f   common-kernel64:CEStr.obj
 0001:000181a0       ??0CEStr@@QEAA@PEB_W00000000@Z 00000001800191a0 f   common-kernel64:CEStr.obj
 0001:00018238       ??0CEStr@@QEAA@XZ          0000000180019238 f   common-kernel64:CEStr.obj
 0001:00018248       ??0bad_alloc@stdext@@QEAA@AEBV01@@Z 0000000180019248 f i common-kernel64:CEStr.obj
 0001:00018268       ??0bad_alloc@stdext@@QEAA@XZ 0000000180019268 f i common-kernel64:CEStr.obj
 0001:00018284       ??0exception@stdext@@QEAA@AEBV01@@Z 0000000180019284 f i common-kernel64:CEStr.obj
 0001:0001829c       ??1CEStr@@QEAA@XZ          000000018001929c f   common-kernel64:CEStr.obj
 0001:000182a4       ??1bad_alloc@stdext@@UEAA@XZ 00000001800192a4 f i common-kernel64:CEStr.obj
 0001:000182b0       ??4CEStr@@QEAAAEAU0@PEB_W@Z 00000001800192b0 f   common-kernel64:CEStr.obj
 0001:000182d0       ??BCEStr@@QEBAPEB_WXZ      00000001800192d0 f   common-kernel64:CEStr.obj
 0001:000182d4       ??_Eexception@stdext@@UEAAPEAXI@Z 00000001800192d4 f i common-kernel64:CEStr.obj
 0001:000182d4       ??_Ebad_alloc@stdext@@UEAAPEAXI@Z 00000001800192d4 f i common-kernel64:CEStr.obj
 0001:000182d4       ??_Gbad_alloc@stdext@@UEAAPEAXI@Z 00000001800192d4 f i common-kernel64:CEStr.obj
 0001:000182d4       ??_Gexception@stdext@@UEAAPEAXI@Z 00000001800192d4 f i common-kernel64:CEStr.obj
 0001:00018300       ?AttachInt@CEStr@@AEAAPEB_WAEAPEA_W@Z 0000000180019300 f   common-kernel64:CEStr.obj
 0001:00018378       ?GetBuffer@CEStr@@QEAAPEA_W_J@Z 0000000180019378 f   common-kernel64:CEStr.obj
 0001:00018438       ?GetLen@CEStr@@QEBA_JXZ    0000000180019438 f   common-kernel64:CEStr.obj
 0001:00018460       ?GetMaxCount@CEStr@@QEAA_JXZ 0000000180019460 f   common-kernel64:CEStr.obj
 0001:0001848c       ?Release@CEStr@@QEAAXXZ    000000018001948c f   common-kernel64:CEStr.obj
 0001:000184b0       ?Set@CEStr@@QEAAPEB_WPEB_W_J@Z 00000001800194b0 f   common-kernel64:CEStr.obj
 0001:00018598       ?StringCchCopyNW@@YAJPEA_W_KPEB_W1@Z 0000000180019598 f i common-kernel64:CEStr.obj
 0001:0001860c       ?_Doraise@bad_alloc@stdext@@MEBAXXZ 000000018001960c f i common-kernel64:CEStr.obj
 0001:00018628       ?what@exception@stdext@@UEBAPEBDXZ 0000000180019628 f i common-kernel64:CEStr.obj
 0001:0001863c       ??0MHandle@@QEAA@PEAXV?$function@$$A6AXPEAX@Z@std@@@Z 000000018001963c f i common-kernel64:WObjects.obj
 0001:000186b0       ??4?$function@$$A6AXPEAX@Z@std@@QEAAAEAV01@$$QEAV01@@Z 00000001800196b0 f i common-kernel64:WObjects.obj
 0001:00018728       ?Close@MHandle@@QEAAXXZ    0000000180019728 f i common-kernel64:WObjects.obj
 0001:0001878c       ?FileExists@@YA_NPEB_WPEA_K@Z 000000018001978c f   common-kernel64:WObjects.obj
 0001:00018a28       ?IsWin6@@YA_NXZ            0000000180019a28 f   common-kernel64:WObjects.obj
 0001:00018a5c       ?IsWin7@@YA_NXZ            0000000180019a5c f   common-kernel64:WObjects.obj
 0001:00018a90       ?IsWinVerOrHigher@@YA_NG@Z 0000000180019a90 f   common-kernel64:WObjects.obj
 0001:00018ba8       ?IsWindows64@@YA_NXZ       0000000180019ba8 f   common-kernel64:WObjects.obj
 0001:00018bcc       ?SetHandle@MHandle@@QEAA_NPEAXV?$function@$$A6AXPEAX@Z@std@@@Z 0000000180019bcc f i common-kernel64:WObjects.obj
 0001:00018c38       ?_Copy@?$_Func_impl_no_alloc@P6AHPEAX@ZXPEAX@std@@EEBAPEAV?$_Func_base@XPEAX@2@PEAX@Z 0000000180019c38 f i common-kernel64:WObjects.obj
 0001:00018c38       ?_Move@?$_Func_impl_no_alloc@P6AHPEAX@ZXPEAX@std@@EEAAPEAV?$_Func_base@XPEAX@2@PEAX@Z 0000000180019c38 f i common-kernel64:WObjects.obj
 0001:00018c50       ?_Delete_this@?$_Func_impl_no_alloc@P6AHPEAX@ZXPEAX@std@@EEAAX_N@Z 0000000180019c50 f i common-kernel64:WObjects.obj
 0001:00018c50       ?_Delete_this@?$_Func_impl_no_alloc@V<lambda_217d18733db987cb8fc0adfd68028951>@@_NAEBUtagPROCESSENTRY32W@@@std@@EEAAX_N@Z 0000000180019c50 f i common-kernel64:MProcess.obj
 0001:00018c68       ?_Do_call@?$_Func_impl_no_alloc@P6AHPEAX@ZXPEAX@std@@EEAAX$$QEAPEAX@Z 0000000180019c68 f i common-kernel64:WObjects.obj
 0001:00018c74       ?_Get@?$_Func_impl_no_alloc@V<lambda_217d18733db987cb8fc0adfd68028951>@@_NAEBUtagPROCESSENTRY32W@@@std@@EEBAPEBXXZ 0000000180019c74 f i common-kernel64:MProcess.obj
 0001:00018c74       ?_Get@?$_Func_impl_no_alloc@P6AHPEAX@ZXPEAX@std@@EEBAPEBXXZ 0000000180019c74 f i common-kernel64:WObjects.obj
 0001:00018c7c       ?_Target_type@?$_Func_impl_no_alloc@P6AHPEAX@ZXPEAX@std@@EEBAAEBVtype_info@@XZ 0000000180019c7c f i common-kernel64:WObjects.obj
 0001:00018c84       ?_VerifyVersionInfo@@YA_NPEAU_OSVERSIONINFOEXW@@K_K@Z 0000000180019c84 f   common-kernel64:WObjects.obj
 0001:00018d54       ?Init@HkFunc@@QEAA_NPEB_WPEAUHINSTANCE__@@@Z 0000000180019d54 f   common-kernel64:HkFunc.obj
 0001:00018de4       ?isConEmuHk@HkFunc@@QEAA_NXZ 0000000180019de4 f   common-kernel64:HkFunc.obj
 0001:00018dec       ??$_Emplace_reallocate@AEBUtagPROCESSENTRY32W@@@?$vector@UtagPROCESSENTRY32W@@V?$MArrayAllocator@UtagPROCESSENTRY32W@@@@@std@@QEAAPEAUtagPROCESSENTRY32W@@QEAU2@AEBU2@@Z 0000000180019dec f i common-kernel64:MProcess.obj
 0001:00018fdc       ??$emplace_back@AEBUtagPROCESSENTRY32W@@@?$vector@UtagPROCESSENTRY32W@@V?$MArrayAllocator@UtagPROCESSENTRY32W@@@@@std@@QEAAXAEBUtagPROCESSENTRY32W@@@Z 0000000180019fdc f i common-kernel64:MProcess.obj
 0001:00019078       ??0?$MToolHelp@UtagPROCESSENTRY32W@@$1?Process32FirstW@@YAHPEAXPEAU1@@Z$1?Process32NextW@@YAH01@Z@@QEAA@KK@Z 000000018001a078 f i common-kernel64:MProcess.obj
 0001:00019100       ??_GMToolHelpProcess@@UEAAPEAXI@Z 000000018001a100 f i common-kernel64:MProcess.obj
 0001:00019100       ??_E?$MToolHelp@UtagPROCESSENTRY32W@@$1?Process32FirstW@@YAHPEAXPEAU1@@Z$1?Process32NextW@@YAH01@Z@@UEAAPEAXI@Z 000000018001a100 f i common-kernel64:MProcess.obj
 0001:00019100       ??_G?$MToolHelp@UtagPROCESSENTRY32W@@$1?Process32FirstW@@YAHPEAXPEAU1@@Z$1?Process32NextW@@YAH01@Z@@UEAAPEAXI@Z 000000018001a100 f i common-kernel64:MProcess.obj
 0001:00019100       ??_EMToolHelpProcess@@UEAAPEAXI@Z 000000018001a100 f i common-kernel64:MProcess.obj
 0001:00019168       ?Close@?$MToolHelp@UtagPROCESSENTRY32W@@$1?Process32FirstW@@YAHPEAXPEAU1@@Z$1?Process32NextW@@YAH01@Z@@QEAAXXZ 000000018001a168 f i common-kernel64:MProcess.obj
 0001:000191e8       __acrt_uninitialize_command_line 000000018001a1e8 f i libucrt:argv_data.obj
 0001:000191e8       ?Filter@?$MToolHelp@UtagPROCESSENTRY32W@@$1?Process32FirstW@@YAHPEAXPEAU1@@Z$1?Process32NextW@@YAH01@Z@@MEAA_NAEBUtagPROCESSENTRY32W@@@Z 000000018001a1e8 f i common-kernel64:MProcess.obj
 0001:000191ec       ?Find@?$MToolHelp@UtagPROCESSENTRY32W@@$1?Process32FirstW@@YAHPEAXPEAU1@@Z$1?Process32NextW@@YAH01@Z@@QEAA_NAEBV?$function@$$A6A_NAEBUtagPROCESSENTRY32W@@@Z@std@@AEAUtagPROCESSENTRY32W@@@Z 000000018001a1ec f i common-kernel64:MProcess.obj
 0001:00019300       ?Find@MToolHelpProcess@@QEAA_NKAEAUtagPROCESSENTRY32W@@@Z 000000018001a300 f i common-kernel64:MProcess.obj
 0001:0001936c       ?Next@?$MToolHelp@UtagPROCESSENTRY32W@@$1?Process32FirstW@@YAHPEAXPEAU1@@Z$1?Process32NextW@@YAH01@Z@@QEAA_NAEAUtagPROCESSENTRY32W@@@Z 000000018001a36c f i common-kernel64:MProcess.obj
 0001:00019454       ?_Move@?$_Func_impl_no_alloc@V<lambda_217d18733db987cb8fc0adfd68028951>@@_NAEBUtagPROCESSENTRY32W@@@std@@EEAAPEAV?$_Func_base@_NAEBUtagPROCESSENTRY32W@@@2@PEAX@Z 000000018001a454 f i common-kernel64:MProcess.obj
 0001:00019454       ?_Copy@?$_Func_impl_no_alloc@V<lambda_217d18733db987cb8fc0adfd68028951>@@_NAEBUtagPROCESSENTRY32W@@@std@@EEBAPEAV?$_Func_base@_NAEBUtagPROCESSENTRY32W@@@2@PEAX@Z 000000018001a454 f i common-kernel64:MProcess.obj
 0001:00019468       ?_Do_call@?$_Func_impl_no_alloc@V<lambda_217d18733db987cb8fc0adfd68028951>@@_NAEBUtagPROCESSENTRY32W@@@std@@EEAA_NAEBUtagPROCESSENTRY32W@@@Z 000000018001a468 f i common-kernel64:MProcess.obj
 0001:00019474       ?_Target_type@?$_Func_impl_no_alloc@V<lambda_217d18733db987cb8fc0adfd68028951>@@_NAEBUtagPROCESSENTRY32W@@@std@@EEBAAEBVtype_info@@XZ 000000018001a474 f i common-kernel64:MProcess.obj
 0001:0001947c       ?getNext@?$MToolHelp@UtagPROCESSENTRY32W@@$1?Process32FirstW@@YAHPEAXPEAU1@@Z$1?Process32NextW@@YAH01@Z@@IEAA_NXZ 000000018001a47c f i common-kernel64:MProcess.obj
 0001:0001953c       ?isTerminalMode@@YA_NXZ    000000018001a53c f   common-kernel64:MProcess.obj
 0001:00019678       ??0MSection@@QEAA@XZ       000000018001a678 f   common-kernel64:MSection.obj
 0001:00019700       ??0MSectionLock@@QEAA@XZ   000000018001a700 f   common-kernel64:MSection.obj
 0001:00019710       ??0MSectionThread@@QEAA@PEAVMSection@@@Z 000000018001a710 f   common-kernel64:MSection.obj
 0001:00019730       ??1MSection@@QEAA@XZ       000000018001a730 f   common-kernel64:MSection.obj
 0001:00019798       ??1MSectionLock@@QEAA@XZ   000000018001a798 f   common-kernel64:MSection.obj
 0001:000197bc       ??1MSectionThread@@QEAA@XZ 000000018001a7bc f   common-kernel64:MSection.obj
 0001:000197f8       ?AddRef@MSection@@IEAAXK@Z 000000018001a7f8 f   common-kernel64:MSection.obj
 0001:0001988c       ?Lock@MSection@@IEAAHHK@Z  000000018001a88c f   common-kernel64:MSection.obj
 0001:00019988       ?Lock@MSectionLock@@QEAAHPEAVMSection@@HK@Z 000000018001a988 f   common-kernel64:MSection.obj
 0001:000199dc       ?MyEnterCriticalSection@MSection@@IEAA_NK@Z 000000018001a9dc f   common-kernel64:MSection.obj
 0001:00019b08       ?ReleaseRef@MSection@@IEAAHK@Z 000000018001ab08 f   common-kernel64:MSection.obj
 0001:00019ba8       ?Unlock@MSection@@IEAAXH@Z 000000018001aba8 f   common-kernel64:MSection.obj
 0001:00019c00       ?Unlock@MSectionLock@@QEAAXXZ 000000018001ac00 f   common-kernel64:MSection.obj
 0001:00019c2c       ?WaitUnlocked@MSection@@IEAAXKK@Z 000000018001ac2c f   common-kernel64:MSection.obj
 0001:00019cc0       ?CheckCallbackPtr@@YA_NPEAUHINSTANCE__@@_KPEAP6A_JXZHHH@Z 000000018001acc0 f   common-kernel64:WModuleCheck.obj
 0001:00019dc8       ?IsModuleValid@@YA_NPEAUHINSTANCE__@@H@Z 000000018001adc8 f   common-kernel64:WModuleCheck.obj
 0001:00019ed0       ??0MModule@@QEAA@PEAUHINSTANCE__@@@Z 000000018001aed0 f   common-kernel64:MModule.obj
 0001:00019ee0       ??1MModule@@QEAA@XZ        000000018001aee0 f   common-kernel64:MModule.obj
 0001:00019ee8       ?Free@MModule@@QEAAXXZ     000000018001aee8 f   common-kernel64:MModule.obj
 0001:00019f20       ??0MSectionSimple@@QEAA@_N@Z 000000018001af20 f   common-kernel64:MSectionSimple.obj
 0001:00019f58       ??1MSectionSimple@@QEAA@XZ 000000018001af58 f   common-kernel64:MSectionSimple.obj
 0001:00019f58       ?Close@MSectionSimple@@QEAAXXZ 000000018001af58 f   common-kernel64:MSectionSimple.obj
 0001:00019f78       ?Enter@MSectionSimple@@QEAAXXZ 000000018001af78 f   common-kernel64:MSectionSimple.obj
 0001:00019f80       ?Init@MSectionSimple@@QEAAXXZ 000000018001af80 f   common-kernel64:MSectionSimple.obj
 0001:00019fa0       ?Leave@MSectionSimple@@QEAAXXZ 000000018001afa0 f   common-kernel64:MSectionSimple.obj
 0001:00019fa8       ?RecreateAndLock@MSectionSimple@@QEAA_NXZ 000000018001afa8 f   common-kernel64:MSectionSimple.obj
 0001:0001a018       ?TryEnter@MSectionSimple@@QEAA_NXZ 000000018001b018 f   common-kernel64:MSectionSimple.obj
 0001:0001a040       ?SetConEmuEnvHWND@@YAXPEB_WPEAUHWND__@@@Z 000000018001b040 f   common-user64:SetEnvVar.obj
 0001:0001a098       ?SetConEmuEnvVar@@YAXPEAUHWND__@@@Z 000000018001b098 f   common-user64:SetEnvVar.obj
 0001:0001a11c       ?SetConEmuEnvVarChild@@YAXPEAUHWND__@@0@Z 000000018001b11c f   common-user64:SetEnvVar.obj
 0001:0001a148       ??$wcscpy_c@$0BAF@@@YAHAEAY0BAF@_WPEB_W@Z 000000018001b148 f i common-user64:ConEmuCheckEx.obj
 0001:0001a194       ?FindConEmuBaseDir@@YAHAEAY0BAF@_W0PEAUHINSTANCE__@@@Z 000000018001b194 f   common-user64:ConEmuCheckEx.obj
 0001:0001a8a8       ?IsConEmuExeExist@@YAHPEB_WAEAY0BAF@_W@Z 000000018001b8a8 f   common-user64:ConEmuCheckEx.obj
 0001:0001a954       ??$swprintf_c@$0FA@@@YAHAEAY0FA@_WPEB_WZZ 000000018001b954 f i common-user64:EmergencyShow.obj
 0001:0001a980       ?CorrectConsolePos@@YAXPEAUHWND__@@@Z 000000018001b980 f   common-user64:EmergencyShow.obj
 0001:0001aa9c       ?EmergencyShow@@YAXPEAUHWND__@@HH@Z 000000018001ba9c f   common-user64:EmergencyShow.obj
 0001:0001abdc       ?EvaluateDefaultFontWidth@@YAHHPEB_W@Z 000000018001bbdc f   common-user64:EmergencyShow.obj
 0001:0001ad00       ?SetUserFriendlyFont@@YAXPEAUHWND__@@HH@Z 000000018001bd00 f   common-user64:EmergencyShow.obj
 0001:0001b064       ??0MSetter@@QEAA@PEAJ@Z    000000018001c064 f   common-user64:MSetter.obj
 0001:0001b07c       ??1MSetter@@QEAA@XZ        000000018001c07c f   common-user64:MSetter.obj
 0001:0001b084       ?Unlock@MSetter@@QEAAXXZ   000000018001c084 f   common-user64:MSetter.obj
 0001:0001b0e4       ?IsDotsName@@YA_NPEB_W@Z   000000018001c0e4 f   common-user64:WFiles.obj
 0001:0001b108       ?SearchAppPaths@@YA_NPEB_WAEAUCEStr@@_NPEAVCEnvRestorer@@@Z 000000018001c108 f   common-user64:WFiles.obj
 0001:0001b508       ?GetConsoleSizeInfo@@YAXPEAUCONSOLE_INFO@@@Z 000000018001c508 f   common-user64:WConsoleEx.obj
 0001:0001b594       ?SetConsoleFontSizeTo@@YAXPEAUHWND__@@HHPEB_WGG@Z 000000018001c594 f   common-user64:WConsoleEx.obj
 0001:0001b97c       ?SetConsoleInfo@@YAHPEAUHWND__@@PEAUCONSOLE_INFO@@@Z 000000018001c97c f   common-user64:WConsoleEx.obj
 0001:0001bb84       ?SetEnvVarExpanded@@YAXPEB_W0@Z 000000018001cb84 f   common-user64:WUser.obj
 0001:0001bc6c       ?UpdateComspec@@YAXPEAUConEmuComspec@@_N@Z 000000018001cc6c f   common-user64:WUser.obj
 0001:0001bf10       ?apiShowWindow@@YA_NPEAUHWND__@@H@Z 000000018001cf10 f   common-user64:WUser.obj
 0001:0001bf24       ?apiShowWindowAsync@@YA_NPEAUHWND__@@H@Z 000000018001cf24 f   common-user64:WUser.obj
 0001:0001bf38       ?FindMonitorsWorkspace@@YAHPEAUHMONITOR__@@PEAUHDC__@@PEAUtagRECT@@_J@Z 000000018001cf38 f   common-user64:Monitors.obj
 0001:0001bf74       ?GetAllMonitorsWorkspace@@YA?AUtagRECT@@XZ 000000018001cf74 f   common-user64:Monitors.obj
 0001:0001bfd4       ??0bad_function_call@std@@QEAA@AEBV01@@Z 000000018001cfd4 f i libcpmt:xthrow.obj
 0001:0001c010       ??0bad_function_call@std@@QEAA@XZ 000000018001d010 f i libcpmt:xthrow.obj
 0001:0001c028       ??0length_error@std@@QEAA@AEBV01@@Z 000000018001d028 f i libcpmt:xthrow.obj
 0001:0001c064       ??0length_error@std@@QEAA@PEBD@Z 000000018001d064 f i libcpmt:xthrow.obj
 0001:0001c0ac       ??0logic_error@std@@QEAA@AEBV01@@Z 000000018001d0ac f i libcpmt:xthrow.obj
 0001:0001c0e8       ?_Xbad_function_call@std@@YAXXZ 000000018001d0e8 f   libcpmt:xthrow.obj
 0001:0001c108       ?_Xlength_error@std@@YAXPEBD@Z 000000018001d108 f   libcpmt:xthrow.obj
 0001:0001c12c       ?what@bad_function_call@std@@UEBAPEBDXZ 000000018001d12c f i libcpmt:xthrow.obj
 0001:0001c134       __GSHandlerCheck           000000018001d134 f   LIBCMT:gshandler.obj
 0001:0001c154       __GSHandlerCheckCommon     000000018001d154 f   LIBCMT:gshandler.obj
 0001:0001c1c0       __security_check_cookie    000000018001d1c0 f   LIBCMT:amdsecgs.obj
 0001:0001c1e4       ??3@YAXPEAX_K@Z            000000018001d1e4 f   LIBCMT:delete_scalar_size.obj
 0001:0001c200       _alloca_probe              000000018001d200 f   LIBCMT:chkstk.obj
 0001:0001c200       __chkstk                   000000018001d200 f   LIBCMT:chkstk.obj
 0001:0001c254       ??_Gtype_info@@UEAAPEAXI@Z 000000018001d254 f i LIBCMT:std_type_info_static.obj
 0001:0001c254       ??_Etype_info@@UEAAPEAXI@Z 000000018001d254 f i LIBCMT:std_type_info_static.obj
 0001:0001c280       __GSHandlerCheck_EH4       000000018001d280 f   LIBCMT:gshandlereh4.obj
 0001:0001c3f8       _Init_thread_footer        000000018001d3f8 f   LIBCMT:thread_safe_statics.obj
 0001:0001c458       _Init_thread_header        000000018001d458 f   LIBCMT:thread_safe_statics.obj
 0001:0001c4c0       _Init_thread_notify        000000018001d4c0 f   LIBCMT:thread_safe_statics.obj
 0001:0001c504       _Init_thread_wait          000000018001d504 f   LIBCMT:thread_safe_statics.obj
 0001:0001c888       _DllMainCRTStartup         000000018001d888 f   LIBCMT:dll_dllmain.obj
 0001:0001c8c8       __scrt_acquire_startup_lock 000000018001d8c8 f   LIBCMT:utility.obj
 0001:0001c904       __scrt_dllmain_after_initialize_c 000000018001d904 f   LIBCMT:utility.obj
 0001:0001c938       __scrt_dllmain_before_initialize_c 000000018001d938 f   LIBCMT:utility.obj
 0001:0001c950       __scrt_dllmain_crt_thread_attach 000000018001d950 f   LIBCMT:utility.obj
 0001:0001c978       __scrt_dllmain_crt_thread_detach 000000018001d978 f   LIBCMT:utility.obj
 0001:0001c990       __scrt_dllmain_exception_filter 000000018001d990 f   LIBCMT:utility.obj
 0001:0001c9f0       __scrt_dllmain_uninitialize_c 000000018001d9f0 f   LIBCMT:utility.obj
 0001:0001ca20       __scrt_dllmain_uninitialize_critical 000000018001da20 f   LIBCMT:utility.obj
 0001:0001ca34       __scrt_initialize_crt      000000018001da34 f   LIBCMT:utility.obj
 0001:0001ca80       __scrt_initialize_onexit_tables 000000018001da80 f   LIBCMT:utility.obj
 0001:0001cb0c       __scrt_is_nonwritable_in_current_image 000000018001db0c f   LIBCMT:utility.obj
 0001:0001cba4       __scrt_release_startup_lock 000000018001dba4 f   LIBCMT:utility.obj
 0001:0001cbc8       __scrt_uninitialize_crt    000000018001dbc8 f   LIBCMT:utility.obj
 0001:0001cbf4       _onexit                    000000018001dbf4 f   LIBCMT:utility.obj
 0001:0001cc30       atexit                     000000018001dc30 f   LIBCMT:utility.obj
 0001:0001cc48       __raise_securityfailure    000000018001dc48 f   LIBCMT:gs_report.obj
 0001:0001cc7c       __report_gsfailure         000000018001dc7c f   LIBCMT:gs_report.obj
 0001:0001cd50       __report_rangecheckfailure 000000018001dd50 f   LIBCMT:gs_report.obj
 0001:0001cd64       __report_securityfailure   000000018001dd64 f   LIBCMT:gs_report.obj
 0001:0001cee4       __crt_debugger_hook        000000018001dee4 f   LIBCMT:utility_desktop.obj
 0001:0001ceec       __scrt_fastfail            000000018001deec f   LIBCMT:utility_desktop.obj
 0001:0001d038       __security_init_cookie     000000018001e038 f   LIBCMT:gs_support.obj
 0001:0001d0e4       ?__scrt_initialize_type_info@@YAXXZ 000000018001e0e4 f   LIBCMT:tncleanup.obj
 0001:0001d0f4       ?__scrt_uninitialize_type_info@@YAXXZ 000000018001e0f4 f   LIBCMT:tncleanup.obj
 0001:0001d100       __local_stdio_scanf_options 000000018001e100 f i LIBCMT:default_local_stdio_options.obj
 0001:0001d108       __scrt_initialize_default_local_stdio_options 000000018001e108 f   LIBCMT:default_local_stdio_options.obj
 0001:0001d124       __scrt_get_dyn_tls_init_callback 000000018001e124 f   LIBCMT:dyn_tls_init.obj
 0001:0001d12c       _RTC_Initialize            000000018001e12c f   LIBCMT:initsect.obj
 0001:0001d168       _RTC_Terminate             000000018001e168 f   LIBCMT:initsect.obj
 0001:0001d1a4       __isa_available_init       000000018001e1a4 f   LIBCMT:cpu_disp.obj
 0001:0001d348       __scrt_is_ucrt_dll_in_use  000000018001e348 f   LIBCMT:ucrt_detection.obj
 0001:0001d360       ??$_CallSETranslator@V__FrameHandler4@@@@YAHPEAUEHExceptionRecord@@PEA_KPEAU_CONTEXT@@PEAU_xDISPATCHER_CONTEXT@@PEAUFuncInfo4@FH4@@K1H@Z 000000018001e360 f i libvcruntime:risctrnsctrl.obj
 0001:0001d3b4       ?DecompFuncInfo@FH4@@YA_JPEAEAEAUFuncInfo4@1@_KH_N@Z 000000018001e3b4 f i libvcruntime:risctrnsctrl.obj
 0001:0001d4d8       ?ExecutionInCatch@__FrameHandler4@@SA_NPEAU_xDISPATCHER_CONTEXT@@PEAUFuncInfo4@FH4@@@Z 000000018001e4d8 f   libvcruntime:risctrnsctrl.obj
 0001:0001d4e0       ?FrameUnwindToEmptyState@__FrameHandler4@@SAXPEA_KPEAU_xDISPATCHER_CONTEXT@@PEAUFuncInfo4@FH4@@@Z 000000018001e4e0 f   libvcruntime:risctrnsctrl.obj
 0001:0001d514       ?GetEstablisherFrame@__FrameHandler4@@SAPEA_KPEA_KPEAU_xDISPATCHER_CONTEXT@@PEAUFuncInfo4@FH4@@0@Z 000000018001e514 f   libvcruntime:risctrnsctrl.obj
 0001:0001d538       ?GetRangeOfTrysToCheck@__FrameHandler4@@SA?AU?$pair@Viterator@TryBlockMap4@FH4@@V123@@std@@AEAVTryBlockMap4@FH4@@HPEAU_xDISPATCHER_CONTEXT@@PEAUFuncInfo4@5@H@Z 000000018001e538 f   libvcruntime:risctrnsctrl.obj
 0001:0001d6a0       ?UnwindNestedFrames@__FrameHandler4@@SAXPEA_KPEAUEHExceptionRecord@@PEAU_CONTEXT@@0PEAXPEAUFuncInfo4@FH4@@HHPEAUHandlerType4@5@PEAU_xDISPATCHER_CONTEXT@@E@Z 000000018001e6a0 f   libvcruntime:risctrnsctrl.obj
 0001:0001d7c0       ?setBuffer@TryBlockMap4@FH4@@QEAAXViterator@12@@Z 000000018001e7c0 f i libvcruntime:risctrnsctrl.obj
 0001:0001d980       _CreateFrameInfo           000000018001e980 f   libvcruntime:risctrnsctrl.obj
 0001:0001d9bc       _FindAndUnlinkFrame        000000018001e9bc f   libvcruntime:risctrnsctrl.obj
 0001:0001da10       _GetImageBase              000000018001ea10 f   libvcruntime:risctrnsctrl.obj
 0001:0001da24       _GetThrowImageBase         000000018001ea24 f   libvcruntime:risctrnsctrl.obj
 0001:0001da38       _SetImageBase              000000018001ea38 f   libvcruntime:risctrnsctrl.obj
 0001:0001da50       _SetThrowImageBase         000000018001ea50 f   libvcruntime:risctrnsctrl.obj
 0001:0001da68       __CxxFrameHandler4         000000018001ea68 f   libvcruntime:risctrnsctrl.obj
 0001:0001db40       memcpy_repmovs             000000018001eb40 f   libvcruntime:memcpy.obj
 0001:0001db60       memcpy                     000000018001eb60 f   libvcruntime:memcpy.obj
 0001:0001db60       memmove                    000000018001eb60 f   libvcruntime:memcpy.obj
 0001:0001df38       wcschr                     000000018001ef38 f   libvcruntime:wcschr.obj
 0001:0001dfb4       wcsstr                     000000018001efb4 f   libvcruntime:wcsstr.obj
 0001:0001e1e0       memset_repmovs             000000018001f1e0 f   libvcruntime:memset.obj
 0001:0001e200       memset                     000000018001f200 f   libvcruntime:memset.obj
 0001:0001e3a0       __DestructExceptionObject  000000018001f3a0 f   libvcruntime:ehhelpers.obj
 0001:0001e410       ?_CallMemberFunction0@@YAXQEAX0@Z 000000018001f410 f i libvcruntime:ehhelpers.obj
 0001:0001e414       _IsExceptionObjectToBeDestroyed 000000018001f414 f   libvcruntime:ehhelpers.obj
 0001:0001e444       __AdjustPointer            000000018001f444 f   libvcruntime:ehhelpers.obj
 0001:0001e468       __FrameUnwindFilter        000000018001f468 f   libvcruntime:ehhelpers.obj
 0001:0001e4d0       __std_terminate            000000018001f4d0 f   libvcruntime:ehhelpers.obj
 0001:0001e4dc       __std_exception_copy       000000018001f4dc f   libvcruntime:std_exception.obj
 0001:0001e56c       __std_exception_destroy    000000018001f56c f   libvcruntime:std_exception.obj
 0001:0001e594       _CxxThrowException         000000018001f594 f   libvcruntime:throw.obj
 0001:0001e634       _get_purecall_handler      000000018001f634 f   libvcruntime:purevirt.obj
 0001:0001e63c       _purecall                  000000018001f63c f   libvcruntime:purevirt.obj
 0001:0001e658       wcsrchr                    000000018001f658 f   libvcruntime:wcsrchr.obj
 0001:0001e720       memcmp                     000000018001f720 f   libvcruntime:memcmp.obj
 0001:0001e7e8       __C_specific_handler       000000018001f7e8 f   libvcruntime:riscchandler.obj
 0001:0001e9fc       strrchr                    000000018001f9fc f   libvcruntime:strrchr.obj
 0001:0001eb2c       strchr                     000000018001fb2c f   libvcruntime:strchr.obj
 0001:0001ebac       __vcrt_initialize          000000018001fbac f   libvcruntime:initialization.obj
 0001:0001ebd4       __vcrt_thread_attach       000000018001fbd4 f   libvcruntime:initialization.obj
 0001:0001ebe8       __vcrt_thread_detach       000000018001fbe8 f   libvcruntime:initialization.obj
 0001:0001ebfc       __vcrt_uninitialize        000000018001fbfc f   libvcruntime:initialization.obj
 0001:0001ec18       __vcrt_uninitialize_critical 000000018001fc18 f   libvcruntime:initialization.obj
 0001:0001ec28       __std_type_info_compare    000000018001fc28 f   libvcruntime:std_type_info.obj
 0001:0001ec50       __std_type_info_destroy_list 000000018001fc50 f   libvcruntime:std_type_info.obj
 0001:0001ec7c       __vcrt_freefls             000000018001fc7c f   libvcruntime:per_thread_data.obj
 0001:0001ec9c       __vcrt_freeptd             000000018001fc9c f   libvcruntime:per_thread_data.obj
 0001:0001ecec       __vcrt_getptd              000000018001fcec f   libvcruntime:per_thread_data.obj
 0001:0001ed08       __vcrt_getptd_noexit       000000018001fd08 f   libvcruntime:per_thread_data.obj
 0001:0001edc8       __vcrt_initialize_ptd      000000018001fdc8 f   libvcruntime:per_thread_data.obj
 0001:0001ee10       __vcrt_uninitialize_ptd    000000018001fe10 f   libvcruntime:per_thread_data.obj
 0001:0001ee34       ?StateFromControlPc@__FrameHandler4@@SAHPEAUFuncInfo4@FH4@@PEAU_xDISPATCHER_CONTEXT@@@Z 000000018001fe34 f   libvcruntime:ehstate.obj
 0001:0001ee3c       ?StateFromIp@__FrameHandler4@@SAHPEAUFuncInfo4@FH4@@PEAU_xDISPATCHER_CONTEXT@@_K@Z 000000018001fe3c f   libvcruntime:ehstate.obj
 0001:0001fadc       ??$TypeMatchHelper@V__FrameHandler3@@@@YAHPEBU_s_HandlerType@@PEBU_s_CatchableType@@PEBU_s_ThrowInfo@@@Z 0000000180020adc f i libvcruntime:frame.obj
 0001:0001fc1c       ??$TypeMatchHelper@V__FrameHandler4@@@@YAHPEAUHandlerType4@FH4@@PEBU_s_CatchableType@@PEBU_s_ThrowInfo@@@Z 0000000180020c1c f i libvcruntime:frame.obj
 0001:0001fd60       ??$__InternalCxxFrameHandler@V__FrameHandler4@@@@YA?AW4_EXCEPTION_DISPOSITION@@PEAUEHExceptionRecord@@PEA_KPEAU_CONTEXT@@PEAU_xDISPATCHER_CONTEXT@@PEAUFuncInfo4@FH4@@H1E@Z 0000000180020d60 f i libvcruntime:frame.obj
 0001:00020000       ??0HandlerMap4@FH4@@QEAA@PEBUTryBlockMapEntry4@1@_KH@Z 0000000180021000 f i libvcruntime:frame.obj
 0001:0002007c       ??0TryBlockMap4@FH4@@QEAA@PEBUFuncInfo4@1@_K@Z 000000018002107c f i libvcruntime:frame.obj
 0001:00020154       ??0bad_exception@std@@QEAA@AEBV01@@Z 0000000180021154 f i libvcruntime:frame.obj
 0001:00020190       ??0bad_exception@std@@QEAA@XZ 0000000180021190 f i libvcruntime:frame.obj
 0001:000201b0       ?CxxCallCatchBlock@__FrameHandler4@@SAPEAXPEAU_EXCEPTION_RECORD@@@Z 00000001800211b0 f   libvcruntime:frame.obj
 0001:0002040c       ?DecompHandler@HandlerMap4@FH4@@AEAAXXZ 000000018002140c f i libvcruntime:frame.obj
 0001:0002064c       ?FrameUnwindToState@__FrameHandler4@@SAXPEA_KPEAU_xDISPATCHER_CONTEXT@@PEAUFuncInfo4@FH4@@H@Z 000000018002164c f   libvcruntime:frame.obj
 0001:00020aac       ?ReadEntry@UWMap4@FH4@@AEAAXPEAPEAE@Z 0000000180021aac f i libvcruntime:frame.obj
 0001:00020b4c       ?_CallMemberFunction1@@YAXQEAX00@Z 0000000180021b4c f i libvcruntime:frame.obj
 0001:00020b58       ?_CallMemberFunction2@@YAXQEAX00H@Z 0000000180021b58 f i libvcruntime:frame.obj
 0001:00020b68       ?getStartStop@UWMap4@FH4@@QEAAXHHAEAViterator@12@0@Z 0000000180021b68 f i libvcruntime:frame.obj
 0001:00020c38       ?getStateFromIterators@UWMap4@FH4@@SAHAEBViterator@12@H0H0@Z 0000000180021c38 f i libvcruntime:frame.obj
 0001:00020d10       _NLG_Notify                0000000180021d10 f   libvcruntime:notify.obj
 0001:00020d30       __NLG_Dispatch2            0000000180021d30 f   libvcruntime:notify.obj
 0001:00020d40       __NLG_Return2              0000000180021d40 f   libvcruntime:notify.obj
 0001:00020d44       __except_validate_context_record 0000000180021d44 f   libvcruntime:jbcxrval.obj
 0001:00020d7c       __vcrt_initialize_locks    0000000180021d7c f   libvcruntime:locks.obj
 0001:00020db0       __vcrt_uninitialize_locks  0000000180021db0 f   libvcruntime:locks.obj
 0001:00020f34       __vcrt_FlsAlloc            0000000180021f34 f   libvcruntime:winapi_downlevel.obj
 0001:00020f7c       __vcrt_FlsFree             0000000180021f7c f   libvcruntime:winapi_downlevel.obj
 0001:00020fc4       __vcrt_FlsGetValue         0000000180021fc4 f   libvcruntime:winapi_downlevel.obj
 0001:0002100c       __vcrt_FlsSetValue         000000018002200c f   libvcruntime:winapi_downlevel.obj
 0001:00021060       __vcrt_InitializeCriticalSectionEx 0000000180022060 f   libvcruntime:winapi_downlevel.obj
 0001:000210e0       _CallSettingFrame          00000001800220e0 f   libvcruntime:handlers.obj
 0001:00021130       _CallSettingFrame_LookupContinuationIndex 0000000180022130 f   libvcruntime:handlers.obj
 0001:00021160       _CallSettingFrame_NotifyContinuationAddr 0000000180022160 f   libvcruntime:handlers.obj
 0001:00021190       _CallSettingFrameEncoded   0000000180022190 f   libvcruntime:handlers.obj
 0001:00021578       ??$ensure_buffer_is_big_enough@D@formatting_buffer@__crt_stdio_output@@QEAA_N_K@Z 0000000180022578 f i libucrt:output.obj
 0001:00021620       ??$ensure_buffer_is_big_enough@_W@formatting_buffer@__crt_stdio_output@@QEAA_N_K@Z 0000000180022620 f i libucrt:output.obj
 0001:000216cc       ??$is_wide_character_specifier@_W@__crt_stdio_output@@YA_N_K_WW4length_modifier@0@@Z 00000001800226cc f i libucrt:output.obj
 0001:0002170c       ??$type_case_integer_parse_into_buffer@I@?$output_processor@DV?$string_output_adapter@D@__crt_stdio_output@@V?$standard_base@DV?$string_output_adapter@D@__crt_stdio_output@@@2@@__crt_stdio_output@@AEAAXII_N@Z 000000018002270c f i libucrt:output.obj
 0001:00021794       ??$type_case_integer_parse_into_buffer@I@?$output_processor@_WV?$string_output_adapter@_W@__crt_stdio_output@@V?$standard_base@_WV?$string_output_adapter@_W@__crt_stdio_output@@@2@@__crt_stdio_output@@AEAAXII_N@Z 0000000180022794 f i libucrt:output.obj
 0001:00021838       ??$type_case_integer_parse_into_buffer@_K@?$output_processor@DV?$string_output_adapter@D@__crt_stdio_output@@V?$standard_base@DV?$string_output_adapter@D@__crt_stdio_output@@@2@@__crt_stdio_output@@AEAAX_KI_N@Z 0000000180022838 f i libucrt:output.obj
 0001:000218c8       ??$type_case_integer_parse_into_buffer@_K@?$output_processor@_WV?$string_output_adapter@_W@__crt_stdio_output@@V?$standard_base@_WV?$string_output_adapter@_W@__crt_stdio_output@@@2@@__crt_stdio_output@@AEAAX_KI_N@Z 00000001800228c8 f i libucrt:output.obj
 0001:0002196c       ??$write_multiple_characters@V?$string_output_adapter@D@__crt_stdio_output@@D@__crt_stdio_output@@YAXAEBV?$string_output_adapter@D@0@DHQEAH@Z 000000018002296c f i libucrt:output.obj
 0001:000219e4       ??$write_multiple_characters@V?$string_output_adapter@_W@__crt_stdio_output@@D@__crt_stdio_output@@YAXAEBV?$string_output_adapter@_W@0@DHQEAH@Z 00000001800229e4 f i libucrt:output.obj
 0001:00021a5c       ??0_LocaleUpdate@@QEAA@QEAU__crt_locale_pointers@@@Z 0000000180022a5c f i libucrt:output.obj
 0001:00021b00       ?crop_zeroes@__crt_stdio_output@@YAXPEADQEAU__crt_locale_pointers@@@Z 0000000180022b00 f i libucrt:output.obj
 0001:00021ba0       ?force_decimal_point@__crt_stdio_output@@YAXPEADQEAU__crt_locale_pointers@@@Z 0000000180022ba0 f i libucrt:output.obj
 0001:00021c18       ?parse_int_from_format_string@?$output_processor@DV?$string_output_adapter@D@__crt_stdio_output@@V?$standard_base@DV?$string_output_adapter@D@__crt_stdio_output@@@2@@__crt_stdio_output@@AEAA_NQEAH@Z 0000000180022c18 f i libucrt:output.obj
 0001:00021cbc       ?parse_int_from_format_string@?$output_processor@_WV?$string_output_adapter@_W@__crt_stdio_output@@V?$standard_base@_WV?$string_output_adapter@_W@__crt_stdio_output@@@2@@__crt_stdio_output@@AEAA_NQEAH@Z 0000000180022cbc f i libucrt:output.obj
 0001:00021d60       ?process@?$output_processor@DV?$string_output_adapter@D@__crt_stdio_output@@V?$standard_base@DV?$string_output_adapter@D@__crt_stdio_output@@@2@@__crt_stdio_output@@QEAAHXZ 0000000180022d60 f i libucrt:output.obj
 0001:00021f68       ?process@?$output_processor@_WV?$string_output_adapter@_W@__crt_stdio_output@@V?$standard_base@_WV?$string_output_adapter@_W@__crt_stdio_output@@@2@@__crt_stdio_output@@QEAAHXZ 0000000180022f68 f i libucrt:output.obj
 0001:000221d4       ?state_case_normal@?$output_processor@DV?$string_output_adapter@D@__crt_stdio_output@@V?$standard_base@DV?$string_output_adapter@D@__crt_stdio_output@@@2@@__crt_stdio_output@@AEAA_NXZ 00000001800231d4 f i libucrt:output.obj
 0001:00022248       ?state_case_normal_tchar@?$output_processor@DV?$string_output_adapter@D@__crt_stdio_output@@V?$standard_base@DV?$string_output_adapter@D@__crt_stdio_output@@@2@@__crt_stdio_output@@AEAA_ND@Z 0000000180023248 f i libucrt:output.obj
 0001:000222f0       ?state_case_size@?$output_processor@DV?$string_output_adapter@D@__crt_stdio_output@@V?$standard_base@DV?$string_output_adapter@D@__crt_stdio_output@@@2@@__crt_stdio_output@@AEAA_NXZ 00000001800232f0 f i libucrt:output.obj
 0001:00022460       ?state_case_size@?$output_processor@_WV?$string_output_adapter@_W@__crt_stdio_output@@V?$standard_base@_WV?$string_output_adapter@_W@__crt_stdio_output@@@2@@__crt_stdio_output@@AEAA_NXZ 0000000180023460 f i libucrt:output.obj
 0001:000225f4       ?state_case_type@?$output_processor@DV?$string_output_adapter@D@__crt_stdio_output@@V?$standard_base@DV?$string_output_adapter@D@__crt_stdio_output@@@2@@__crt_stdio_output@@AEAA_NXZ 00000001800235f4 f i libucrt:output.obj
 0001:0002285c       ?state_case_type@?$output_processor@_WV?$string_output_adapter@_W@__crt_stdio_output@@V?$standard_base@_WV?$string_output_adapter@_W@__crt_stdio_output@@@2@@__crt_stdio_output@@AEAA_NXZ 000000018002385c f i libucrt:output.obj
 0001:00022b30       ?to_integer_size@__crt_stdio_output@@YA_KW4length_modifier@1@@Z 0000000180023b30 f i libucrt:output.obj
 0001:00022b98       ?type_case_Z@?$output_processor@DV?$string_output_adapter@D@__crt_stdio_output@@V?$standard_base@DV?$string_output_adapter@D@__crt_stdio_output@@@2@@__crt_stdio_output@@AEAA_NXZ 0000000180023b98 f i libucrt:output.obj
 0001:00022c0c       ?type_case_Z@?$output_processor@_WV?$string_output_adapter@_W@__crt_stdio_output@@V?$standard_base@_WV?$string_output_adapter@_W@__crt_stdio_output@@@2@@__crt_stdio_output@@AEAA_NXZ 0000000180023c0c f i libucrt:output.obj
 0001:00022c88       ?type_case_a@?$output_processor@DV?$string_output_adapter@D@__crt_stdio_output@@V?$standard_base@DV?$string_output_adapter@D@__crt_stdio_output@@@2@@__crt_stdio_output@@AEAA_NXZ 0000000180023c88 f i libucrt:output.obj
 0001:00022e44       ?type_case_a@?$output_processor@_WV?$string_output_adapter@_W@__crt_stdio_output@@V?$standard_base@_WV?$string_output_adapter@_W@__crt_stdio_output@@@2@@__crt_stdio_output@@AEAA_NXZ 0000000180023e44 f i libucrt:output.obj
 0001:00023024       ?type_case_c_tchar@?$output_processor@DV?$string_output_adapter@D@__crt_stdio_output@@V?$standard_base@DV?$string_output_adapter@D@__crt_stdio_output@@@2@@__crt_stdio_output@@AEAA_ND@Z 0000000180024024 f i libucrt:output.obj
 0001:000230ec       ?type_case_c_tchar@?$output_processor@_WV?$string_output_adapter@_W@__crt_stdio_output@@V?$standard_base@_WV?$string_output_adapter@_W@__crt_stdio_output@@@2@@__crt_stdio_output@@AEAA_N_W@Z 00000001800240ec f i libucrt:output.obj
 0001:00023194       ?type_case_integer@?$output_processor@DV?$string_output_adapter@D@__crt_stdio_output@@V?$standard_base@DV?$string_output_adapter@D@__crt_stdio_output@@@2@@__crt_stdio_output@@AEAA_NI_N@Z 0000000180024194 f i libucrt:output.obj
 0001:00023314       ?type_case_integer@?$output_processor@_WV?$string_output_adapter@_W@__crt_stdio_output@@V?$standard_base@_WV?$string_output_adapter@_W@__crt_stdio_output@@@2@@__crt_stdio_output@@AEAA_NI_N@Z 0000000180024314 f i libucrt:output.obj
 0001:0002349c       ?type_case_n@?$output_processor@_WV?$string_output_adapter@_W@__crt_stdio_output@@V?$standard_base@_WV?$string_output_adapter@_W@__crt_stdio_output@@@2@@__crt_stdio_output@@AEAA_NXZ 000000018002449c f i libucrt:output.obj
 0001:0002349c       ?type_case_n@?$output_processor@DV?$string_output_adapter@D@__crt_stdio_output@@V?$standard_base@DV?$string_output_adapter@D@__crt_stdio_output@@@2@@__crt_stdio_output@@AEAA_NXZ 000000018002449c f i libucrt:output.obj
 0001:00023524       ?type_case_s@?$output_processor@DV?$string_output_adapter@D@__crt_stdio_output@@V?$standard_base@DV?$string_output_adapter@D@__crt_stdio_output@@@2@@__crt_stdio_output@@AEAA_NXZ 0000000180024524 f i libucrt:output.obj
 0001:000235bc       ?type_case_s@?$output_processor@_WV?$string_output_adapter@_W@__crt_stdio_output@@V?$standard_base@_WV?$string_output_adapter@_W@__crt_stdio_output@@@2@@__crt_stdio_output@@AEAA_NXZ 00000001800245bc f i libucrt:output.obj
 0001:00023684       ?write_stored_string_tchar@?$output_processor@DV?$string_output_adapter@D@__crt_stdio_output@@V?$standard_base@DV?$string_output_adapter@D@__crt_stdio_output@@@2@@__crt_stdio_output@@AEAA_ND@Z 0000000180024684 f i libucrt:output.obj
 0001:00023760       ?write_stored_string_tchar@?$output_processor@_WV?$string_output_adapter@_W@__crt_stdio_output@@V?$standard_base@_WV?$string_output_adapter@_W@__crt_stdio_output@@@2@@__crt_stdio_output@@AEAA_N_W@Z 0000000180024760 f i libucrt:output.obj
 0001:00023848       ?write_string@?$string_output_adapter@D@__crt_stdio_output@@QEBAXQEBDHQEAHAEAV__crt_deferred_errno_cache@@@Z 0000000180024848 f i libucrt:output.obj
 0001:000238ec       ?write_string@?$string_output_adapter@_W@__crt_stdio_output@@QEBAXQEB_WHQEAHAEAV__crt_deferred_errno_cache@@@Z 00000001800248ec f i libucrt:output.obj
 0001:00023994       __stdio_common_vsprintf    0000000180024994 f   libucrt:output.obj
 0001:0002399c       __stdio_common_vswprintf   000000018002499c f   libucrt:output.obj
 0001:000239a4       ??$parse_integer@KV?$c_string_character_source@D@__crt_strtox@@@__crt_strtox@@YAKQEAU__crt_locale_pointers@@V?$c_string_character_source@D@0@H_N@Z 00000001800249a4 f i libucrt:strtox.obj
 0001:00023ca8       ??$parse_integer@KV?$c_string_character_source@_W@__crt_strtox@@@__crt_strtox@@YAKQEAU__crt_locale_pointers@@V?$c_string_character_source@_W@0@H_N@Z 0000000180024ca8 f i libucrt:strtox.obj
 0001:00024350       _ischartype_l              0000000180025350 f i libucrt:strtox.obj
 0001:000243c8       strtol                     00000001800253c8 f   libucrt:strtox.obj
 0001:000243f4       wcstol                     00000001800253f4 f   libucrt:strtox.obj
 0001:00024420       wcsncmp                    0000000180025420 f   libucrt:wcsncmp.obj
 0001:0002444c       __acrt_call_reportfault    000000018002544c f   libucrt:invalid_parameter.obj
 0001:000245a8       __acrt_initialize_invalid_parameter_handler 00000001800255a8 f   libucrt:invalid_parameter.obj
 0001:000245b0       _invalid_parameter         00000001800255b0 f   libucrt:invalid_parameter.obj
 0001:00024660       _invalid_parameter_noinfo  0000000180025660 f   libucrt:invalid_parameter.obj
 0001:00024680       _invoke_watson             0000000180025680 f   libucrt:invalid_parameter.obj
 0001:000246c8       __acrt_errno_from_os_error 00000001800256c8 f   libucrt:errno.obj
 0001:00024710       __acrt_errno_map_os_error  0000000180025710 f   libucrt:errno.obj
 0001:00024760       __doserrno                 0000000180025760 f   libucrt:errno.obj
 0001:00024780       _errno                     0000000180025780 f   libucrt:errno.obj
 0001:000247a0       _initterm                  00000001800257a0 f   libucrt:initterm.obj
 0001:00024804       _initterm_e                0000000180025804 f   libucrt:initterm.obj
 0001:00024844       _seh_filter_dll            0000000180025844 f   libucrt:exception_filter.obj
 0001:00024858       _seh_filter_exe            0000000180025858 f   libucrt:exception_filter.obj
 0001:00024c48       __acrt_initialize_thread_local_exit_callback 0000000180025c48 f   libucrt:exit.obj
 0001:00024c50       _cexit                     0000000180025c50 f   libucrt:exit.obj
 0001:00024c60       _exit                      0000000180025c60 f   libucrt:exit.obj
 0001:00024c6c       _is_c_termination_complete 0000000180025c6c f   libucrt:exit.obj
 0001:00024e34       __acrt_allocate_buffer_for_argv 0000000180025e34 f   libucrt:argv_parsing.obj
 0001:00024e94       _configure_narrow_argv     0000000180025e94 f   libucrt:argv_parsing.obj
 0001:0002520c       __dcrt_uninitialize_environments_nolock 000000018002620c f   libucrt:environment_initialization.obj
 0001:00025244       _initialize_narrow_environment 0000000180026244 f   libucrt:environment_initialization.obj
 0001:0002558c       _crt_atexit                000000018002658c f   libucrt:onexit.obj
 0001:0002559c       _execute_onexit_table      000000018002659c f   libucrt:onexit.obj
 0001:000255d8       _initialize_onexit_table   00000001800265d8 f   libucrt:onexit.obj
 0001:00025600       _register_onexit_function  0000000180026600 f   libucrt:onexit.obj
 0001:00025774       __acrt_initialize          0000000180026774 f   libucrt:initialization.obj
 0001:00025788       __acrt_thread_attach       0000000180026788 f   libucrt:initialization.obj
 0001:0002579c       __acrt_thread_detach       000000018002679c f   libucrt:initialization.obj
 0001:000257ac       __acrt_uninitialize        00000001800267ac f   libucrt:initialization.obj
 0001:000257e4       __acrt_uninitialize_critical 00000001800267e4 f   libucrt:initialization.obj
 0001:000257f4       terminate                  00000001800267f4 f   libucrt:terminate.obj
 0001:00025814       abort                      0000000180026814 f   libucrt:abort.obj
 0001:0002586c       free                       000000018002686c f   libucrt:free.obj
 0001:00025880       malloc                     0000000180026880 f   libucrt:malloc.obj
 0001:00025888       strcpy_s                   0000000180026888 f   libucrt:strcpy_s.obj
 0001:000258e8       calloc                     00000001800268e8 f   libucrt:calloc.obj
 0001:00025900       strncmp                    0000000180026900 f   libucrt:strncmp.obj
 0001:00025980       _free_base                 0000000180026980 f   libucrt:free_base.obj
 0001:000259c0       _malloc_base               00000001800269c0 f   libucrt:malloc_base.obj
 0001:00025a20       _mbtowc_l                  0000000180026a20 f   libucrt:mbtowc.obj
 0001:00025ba0       mbtowc                     0000000180026ba0 f   libucrt:mbtowc.obj
 0001:00025ba8       _wctomb_s_l                0000000180026ba8 f   libucrt:wctomb.obj
 0001:00025d44       strnlen                    0000000180026d44 f   libucrt:strnlen.obj
 0001:00025e94       wcsnlen                    0000000180026e94 f   libucrt:strnlen.obj
 0001:000263e4       __acrt_freeptd             00000001800273e4 f   libucrt:per_thread_data.obj
 0001:00026428       __acrt_getptd              0000000180027428 f   libucrt:per_thread_data.obj
 0001:000264fc       __acrt_getptd_head         00000001800274fc f   libucrt:per_thread_data.obj
 0001:000265a4       __acrt_getptd_noexit       00000001800275a4 f   libucrt:per_thread_data.obj
 0001:00026670       __acrt_initialize_ptd      0000000180027670 f   libucrt:per_thread_data.obj
 0001:000266ac       __acrt_uninitialize_ptd    00000001800276ac f   libucrt:per_thread_data.obj
 0001:000266d0       __acrt_update_locale_info  00000001800276d0 f   libucrt:locale_update.obj
 0001:00026704       __acrt_update_multibyte_info 0000000180027704 f   libucrt:locale_update.obj
 0001:0002713c       __acrt_fp_format           000000018002813c f   libucrt:cvt.obj
 0001:00027474       _fileno                    0000000180028474 f   libucrt:fileno.obj
 0001:0002749c       __acrt_initialize_stdio    000000018002849c f   libucrt:_file.obj
 0001:000275bc       __acrt_uninitialize_stdio  00000001800285bc f   libucrt:_file.obj
 0001:00027618       _lock_file                 0000000180028618 f   libucrt:_file.obj
 0001:00027624       _unlock_file               0000000180028624 f   libucrt:_file.obj
 0001:00027630       _get_printf_count_output   0000000180028630 f   libucrt:printf_count_output.obj
 0001:000276b8       __acrt_set_locale_changed  00000001800286b8 f   libucrt:wsetlocale.obj
 0001:000276c4       __acrt_uninitialize_locale 00000001800286c4 f   libucrt:wsetlocale.obj
 0001:000278f0       __acrt_initialize_lowio    00000001800288f0 f   libucrt:ioinit.obj
 0001:0002792c       __acrt_uninitialize_lowio  000000018002892c f   libucrt:ioinit.obj
 0001:0002796c       __pctype_func              000000018002896c f   libucrt:ctype.obj
 0001:0002799c       iswctype                   000000018002899c f   libucrt:iswctype.obj
 0001:00027a08       _isctype_l                 0000000180028a08 f   libucrt:isctype.obj
 0001:00027b10       __acrt_initialize_locks    0000000180028b10 f   libucrt:locks.obj
 0001:00027b58       __acrt_lock                0000000180028b58 f   libucrt:locks.obj
 0001:00027b74       __acrt_uninitialize_locks  0000000180028b74 f   libucrt:locks.obj
 0001:00027bac       __acrt_unlock              0000000180028bac f   libucrt:locks.obj
 0001:00027bc8       __acrt_get_process_end_policy 0000000180028bc8 f   libucrt:win_policies.obj
 0001:00027c04       _calloc_base               0000000180028c04 f   libucrt:calloc_base.obj
 0001:00027c90       ??$__acrt_mbs_to_wcs_cp@U__crt_win32_buffer_internal_dynamic_resizing@@@@YAHQEBDAEAV?$__crt_win32_buffer@_WU__crt_win32_buffer_internal_dynamic_resizing@@@@I@Z 0000000180028c90 f i libucrt:argv_wildcards.obj
 0001:00027e08       ??$__acrt_wcs_to_mbs_cp@U__crt_win32_buffer_internal_dynamic_resizing@@@@YAHQEB_WAEAV?$__crt_win32_buffer@DU__crt_win32_buffer_internal_dynamic_resizing@@@@I@Z 0000000180028e08 f i libucrt:argv_wildcards.obj
 0001:00028638       __acrt_expand_narrow_argv_wildcards 0000000180029638 f   libucrt:argv_wildcards.obj
 0001:00028640       ??$__acrt_wcs_to_mbs_cp@U__crt_win32_buffer_no_resizing@@@@YAHQEB_WAEAV?$__crt_win32_buffer@DU__crt_win32_buffer_no_resizing@@@@I@Z 0000000180029640 f i libucrt:getmodulefilenamea.obj
 0001:00028754       __acrt_GetModuleFileNameA  0000000180029754 f   libucrt:getmodulefilenamea.obj
 0001:00028f9c       __acrt_initialize_multibyte 0000000180029f9c f   libucrt:mbctype.obj
 0001:00028ffc       __acrt_update_thread_multibyte_data 0000000180029ffc f   libucrt:mbctype.obj
 0001:00029018       _setmbcp_nolock            000000018002a018 f   libucrt:mbctype.obj
 0001:0002934c       _ismbblead                 000000018002a34c f   libucrt:ismbbyte.obj
 0001:00029360       __acrt_initialize_command_line 000000018002a360 f   libucrt:argv_data.obj
 0001:00029388       __acrt_MultiByteToWideChar 000000018002a388 f   libucrt:multibytetowidechar.obj
 0001:000293e4       __acrt_WideCharToMultiByte 000000018002a3e4 f   libucrt:widechartomultibyte.obj
 0001:00029494       __dcrt_get_narrow_environment_from_os 000000018002a494 f   libucrt:get_environment_from_os.obj
 0001:00029598       _recalloc_base             000000018002a598 f   libucrt:recalloc.obj
 0001:00029808       __acrt_AppPolicyGetProcessTerminationMethodInternal 000000018002a808 f   libucrt:winapi_thunks.obj
 0001:00029858       __acrt_AreFileApisANSI     000000018002a858 f   libucrt:winapi_thunks.obj
 0001:00029894       __acrt_FlsAlloc            000000018002a894 f   libucrt:winapi_thunks.obj
 0001:000298dc       __acrt_FlsFree             000000018002a8dc f   libucrt:winapi_thunks.obj
 0001:00029924       __acrt_FlsGetValue         000000018002a924 f   libucrt:winapi_thunks.obj
 0001:0002996c       __acrt_FlsSetValue         000000018002a96c f   libucrt:winapi_thunks.obj
 0001:000299c0       __acrt_InitializeCriticalSectionEx 000000018002a9c0 f   libucrt:winapi_thunks.obj
 0001:00029a24       __acrt_LCMapStringEx       000000018002aa24 f   libucrt:winapi_thunks.obj
 0001:00029b00       __acrt_LocaleNameToLCID    000000018002ab00 f   libucrt:winapi_thunks.obj
 0001:00029b50       __acrt_initialize_winapi_thunks 000000018002ab50 f   libucrt:winapi_thunks.obj
 0001:00029b84       __acrt_uninitialize_winapi_thunks 000000018002ab84 f   libucrt:winapi_thunks.obj
 0001:00029bc8       __acrt_initialize_heap     000000018002abc8 f   libucrt:heap_handle.obj
 0001:00029be4       __acrt_uninitialize_heap   000000018002abe4 f   libucrt:heap_handle.obj
 0001:00029bf0       __acrt_execute_initializers 000000018002abf0 f   libucrt:shared_initialization.obj
 0001:00029c70       __acrt_execute_uninitializers 000000018002ac70 f   libucrt:shared_initialization.obj
 0001:00029cac       __acrt_initialize_new_handler 000000018002acac f   libucrt:new_handler.obj
 0001:00029cb4       _callnewh                  000000018002acb4 f   libucrt:new_handler.obj
 0001:00029ce4       _query_new_handler         000000018002ace4 f   libucrt:new_handler.obj
 0001:00029d60       __acrt_get_sigabrt_handler 000000018002ad60 f   libucrt:signal.obj
 0001:00029d90       __acrt_initialize_signal_handlers 000000018002ad90 f   libucrt:signal.obj
 0001:00029db0       raise                      000000018002adb0 f   libucrt:signal.obj
 0001:0002a01c       __acrt_has_user_matherr    000000018002b01c f   libucrt:matherr.obj
 0001:0002a03c       __acrt_initialize_user_matherr 000000018002b03c f   libucrt:matherr.obj
 0001:0002a044       __acrt_invoke_user_matherr 000000018002b044 f   libucrt:matherr.obj
 0001:0002a250       __acrt_stdio_flush_nolock  000000018002b250 f   libucrt:fflush.obj
 0001:0002a2cc       _fflush_nolock             000000018002b2cc f   libucrt:fflush.obj
 0001:0002a318       _flushall                  000000018002b318 f   libucrt:fflush.obj
 0001:0002a320       _query_new_mode            000000018002b320 f   libucrt:new_mode.obj
 0001:0002a328       _isleadbyte_l              000000018002b328 f i libucrt:_wctype.obj
 0001:0002a374       ?__mbrtowc_utf8@__crt_mbstring@@YA_KPEA_WPEBD_KPEAU_Mbstatet@@@Z 000000018002b374 f   libucrt:mbrtowc.obj
 0001:0002a3b0       ?__mbsrtowcs_utf8@__crt_mbstring@@YA_KPEA_WPEAPEBD_KPEAU_Mbstatet@@@Z 000000018002b3b0 f   libucrt:mbrtowc.obj
 0001:0002a528       ?__c32rtomb_utf8@__crt_mbstring@@YA_KPEAD_UPEAU_Mbstatet@@@Z 000000018002b528 f   libucrt:c32rtomb.obj
 0001:0002a5dc       __acrt_add_locale_ref      000000018002b5dc f   libucrt:locale_refcounting.obj
 0001:0002a668       __acrt_free_locale         000000018002b668 f   libucrt:locale_refcounting.obj
 0001:0002a7e0       __acrt_locale_add_lc_time_reference 000000018002b7e0 f   libucrt:locale_refcounting.obj
 0001:0002a808       __acrt_locale_free_lc_time_if_unreferenced 000000018002b808 f   libucrt:locale_refcounting.obj
 0001:0002a840       __acrt_locale_release_lc_time_reference 000000018002b840 f   libucrt:locale_refcounting.obj
 0001:0002a868       __acrt_release_locale_ref  000000018002b868 f   libucrt:locale_refcounting.obj
 0001:0002a910       __acrt_update_thread_locale_data 000000018002b910 f   libucrt:locale_refcounting.obj
 0001:0002a980       _updatetlocinfoEx_nolock   000000018002b980 f   libucrt:locale_refcounting.obj
 0001:0002a9e8       __acrt_fp_strflt_to_string 000000018002b9e8 f   libucrt:_fptostr.obj
 0001:0002ab30       ?divide@__crt_strtox@@YA_KAEAUbig_integer@1@AEBU21@@Z 000000018002bb30 f i libucrt:cfout.obj
 0001:0002af5c       __acrt_fltout              000000018002bf5c f   libucrt:cfout.obj
 0001:0002c228       fegetround                 000000018002d228 f   libucrt:fegetround.obj
 0001:0002c23c       _fcloseall                 000000018002d23c f   libucrt:closeall.obj
 0001:0002c2f0       __acrt_stdio_free_buffer_nolock 000000018002d2f0 f   libucrt:_freebuf.obj
 0001:0002c330       _isatty                    000000018002d330 f   libucrt:isatty.obj
 0001:0002c390       __acrt_locale_free_monetary 000000018002d390 f   libucrt:initmon.obj
 0001:0002c49c       __acrt_locale_free_numeric 000000018002d49c f   libucrt:initnum.obj
 0001:0002c560       __acrt_locale_free_time    000000018002d560 f   libucrt:inittime.obj
 0001:0002c668       __acrt_GetStringTypeA      000000018002d668 f   libucrt:getstringtypea.obj
 0001:0002c7f8       __acrt_lowio_create_handle_array 000000018002d7f8 f   libucrt:osfinfo.obj
 0001:0002c8a0       __acrt_lowio_destroy_handle_array 000000018002d8a0 f   libucrt:osfinfo.obj
 0001:0002c8f0       __acrt_lowio_ensure_fh_exists 000000018002d8f0 f   libucrt:osfinfo.obj
 0001:0002c998       __acrt_lowio_lock_fh       000000018002d998 f   libucrt:osfinfo.obj
 0001:0002c9c0       __acrt_lowio_unlock_fh     000000018002d9c0 f   libucrt:osfinfo.obj
 0001:0002c9e8       _free_osfhnd               000000018002d9e8 f   libucrt:osfinfo.obj
 0001:0002caa4       _get_osfhandle             000000018002daa4 f   libucrt:osfinfo.obj
 0001:0002cb1c       __acrt_GetStringTypeW      000000018002db1c f   libucrt:getstringtypew.obj
 0001:0002cb30       qsort                      000000018002db30 f   libucrt:qsort.obj
 0001:0002ced0       strncpy_s                  000000018002ded0 f   libucrt:strncpy_s.obj
 0001:0002d050       strpbrk                    000000018002e050 f   libucrt:strpbrk.obj
 0001:0002d418       _mbsdec                    000000018002e418 f   libucrt:mbsdec.obj
 0001:0002d420       _mbsdec_l                  000000018002e420 f   libucrt:mbsdec.obj
 0001:0002d7cc       __acrt_LCMapStringA        000000018002e7cc f   libucrt:lcmapstringa.obj
 0001:0002d87c       _msize_base                000000018002e87c f   libucrt:msize.obj
 0001:0002d8b8       _realloc_base              000000018002e8b8 f   libucrt:realloc_base.obj
 0001:0002d934       __acrt_DownlevelLocaleNameToLCID 000000018002e934 f   libucrt:lcidtoname_downlevel.obj
 0001:0002da70       _commit                    000000018002ea70 f   libucrt:commit.obj
 0001:0002e380       _write                     000000018002f380 f   libucrt:write.obj
 0001:0002e46c       _write_nolock              000000018002f46c f   libucrt:write.obj
 0001:0002e750       ?__mbrtoc32_utf8@__crt_mbstring@@YA_KPEA_UPEBD_KPEAU_Mbstatet@@@Z 000000018002f750 f   libucrt:mbrtoc32.obj
 0001:0002e928       _controlfp_s               000000018002f928 f   libucrt:contrlfp.obj
 0001:0002e98c       fegetenv                   000000018002f98c f   libucrt:fegetenv.obj
 0001:0002e9ac       fesetenv                   000000018002f9ac f   libucrt:fesetenv.obj
 0001:0002e9f8       feholdexcept               000000018002f9f8 f   libucrt:feholdexcept.obj
 0001:0002ea48       ceil                       000000018002fa48 f   libucrt:ceil.obj
 0001:0002eb10       log10                      000000018002fb10 f   libucrt:log10.obj
 0001:0002f0bc       __acrt_fenv_get_common_round_control 00000001800300bc f   libucrt:_fenvutils.obj
 0001:0002f0c8       __acrt_fenv_get_control    00000001800300c8 f   libucrt:_fenvutils.obj
 0001:0002f1bc       __acrt_fenv_get_status     00000001800301bc f   libucrt:_fenvutils.obj
 0001:0002f210       __acrt_fenv_set_control    0000000180030210 f   libucrt:_fenvutils.obj
 0001:0002f358       __acrt_fenv_set_status     0000000180030358 f   libucrt:_fenvutils.obj
 0001:0002f478       _lseeki64_nolock           0000000180030478 f   libucrt:lseek.obj
 0001:0002f480       _fclose_nolock             0000000180030480 f   libucrt:fclose.obj
 0001:0002f504       fclose                     0000000180030504 f   libucrt:fclose.obj
 0001:0002f568       __ascii_wcsnicmp           0000000180030568 f   libucrt:wcsnicmp.obj
 0001:0002f5b4       _query_app_type            00000001800305b4 f   libucrt:report_runtime_error.obj
 0001:0002f5bc       __strncnt                  00000001800305bc f   libucrt:strncnt.obj
 0001:0002f5d4       _putwch_nolock             00000001800305d4 f   libucrt:putwch.obj
 0001:0002f610       _clearfp                   0000000180030610 f   libucrt:ieee.obj
 0001:0002f680       _control87                 0000000180030680 f   libucrt:ieee.obj
 0001:0002fa6c       _handle_error              0000000180030a6c f   libucrt:libm_error.obj
 0001:0002fb94       _handle_nan                0000000180030b94 f   libucrt:libm_error.obj
 0001:0002fbb0       __acrt_initialize_fma3     0000000180030bb0 f   libucrt:fma3_available.obj
 0001:0002fc20       _log10_special             0000000180030c20 f   libucrt:log_special.obj
 0001:0002fd4c       _close                     0000000180030d4c f   libucrt:close.obj
 0001:0002fdf0       _close_nolock              0000000180030df0 f   libucrt:close.obj
 0001:0002feb0       ?__acrt_stdio_free_stream@@YAXV__crt_stdio_stream@@@Z 0000000180030eb0 f   libucrt:stream.obj
 0001:0002fecc       __dcrt_lowio_ensure_console_output_initialized 0000000180030ecc f   libucrt:initcon.obj
 0001:0002ff20       __dcrt_terminate_console_output 0000000180030f20 f   libucrt:initcon.obj
 0001:0002ff3c       __dcrt_write_console       0000000180030f3c f   libucrt:initcon.obj
 0001:00030010       _get_fpsr                  0000000180031010 f   libucrt:fpsr.obj
 0001:00030020       _set_fpsr                  0000000180031020 f   libucrt:fpsr.obj
 0001:0003002a       _fclrf                     000000018003102a f   libucrt:fpsr.obj
 0001:0003003e       _frnd                      000000018003103e f   libucrt:fpsr.obj
 0001:00030060       _raise_exc                 0000000180031060 f   libucrt:fpexcept.obj
 0001:00030088       _raise_exc_ex              0000000180031088 f   libucrt:fpexcept.obj
 0001:00030398       _set_errno_from_matherr    0000000180031398 f   libucrt:fpexcept.obj
 0001:000303c8       _clrfp                     00000001800313c8 f   libucrt:fpctrl.obj
 0001:000303e8       _ctrlfp                    00000001800313e8 f   libucrt:fpctrl.obj
 0001:00030464       _set_statfp                0000000180031464 f   libucrt:fpctrl.obj
 0001:00030484       _statfp                    0000000180031484 f   libucrt:fpctrl.obj
 0001:00030495       Process32FirstW            0000000180031495 f   kernel32:KERNEL32.dll
 0001:0003049b       Process32NextW             000000018003149b f   kernel32:KERNEL32.dll
 0001:000304a1       IsProcessorFeaturePresent  00000001800314a1 f   kernel32:KERNEL32.dll
 0001:000304a8       ?apiGetConsoleFontSize@@YAHPEAXAEAH1AEAY0CA@_W@Z 00000001800314a8 f   common-kernel64:WConsole.obj
 0001:00030570       ?apiGetCurrentConsoleFontEx@@YAHPEAXHPEAUMY_CONSOLE_FONT_INFOEX@@@Z 0000000180031570 f   common-kernel64:WConsole.obj
 0001:000305ec       ?apiSetConsoleFontSize@@YAHPEAXHHPEB_W@Z 00000001800315ec f   common-kernel64:WConsole.obj
 0001:00030758       ?apiSetCurrentConsoleFontEx@@YAHPEAXHPEAUMY_CONSOLE_FONT_INFOEX@@@Z 0000000180031758 f   common-kernel64:WConsole.obj
 0001:000307e0       _FindPESection             00000001800317e0 f   LIBCMT:pesect.obj
 0001:00030830       _IsNonwritableInCurrentImage 0000000180031830 f   LIBCMT:pesect.obj
 0001:00030880       _ValidateImageBase         0000000180031880 f   LIBCMT:pesect.obj
 0001:000308b0       __GSHandlerCheck_SEH       00000001800318b0 f   LIBCMT:gshandlerseh.obj
 0001:00030950       _guard_dispatch_icall_nop  0000000180031950 f   LIBCMT:guard_dispatch.obj
 0001:00030970       _guard_xfg_dispatch_icall_nop 0000000180031970 f   LIBCMT:guard_xfg_dispatch.obj
 0002:00000000       __imp_RegQueryValueExW     0000000180033000     advapi32:ADVAPI32.dll
 0002:00000008       __imp_RegOpenKeyExW        0000000180033008     advapi32:ADVAPI32.dll
 0002:00000010       __imp_RegCloseKey          0000000180033010     advapi32:ADVAPI32.dll
 0002:00000018       __imp_RegCreateKeyExW      0000000180033018     advapi32:ADVAPI32.dll
 0002:00000020       \177ADVAPI32_NULL_THUNK_DATA 0000000180033020     advapi32:ADVAPI32.dll
 0002:00000028       __imp_GdiFlush             0000000180033028     gdi32:GDI32.dll
 0002:00000030       __imp_GetEnhMetaFileBits   0000000180033030     gdi32:GDI32.dll
 0002:00000038       __imp_DeleteEnhMetaFile    0000000180033038     gdi32:GDI32.dll
 0002:00000040       __imp_CreateEnhMetaFileW   0000000180033040     gdi32:GDI32.dll
 0002:00000048       __imp_CloseEnhMetaFile     0000000180033048     gdi32:GDI32.dll
 0002:00000050       __imp_GetDeviceCaps        0000000180033050     gdi32:GDI32.dll
 0002:00000058       __imp_DeleteObject         0000000180033058     gdi32:GDI32.dll
 0002:00000060       __imp_CreateSolidBrush     0000000180033060     gdi32:GDI32.dll
 0002:00000068       __imp_CreateCompatibleDC   0000000180033068     gdi32:GDI32.dll
 0002:00000070       __imp_CreateFontIndirectW  0000000180033070     gdi32:GDI32.dll
 0002:00000078       __imp_DeleteDC             0000000180033078     gdi32:GDI32.dll
 0002:00000080       __imp_SelectObject         0000000180033080     gdi32:GDI32.dll
 0002:00000088       __imp_GetTextMetricsW      0000000180033088     gdi32:GDI32.dll
 0002:00000090       \177GDI32_NULL_THUNK_DATA  0000000180033090     gdi32:GDI32.dll
 0002:00000098       __imp_SetEvent             0000000180033098     kernel32:KERNEL32.dll
 0002:000000a0       __imp_ResetEvent           00000001800330a0     kernel32:KERNEL32.dll
 0002:000000a8       __imp_ReleaseSemaphore     00000001800330a8     kernel32:KERNEL32.dll
 0002:000000b0       __imp_WaitForSingleObject  00000001800330b0     kernel32:KERNEL32.dll
 0002:000000b8       __imp_CreateEventW         00000001800330b8     kernel32:KERNEL32.dll
 0002:000000c0       __imp_Sleep                00000001800330c0     kernel32:KERNEL32.dll
 0002:000000c8       __imp_WaitForMultipleObjects 00000001800330c8     kernel32:KERNEL32.dll
 0002:000000d0       __imp_CreateSemaphoreW     00000001800330d0     kernel32:KERNEL32.dll
 0002:000000d8       __imp_GetCurrentProcess    00000001800330d8     kernel32:KERNEL32.dll
 0002:000000e0       __imp_TerminateProcess     00000001800330e0     kernel32:KERNEL32.dll
 0002:000000e8       __imp_GetExitCodeProcess   00000001800330e8     kernel32:KERNEL32.dll
 0002:000000f0       __imp_GetCurrentThreadId   00000001800330f0     kernel32:KERNEL32.dll
 0002:000000f8       __imp_SuspendThread        00000001800330f8     kernel32:KERNEL32.dll
 0002:00000100       __imp_ResumeThread         0000000180033100     kernel32:KERNEL32.dll
 0002:00000108       __imp_CreateProcessW       0000000180033108     kernel32:KERNEL32.dll
 0002:00000110       __imp_GetTickCount         0000000180033110     kernel32:KERNEL32.dll
 0002:00000118       __imp_VirtualQuery         0000000180033118     kernel32:KERNEL32.dll
 0002:00000120       __imp_CreateFileMappingW   0000000180033120     kernel32:KERNEL32.dll
 0002:00000128       __imp_OpenFileMappingW     0000000180033128     kernel32:KERNEL32.dll
 0002:00000130       __imp_MapViewOfFile        0000000180033130     kernel32:KERNEL32.dll
 0002:00000138       __imp_UnmapViewOfFile      0000000180033138     kernel32:KERNEL32.dll
 0002:00000140       __imp_GetModuleFileNameW   0000000180033140     kernel32:KERNEL32.dll
 0002:00000148       __imp_lstrcmpW             0000000180033148     kernel32:KERNEL32.dll
 0002:00000150       __imp_lstrcmpiW            0000000180033150     kernel32:KERNEL32.dll
 0002:00000158       __imp_lstrcatW             0000000180033158     kernel32:KERNEL32.dll
 0002:00000160       __imp_IsBadStringPtrW      0000000180033160     kernel32:KERNEL32.dll
 0002:00000168       __imp_GetConsoleMode       0000000180033168     kernel32:KERNEL32.dll
 0002:00000170       __imp_SetConsoleMode       0000000180033170     kernel32:KERNEL32.dll
 0002:00000178       __imp_GetNumberOfConsoleInputEvents 0000000180033178     kernel32:KERNEL32.dll
 0002:00000180       __imp_ReadConsoleInputW    0000000180033180     kernel32:KERNEL32.dll
 0002:00000188       __imp_CloseHandle          0000000180033188     kernel32:KERNEL32.dll
 0002:00000190       __imp_GetConsoleCursorInfo 0000000180033190     kernel32:KERNEL32.dll
 0002:00000198       __imp_GetConsoleScreenBufferInfo 0000000180033198     kernel32:KERNEL32.dll
 0002:000001a0       __imp_WriteConsoleInputW   00000001800331a0     kernel32:KERNEL32.dll
 0002:000001a8       __imp_SetLastError         00000001800331a8     kernel32:KERNEL32.dll
 0002:000001b0       __imp_SetConsoleTitleW     00000001800331b0     kernel32:KERNEL32.dll
 0002:000001b8       __imp_CreateToolhelp32Snapshot 00000001800331b8     kernel32:KERNEL32.dll
 0002:000001c0       __imp_Thread32First        00000001800331c0     kernel32:KERNEL32.dll
 0002:000001c8       __imp_Thread32Next         00000001800331c8     kernel32:KERNEL32.dll
 0002:000001d0       __imp_Module32FirstW       00000001800331d0     kernel32:KERNEL32.dll
 0002:000001d8       __imp_Module32NextW        00000001800331d8     kernel32:KERNEL32.dll
 0002:000001e0       __imp_FlushFileBuffers     00000001800331e0     kernel32:KERNEL32.dll
 0002:000001e8       __imp_ReadFile             00000001800331e8     kernel32:KERNEL32.dll
 0002:000001f0       __imp_WriteFile            00000001800331f0     kernel32:KERNEL32.dll
 0002:000001f8       __imp_ConnectNamedPipe     00000001800331f8     kernel32:KERNEL32.dll
 0002:00000200       __imp_DisconnectNamedPipe  0000000180033200     kernel32:KERNEL32.dll
 0002:00000208       __imp_CreateNamedPipeW     0000000180033208     kernel32:KERNEL32.dll
 0002:00000210       __imp_GetOverlappedResult  0000000180033210     kernel32:KERNEL32.dll
 0002:00000218       __imp_SetThreadPriority    0000000180033218     kernel32:KERNEL32.dll
 0002:00000220       __imp_GetExitCodeThread    0000000180033220     kernel32:KERNEL32.dll
 0002:00000228       __imp_SetEnvironmentVariableW 0000000180033228     kernel32:KERNEL32.dll
 0002:00000230       __imp_VirtualProtect       0000000180033230     kernel32:KERNEL32.dll
 0002:00000238       __imp_LoadLibraryW         0000000180033238     kernel32:KERNEL32.dll
 0002:00000240       __imp_GetProcAddress       0000000180033240     kernel32:KERNEL32.dll
 0002:00000248       __imp_GetModuleHandleW     0000000180033248     kernel32:KERNEL32.dll
 0002:00000250       __imp_GetCurrentProcessId  0000000180033250     kernel32:KERNEL32.dll
 0002:00000258       __imp_GetLastError         0000000180033258     kernel32:KERNEL32.dll
 0002:00000260       __imp_IsDebuggerPresent    0000000180033260     kernel32:KERNEL32.dll
 0002:00000268       __imp_DeleteFileW          0000000180033268     kernel32:KERNEL32.dll
 0002:00000270       __imp_GetEnvironmentVariableW 0000000180033270     kernel32:KERNEL32.dll
 0002:00000278       __imp_GetEnvironmentStringsW 0000000180033278     kernel32:KERNEL32.dll
 0002:00000280       __imp_GetStdHandle         0000000180033280     kernel32:KERNEL32.dll
 0002:00000288       __imp_WriteConsoleW        0000000180033288     kernel32:KERNEL32.dll
 0002:00000290       __imp_HeapSize             0000000180033290     kernel32:KERNEL32.dll
 0002:00000298       __imp_WideCharToMultiByte  0000000180033298     kernel32:KERNEL32.dll
 0002:000002a0       __imp_MultiByteToWideChar  00000001800332a0     kernel32:KERNEL32.dll
 0002:000002a8       __imp_lstrlenA             00000001800332a8     kernel32:KERNEL32.dll
 0002:000002b0       __imp_lstrcpyA             00000001800332b0     kernel32:KERNEL32.dll
 0002:000002b8       __imp_lstrcpynA            00000001800332b8     kernel32:KERNEL32.dll
 0002:000002c0       __imp_lstrlenW             00000001800332c0     kernel32:KERNEL32.dll
 0002:000002c8       __imp_lstrcpyW             00000001800332c8     kernel32:KERNEL32.dll
 0002:000002d0       __imp_GetConsoleTitleW     00000001800332d0     kernel32:KERNEL32.dll
 0002:000002d8       __imp_lstrcpynW            00000001800332d8     kernel32:KERNEL32.dll
 0002:000002e0       __imp_PeekConsoleInputW    00000001800332e0     kernel32:KERNEL32.dll
 0002:000002e8       __imp_ExpandEnvironmentStringsW 00000001800332e8     kernel32:KERNEL32.dll
 0002:000002f0       __imp_HeapCreate           00000001800332f0     kernel32:KERNEL32.dll
 0002:000002f8       __imp_HeapDestroy          00000001800332f8     kernel32:KERNEL32.dll
 0002:00000300       __imp_HeapAlloc            0000000180033300     kernel32:KERNEL32.dll
 0002:00000308       __imp_HeapReAlloc          0000000180033308     kernel32:KERNEL32.dll
 0002:00000310       __imp_HeapFree             0000000180033310     kernel32:KERNEL32.dll
 0002:00000318       __imp_CreateFileW          0000000180033318     kernel32:KERNEL32.dll
 0002:00000320       __imp_SetNamedPipeHandleState 0000000180033320     kernel32:KERNEL32.dll
 0002:00000328       __imp_TransactNamedPipe    0000000180033328     kernel32:KERNEL32.dll
 0002:00000330       __imp_WaitNamedPipeW       0000000180033330     kernel32:KERNEL32.dll
 0002:00000338       __imp_GetConsoleWindow     0000000180033338     kernel32:KERNEL32.dll
 0002:00000340       __imp_DebugBreak           0000000180033340     kernel32:KERNEL32.dll
 0002:00000348       __imp_RaiseException       0000000180033348     kernel32:KERNEL32.dll
 0002:00000350       __imp_CreateThread         0000000180033350     kernel32:KERNEL32.dll
 0002:00000358       __imp_TerminateThread      0000000180033358     kernel32:KERNEL32.dll
 0002:00000360       __imp_FreeEnvironmentStringsW 0000000180033360     kernel32:KERNEL32.dll
 0002:00000368       __imp_SetStdHandle         0000000180033368     kernel32:KERNEL32.dll
 0002:00000370       __imp_FreeLibrary          0000000180033370     kernel32:KERNEL32.dll
 0002:00000378       __imp_LocalAlloc           0000000180033378     kernel32:KERNEL32.dll
 0002:00000380       __imp_LocalFree            0000000180033380     kernel32:KERNEL32.dll
 0002:00000388       __imp_VerSetConditionMask  0000000180033388     kernel32:KERNEL32.dll
 0002:00000390       __imp_FindClose            0000000180033390     kernel32:KERNEL32.dll
 0002:00000398       __imp_FindFirstFileW       0000000180033398     kernel32:KERNEL32.dll
 0002:000003a0       __imp_FindNextFileW        00000001800333a0     kernel32:KERNEL32.dll
 0002:000003a8       __imp_GetFileInformationByHandle 00000001800333a8     kernel32:KERNEL32.dll
 0002:000003b0       __imp_VerifyVersionInfoW   00000001800333b0     kernel32:KERNEL32.dll
 0002:000003b8       __imp_Process32FirstW      00000001800333b8     kernel32:KERNEL32.dll
 0002:000003c0       __imp_Process32NextW       00000001800333c0     kernel32:KERNEL32.dll
 0002:000003c8       __imp_OpenThread           00000001800333c8     kernel32:KERNEL32.dll
 0002:000003d0       __imp_GetSystemInfo        00000001800333d0     kernel32:KERNEL32.dll
 0002:000003d8       __imp_VirtualAlloc         00000001800333d8     kernel32:KERNEL32.dll
 0002:000003e0       __imp_VirtualFree          00000001800333e0     kernel32:KERNEL32.dll
 0002:000003e8       __imp_IsBadReadPtr         00000001800333e8     kernel32:KERNEL32.dll
 0002:000003f0       __imp_InitializeCriticalSection 00000001800333f0     kernel32:KERNEL32.dll
 0002:000003f8       __imp_EnterCriticalSection 00000001800333f8     kernel32:KERNEL32.dll
 0002:00000400       __imp_LeaveCriticalSection 0000000180033400     kernel32:KERNEL32.dll
 0002:00000408       __imp_TryEnterCriticalSection 0000000180033408     kernel32:KERNEL32.dll
 0002:00000410       __imp_DeleteCriticalSection 0000000180033410     kernel32:KERNEL32.dll
 0002:00000418       __imp_ReleaseMutex         0000000180033418     kernel32:KERNEL32.dll
 0002:00000420       __imp_CreateMutexW         0000000180033420     kernel32:KERNEL32.dll
 0002:00000428       __imp_GetConsoleOutputCP   0000000180033428     kernel32:KERNEL32.dll
 0002:00000430       __imp_GetStartupInfoW      0000000180033430     kernel32:KERNEL32.dll
 0002:00000438       __imp_InitializeCriticalSectionAndSpinCount 0000000180033438     kernel32:KERNEL32.dll
 0002:00000440       __imp_WaitForSingleObjectEx 0000000180033440     kernel32:KERNEL32.dll
 0002:00000448       __imp_RtlCaptureContext    0000000180033448     kernel32:KERNEL32.dll
 0002:00000450       __imp_RtlLookupFunctionEntry 0000000180033450     kernel32:KERNEL32.dll
 0002:00000458       __imp_RtlVirtualUnwind     0000000180033458     kernel32:KERNEL32.dll
 0002:00000460       __imp_UnhandledExceptionFilter 0000000180033460     kernel32:KERNEL32.dll
 0002:00000468       __imp_SetUnhandledExceptionFilter 0000000180033468     kernel32:KERNEL32.dll
 0002:00000470       __imp_IsProcessorFeaturePresent 0000000180033470     kernel32:KERNEL32.dll
 0002:00000478       __imp_QueryPerformanceCounter 0000000180033478     kernel32:KERNEL32.dll
 0002:00000480       __imp_GetSystemTimeAsFileTime 0000000180033480     kernel32:KERNEL32.dll
 0002:00000488       __imp_InitializeSListHead  0000000180033488     kernel32:KERNEL32.dll
 0002:00000490       __imp_RtlUnwindEx          0000000180033490     kernel32:KERNEL32.dll
 0002:00000498       __imp_RtlPcToFileHeader    0000000180033498     kernel32:KERNEL32.dll
 0002:000004a0       __imp_InterlockedFlushSList 00000001800334a0     kernel32:KERNEL32.dll
 0002:000004a8       __imp_EncodePointer        00000001800334a8     kernel32:KERNEL32.dll
 0002:000004b0       __imp_TlsAlloc             00000001800334b0     kernel32:KERNEL32.dll
 0002:000004b8       __imp_TlsGetValue          00000001800334b8     kernel32:KERNEL32.dll
 0002:000004c0       __imp_TlsSetValue          00000001800334c0     kernel32:KERNEL32.dll
 0002:000004c8       __imp_TlsFree              00000001800334c8     kernel32:KERNEL32.dll
 0002:000004d0       __imp_LoadLibraryExW       00000001800334d0     kernel32:KERNEL32.dll
 0002:000004d8       __imp_ExitProcess          00000001800334d8     kernel32:KERNEL32.dll
 0002:000004e0       __imp_GetModuleHandleExW   00000001800334e0     kernel32:KERNEL32.dll
 0002:000004e8       __imp_GetFileType          00000001800334e8     kernel32:KERNEL32.dll
 0002:000004f0       __imp_FindFirstFileExW     00000001800334f0     kernel32:KERNEL32.dll
 0002:000004f8       __imp_IsValidCodePage      00000001800334f8     kernel32:KERNEL32.dll
 0002:00000500       __imp_GetACP               0000000180033500     kernel32:KERNEL32.dll
 0002:00000508       __imp_GetOEMCP             0000000180033508     kernel32:KERNEL32.dll
 0002:00000510       __imp_GetCPInfo            0000000180033510     kernel32:KERNEL32.dll
 0002:00000518       __imp_GetCommandLineA      0000000180033518     kernel32:KERNEL32.dll
 0002:00000520       __imp_GetCommandLineW      0000000180033520     kernel32:KERNEL32.dll
 0002:00000528       __imp_LCMapStringW         0000000180033528     kernel32:KERNEL32.dll
 0002:00000530       __imp_GetProcessHeap       0000000180033530     kernel32:KERNEL32.dll
 0002:00000538       __imp_SetFilePointerEx     0000000180033538     kernel32:KERNEL32.dll
 0002:00000540       __imp_GetStringTypeW       0000000180033540     kernel32:KERNEL32.dll
 0002:00000548       \177KERNEL32_NULL_THUNK_DATA 0000000180033548     kernel32:KERNEL32.dll
 0002:00000550       __imp_FillRect             0000000180033550     user32:USER32.dll
 0002:00000558       __imp_ReleaseDC            0000000180033558     user32:USER32.dll
 0002:00000560       __imp_GetClassNameW        0000000180033560     user32:USER32.dll
 0002:00000568       __imp_GetSystemMetrics     0000000180033568     user32:USER32.dll
 0002:00000570       __imp_FindWindowW          0000000180033570     user32:USER32.dll
 0002:00000578       __imp_SetWindowPos         0000000180033578     user32:USER32.dll
 0002:00000580       __imp_EnableWindow         0000000180033580     user32:USER32.dll
 0002:00000588       __imp_IsWindowEnabled      0000000180033588     user32:USER32.dll
 0002:00000590       __imp_GetWindowRect        0000000180033590     user32:USER32.dll
 0002:00000598       __imp_MonitorFromWindow    0000000180033598     user32:USER32.dll
 0002:000005a0       __imp_GetMonitorInfoW      00000001800335a0     user32:USER32.dll
 0002:000005a8       __imp_SendMessageW         00000001800335a8     user32:USER32.dll
 0002:000005b0       __imp_ShowWindow           00000001800335b0     user32:USER32.dll
 0002:000005b8       __imp_ShowWindowAsync      00000001800335b8     user32:USER32.dll
 0002:000005c0       __imp_LoadKeyboardLayoutW  00000001800335c0     user32:USER32.dll
 0002:000005c8       __imp_IsRectEmpty          00000001800335c8     user32:USER32.dll
 0002:000005d0       __imp_EnumDisplayMonitors  00000001800335d0     user32:USER32.dll
 0002:000005d8       __imp_GetDC                00000001800335d8     user32:USER32.dll
 0002:000005e0       __imp_GetWindowThreadProcessId 00000001800335e0     user32:USER32.dll
 0002:000005e8       __imp_IsWindowVisible      00000001800335e8     user32:USER32.dll
 0002:000005f0       __imp_PostMessageW         00000001800335f0     user32:USER32.dll
 0002:000005f8       __imp_RegisterWindowMessageW 00000001800335f8     user32:USER32.dll
 0002:00000600       __imp_wsprintfW            0000000180033600     user32:USER32.dll
 0002:00000608       __imp_CharUpperBuffW       0000000180033608     user32:USER32.dll
 0002:00000610       __imp_GetParent            0000000180033610     user32:USER32.dll
 0002:00000618       __imp_GetWindowLongPtrW    0000000180033618     user32:USER32.dll
 0002:00000620       __imp_IsWindow             0000000180033620     user32:USER32.dll
 0002:00000628       __imp_MessageBoxW          0000000180033628     user32:USER32.dll
 0002:00000630       __imp_ActivateKeyboardLayout 0000000180033630     user32:USER32.dll
 0002:00000638       \177USER32_NULL_THUNK_DATA 0000000180033638     user32:USER32.dll
 0002:00000640       __imp_VerQueryValueW       0000000180033640     version:VERSION.dll
 0002:00000648       __imp_GetFileVersionInfoW  0000000180033648     version:VERSION.dll
 0002:00000650       __imp_GetFileVersionInfoSizeW 0000000180033650     version:VERSION.dll
 0002:00000658       \177VERSION_NULL_THUNK_DATA 0000000180033658     version:VERSION.dll
 0002:00000660       __guard_check_icall_fptr   0000000180033660     LIBCMT:guard_support.obj
 0002:00000668       __guard_xfg_check_icall_fptr 0000000180033668     LIBCMT:guard_support.obj
 0002:00000670       __guard_dispatch_icall_fptr 0000000180033670     LIBCMT:guard_support.obj
 0002:00000678       __guard_xfg_dispatch_icall_fptr 0000000180033678     LIBCMT:guard_support.obj
 0002:00000680       __guard_xfg_table_dispatch_icall_fptr 0000000180033680     LIBCMT:guard_support.obj
 0002:00000688       __xc_a                     0000000180033688     LIBCMT:initializers.obj
 0002:00000698       __xc_z                     0000000180033698     LIBCMT:initializers.obj
 0002:000006a0       __xi_a                     00000001800336a0     LIBCMT:initializers.obj
 0002:000006b0       __acrt_stdio_initializer   00000001800336b0     libucrt:stdio_initializer.obj
 0002:000006b8       __acrt_multibyte_initializer 00000001800336b8     libucrt:multibyte_initializer.obj
 0002:000006c0       __acrt_tran_fma3_initializer 00000001800336c0     libucrt:fma3_initializer.obj
 0002:000006c8       __xi_z                     00000001800336c8     LIBCMT:initializers.obj
 0002:000006d0       __xl_a                     00000001800336d0     LIBCMT:tlssup.obj
 0002:000006d8       __xl_z                     00000001800336d8     LIBCMT:tlssup.obj
 0002:000006e0       __xp_a                     00000001800336e0     LIBCMT:initializers.obj
 0002:000006e8       __acrt_locale_terminator   00000001800336e8     libucrt:locale_initializer.obj
 0002:000006f0       __dcrt_console_output_terminator 00000001800336f0     libucrt:console_output_initializer.obj
 0002:000006f8       __acrt_stdio_terminator    00000001800336f8     libucrt:stdio_initializer.obj
 0002:00000700       __xp_z                     0000000180033700     LIBCMT:initializers.obj
 0002:00000708       __xt_a                     0000000180033708     LIBCMT:initializers.obj
 0002:00000710       __xt_z                     0000000180033710     LIBCMT:initializers.obj
 0002:00000720       ??_C@_1BO@MLCHEAGG@?$AAC?$AAo?$AAn?$AAE?$AAm?$AAu?$AAH?$AAk?$AA6?$AA4?$AA?4?$AAd?$AAl?$AAl@ 0000000180033720     ConEmuInjects.obj
 0002:00000740       ??_C@_1IM@IDJBHJMA@?$AAC?$AAo?$AAn?$AAE?$AAm?$AAu?$AAH?$AAk?$AA?5?$AAw?$AAa?$AAs?$AA?5?$AAn?$AAo@ 0000000180033740     ConEmuInjects.obj
 0002:000007d0       ??_C@_1BM@LHLFCECN@?$AAC?$AAo?$AAn?$AAE?$AAm?$AAu?$AA?5?$AAp?$AAl?$AAu?$AAg?$AAi?$AAn@ 00000001800337d0     ConEmuInjects.obj
 0002:000007f0       ??_C@_0BB@OPFPFOCM@SetHookCallbacks@ 00000001800337f0     ConEmuInjects.obj
 0002:00000808       ??_C@_0BH@HLKHEPME@SetLoadLibraryCallback@ 0000000180033808     ConEmuInjects.obj
 0002:00000820       ??_C@_0P@JOHNNMGG@SetFarHookMode@ 0000000180033820     ConEmuInjects.obj
 0002:00000830       ??_C@_1CM@DEPCLAGE@?$AAC?$AAo?$AAn?$AAE?$AAm?$AAu?$AA?5?$AAp?$AAl?$AAu?$AAg?$AAi?$AAn?$AA?0?$AA?5@ 0000000180033830     ConEmuInjects.obj
 0002:00000860       ??_C@_1CC@JNEFFKJH@?$AAS?$AAe?$AAt?$AAH?$AAo?$AAo?$AAk?$AAC?$AAa?$AAl?$AAl?$AAb?$AAa?$AAc?$AAk@ 0000000180033860     ConEmuInjects.obj
 0002:00000888       ??_C@_1CO@HHOFMBDD@?$AAS?$AAe?$AAt?$AAL?$AAo?$AAa?$AAd?$AAL?$AAi?$AAb?$AAr?$AAa?$AAr?$AAy?$AAC@ 0000000180033888     ConEmuInjects.obj
 0002:000008b8       ??_C@_1BO@OGOEDKED@?$AAS?$AAe?$AAt?$AAF?$AAa?$AAr?$AAH?$AAo?$AAo?$AAk?$AAM?$AAo?$AAd?$AAe@ 00000001800338b8     ConEmuInjects.obj
 0002:000008e0       ??_C@_1FG@GKBMDCCM@?$AAC?$AAo?$AAn?$AAE?$AAm?$AAu?$AAH?$AAk?$AA?5?$AAi?$AAs?$AA?5?$AAb?$AAr?$AAo@ 00000001800338e0     ConEmuInjects.obj
 0002:00000938       ??_C@_1BK@MGMFAEKH@?$AAk?$AAe?$AAr?$AAn?$AAe?$AAl?$AA3?$AA2?$AA?4?$AAd?$AAl?$AAl@ 0000000180033938     ConEmuInjects.obj
 0002:00000958       ??_C@_0M@LAGCIMKJ@FreeConsole@ 0000000180033958     ConEmuInjects.obj
 0002:00000968       ??_C@_0N@MOGGHBHN@AllocConsole@ 0000000180033968     ConEmuInjects.obj
 0002:00000978       ??_C@_0BC@BINPJBNK@PeekConsoleInputA@ 0000000180033978     ConEmuInjects.obj
 0002:00000990       ??_C@_0BC@EEHCEAN@PeekConsoleInputW@ 0000000180033990     ConEmuInjects.obj
 0002:000009a8       ??_C@_0BC@JNLCHFED@ReadConsoleInputA@ 00000001800339a8     ConEmuInjects.obj
 0002:000009c0       ??_C@_0BC@IBCKMAJE@ReadConsoleInputW@ 00000001800339c0     ConEmuInjects.obj
 0002:000009d8       ??_C@_0BE@PKLMIEOM@WriteConsoleOutputA@ 00000001800339d8     ConEmuInjects.obj
 0002:000009f0       ??_C@_0BE@OGCEDBDL@WriteConsoleOutputW@ 00000001800339f0     ConEmuInjects.obj
 0002:00000a08       ??_C@_0BO@HCPBIAL@GetNumberOfConsoleInputEvents@ 0000000180033a08     ConEmuInjects.obj
 0002:00000a28       ??_C@_1BI@BNFKGMFK@?$AAs?$AAh?$AAe?$AAl?$AAl?$AA3?$AA2?$AA?4?$AAd?$AAl?$AAl@ 0000000180033a28     ConEmuInjects.obj
 0002:00000a40       ??_C@_0BA@LIPPODFA@ShellExecuteExW@ 0000000180033a40     ConEmuInjects.obj
 0002:00000a50       ??_C@_1CM@NELFNPDE@?$AAE?$AAx?$AAt?$AAe?$AAn?$AAd?$AAe?$AAd?$AAC?$AAo?$AAn?$AAs?$AAo?$AAl?$AAe@ 0000000180033a50     ConEmuInjects.obj
 0002:00000a80       ??_C@_0BE@MFLNGBIK@SetConsoleCallbacks@ 0000000180033a80     ConEmuInjects.obj
 0002:00000a98       ??_C@_08BCACMCCB@ExitFARW@ 0000000180033a98     ConEmuPlugin.obj
 0002:00000aa8       ??_C@_0BE@PJBDJPG@ProcessEditorEventW@ 0000000180033aa8     ConEmuPlugin.obj
 0002:00000ac0       ??_C@_0BE@OMPAFBFG@ProcessViewerEventW@ 0000000180033ac0     ConEmuPlugin.obj
 0002:00000ad8       ??_C@_0BF@NLPJFAHE@ProcessSynchroEventW@ 0000000180033ad8     ConEmuPlugin.obj
 0002:00000af0       ??_C@_1BA@JOPOJEME@?$AAE?$AAx?$AAi?$AAt?$AAF?$AAA?$AAR@ 0000000180033af0     ConEmuPlugin.obj
 0002:00000b00       ??_C@_1BO@LDDOEOAL@?$AAE?$AAx?$AAi?$AAt?$AAF?$AAA?$AAR?$AA?5?$AA?9?$AA?5?$AAd?$AAo?$AAn?$AAe@ 0000000180033b00     ConEmuPlugin.obj
 0002:00000b20       ??_C@_1BC@OCOOMPC@?$AAE?$AAx?$AAi?$AAt?$AAF?$AAA?$AAR?$AAW@ 0000000180033b20     ConEmuPlugin.obj
 0002:00000b38       ??_C@_1CA@IFHGCKFI@?$AAE?$AAx?$AAi?$AAt?$AAF?$AAA?$AAR?$AAW?$AA?5?$AA?9?$AA?5?$AAd?$AAo?$AAn?$AAe@ 0000000180033b38     ConEmuPlugin.obj
 0002:00000b58       ??_C@_1BE@GNKIHEAN@?$AAE?$AAx?$AAi?$AAt?$AAF?$AAA?$AAR?$AAW?$AA3@ 0000000180033b58     ConEmuPlugin.obj
 0002:00000b70       ??_C@_1CC@LCFMKIJA@?$AAE?$AAx?$AAi?$AAt?$AAF?$AAA?$AAR?$AAW?$AA3?$AA?5?$AA?9?$AA?5?$AAd?$AAo?$AAn@ 0000000180033b70     ConEmuPlugin.obj
 0002:00000b94       ??_C@_11LOCGONAA@@         0000000180033b94     ConEmuPlugin1900.obj
 0002:00000ba0       ??_7CPluginW1900@@6B@      0000000180033ba0     ConEmuPlugin1900.obj
 0002:00000cc8       ??_C@_1O@PICBDAL@?$AAC?$AAo?$AAn?$AAE?$AAm?$AAu@ 0000000180033cc8     ConEmuPlugin1900.obj
 0002:00000cd8       ??_C@_1BK@BCDKFLCP@?$AAE?$AAx?$AAi?$AAt?$AAF?$AAA?$AAR?$AAW?$AA1?$AA9?$AA0?$AA0@ 0000000180033cd8     ConEmuPlugin1900.obj
 0002:00000cf8       ??_C@_1CI@OHGGDAJD@?$AAE?$AAx?$AAi?$AAt?$AAF?$AAA?$AAR?$AAW?$AA1?$AA9?$AA0?$AA0?$AA?5?$AA?9?$AA?5@ 0000000180033cf8     ConEmuPlugin1900.obj
 0002:00000d20       ??_C@_1M@OKCNCBMD@?$AA$?$AAT?$AAE?$AAX?$AAT@ 0000000180033d20     ConEmuPlugin1900.obj
 0002:00000d30       ??_C@_1O@BBPMHPCD@?$AAp?$AAr?$AAi?$AAn?$AAt?$AA?$CI@ 0000000180033d30     ConEmuPlugin1900.obj
 0002:00000d40       ??_C@_19JPEEHMMI@?$AA?5?$AA?7?$AA?$AN?$AA?6@ 0000000180033d40     ConEmuPlugin1900.obj
 0002:00000d50       ??_C@_1BC@OLJIBFPH@?$AA?0?$AA?5?$AAH?$AAi?$AAn?$AAt?$AA?3?$AA?5@ 0000000180033d50     ConEmuPlugin1900.obj
 0002:00000d70       ??_C@_1BCK@MAAKAKN@?$AAE?$AAr?$AAr?$AAo?$AAr?$AA?5?$AAi?$AAn?$AA?5?$AAM?$AAa?$AAc?$AAr?$AAo?$AA?4@ 0000000180033d70     ConEmuPlugin1900.obj
 0002:00000ea0       ??_C@_1OK@GOJADEAC@?$AAE?$AAr?$AAr?$AAo?$AAr?$AA?5?$AAi?$AAn?$AA?5?$AAM?$AAa?$AAc?$AAr?$AAo?$AA?4@ 0000000180033ea0     ConEmuPlugin1900.obj
 0002:00000f90       ??_C@_0BF@MFOIGNA@BackgroundMacroError@ 0000000180033f90     ConEmuPlugin1900.obj
 0002:00000fa8       ??_C@_1BI@EKLHEFDO@?$AAS?$AAh?$AAo?$AAw?$AAM?$AAe?$AAn?$AAu?$AAB?$AAa?$AAr@ 0000000180033fa8     ConEmuPlugin1900.obj
 0002:00000fc0       ??_C@_1O@PDEOIOBG@?$AAK?$AAe?$AAy?$AAB?$AAa?$AAr@ 0000000180033fc0     ConEmuPlugin1900.obj
 0002:00000fd0       ??_C@_1BK@MBFACEDG@?$AAC?$AAo?$AAl?$AAu?$AAm?$AAn?$AAT?$AAi?$AAt?$AAl?$AAe?$AAs@ 0000000180033fd0     ConEmuPlugin1900.obj
 0002:00000ff0       ??_C@_1BG@MHMKAABO@?$AAS?$AAt?$AAa?$AAt?$AAu?$AAs?$AAL?$AAi?$AAn?$AAe@ 0000000180033ff0     ConEmuPlugin1900.obj
 0002:00001008       ??_C@_1BC@IALIJCAM@?$AAS?$AAo?$AAr?$AAt?$AAM?$AAo?$AAd?$AAe@ 0000000180034008     ConEmuPlugin1900.obj
 0002:00001020       ??_C@_1BK@BKCACCAI@?$AAW?$AAT?$AAY?$AAP?$AAE?$AA_?$AAP?$AAA?$AAN?$AAE?$AAL?$AAS@ 0000000180034020     ConEmuPlugin1900.obj
 0002:00001040       ??_C@_1BK@LNCDOEEM@?$AAW?$AAT?$AAY?$AAP?$AAE?$AA_?$AAV?$AAI?$AAE?$AAW?$AAE?$AAR@ 0000000180034040     ConEmuPlugin1900.obj
 0002:00001060       ??_C@_1BK@MHHDIBO@?$AAW?$AAT?$AAY?$AAP?$AAE?$AA_?$AAE?$AAD?$AAI?$AAT?$AAO?$AAR@ 0000000180034060     ConEmuPlugin1900.obj
 0002:00001080       ??_C@_1BK@NEJJBFEB@?$AAW?$AAT?$AAY?$AAP?$AAE?$AA_?$AAD?$AAI?$AAA?$AAL?$AAO?$AAG@ 0000000180034080     ConEmuPlugin1900.obj
 0002:000010a0       ??_C@_1BI@IHGDMIGH@?$AAW?$AAT?$AAY?$AAP?$AAE?$AA_?$AAV?$AAM?$AAE?$AAN?$AAU@ 00000001800340a0     ConEmuPlugin1900.obj
 0002:000010b8       ??_C@_1BG@LKGDBHML@?$AAW?$AAT?$AAY?$AAP?$AAE?$AA_?$AAH?$AAE?$AAL?$AAP@ 00000001800340b8     ConEmuPlugin1900.obj
 0002:000010d0       ??_C@_1BA@LEPJIIOK@?$AAU?$AAn?$AAk?$AAn?$AAo?$AAw?$AAn@ 00000001800340d0     ConEmuPlugin1900.obj
 0002:000010e0       ??_C@_1CE@PEOBLGJK@?$AAC?$AAo?$AAn?$AAE?$AAm?$AAu?$AAM?$AAa?$AAc?$AAr?$AAo?$AAR?$AAe?$AAs?$AAu@ 00000001800340e0     ConEmuPlugin1900.obj
 0002:00001108       ??_C@_1BO@HNJMHBAE@?$AAC?$AAo?$AAn?$AAE?$AAm?$AAu?$AAG?$AAu?$AAi?$AAM?$AAa?$AAc?$AAr?$AAo@ 0000000180034108     ConEmuPlugin1900.obj
 0002:00001130       __xmm@00000000000000020000000500000000 0000000180034130     ConEmuPlugin1900.obj
 0002:00001140       __xmm@00000000000000040000000500000000 0000000180034140     ConEmuPlugin1900.obj
 0002:00001150       __xmm@00000000000000070000000000000007 0000000180034150     ConEmuPlugin1900.obj
 0002:00001160       __xmm@00000046000000030000000500000004 0000000180034160     ConEmuPlugin1900.obj
 0002:00001170       __xmm@00000046000000050000000500000004 0000000180034170     ConEmuPlugin1900.obj
 0002:00001180       __xmm@00000048000000010000000300000003 0000000180034180     ConEmuPlugin1900.obj
 0002:00001198       ??_7exception@std@@6B@     0000000180034198     ConEmuPlugin2800.obj
 0002:000011a8       ??_C@_0BC@EOODALEL@Unknown?5exception@ 00000001800341a8     ConEmuPlugin2800.obj
 0002:000011c8       ??_7bad_alloc@std@@6B@     00000001800341c8     ConEmuPlugin2800.obj
 0002:000011d8       ??_C@_0P@GHFPNOJB@bad?5allocation@ 00000001800341d8     ConEmuPlugin2800.obj
 0002:000011f0       ??_7CPluginW2800@@6B@      00000001800341f0     ConEmuPlugin2800.obj
 0002:00001318       ??_C@_1DO@JIOAOHCJ@?$AAC?$AAo?$AAn?$AAE?$AAm?$AAu?$AA?5?$AAs?$AAu?$AAp?$AAp?$AAo?$AAr?$AAt?$AA?5@ 0000000180034318     ConEmuPlugin2800.obj
 0002:00001358       ??_C@_1DE@DJEAMLPH@?$AAC?$AAo?$AAn?$AAE?$AAm?$AAu?$AA?4?$AAM?$AAa?$AAx?$AAi?$AAm?$AAu?$AAs?$AA5@ 0000000180034358     ConEmuPlugin2800.obj
 0002:00001390       ??_C@_17IOMHDNEC@?$AAf?$AAa?$AAr@ 0000000180034390     ConEmuPlugin2800.obj
 0002:00001398       ??_C@_1BK@DFKHOALC@?$AAE?$AAx?$AAi?$AAt?$AAF?$AAA?$AAR?$AAW?$AA2?$AA8?$AA0?$AA0@ 0000000180034398     ConEmuPlugin2800.obj
 0002:000013b8       ??_C@_1CI@KIFAPNHL@?$AAE?$AAx?$AAi?$AAt?$AAF?$AAA?$AAR?$AAW?$AA2?$AA8?$AA0?$AA0?$AA?5?$AA?9?$AA?5@ 00000001800343b8     ConEmuPlugin2800.obj
 0002:000013e0       ??_C@_1BCK@KGGLGNDM@?$AAE?$AAr?$AAr?$AAo?$AAr?$AA?5?$AAi?$AAn?$AA?5?$AAM?$AAa?$AAc?$AAr?$AAo?$AA?4@ 00000001800343e0     ConEmuPlugin2800.obj
 0002:00001510       ??_C@_1OK@MGLNOED@?$AAE?$AAr?$AAr?$AAo?$AAr?$AA?5?$AAi?$AAn?$AA?5?$AAM?$AAa?$AAc?$AAr?$AAo?$AA?4@ 0000000180034510     ConEmuPlugin2800.obj
 0002:00001600       ??_C@_0BA@FOIKENOD@vector?5too?5long@ 0000000180034600     ConEmuPlugin2800.obj
 0002:00001610       __xmm@00000000000000000000000000000002 0000000180034610     ConEmuPlugin2800.obj
 0002:00001620       __xmm@00000000000000000000000000000004 0000000180034620     ConEmuPlugin2800.obj
 0002:00001630       __xmm@00000000000000000000000000000007 0000000180034630     ConEmuPlugin2800.obj
 0002:00001640       __xmm@00000000000000460000000000000003 0000000180034640     ConEmuPlugin2800.obj
 0002:00001650       __xmm@00000000000000460000000000000005 0000000180034650     ConEmuPlugin2800.obj
 0002:00001660       __xmm@00000000000000480000000000000001 0000000180034660     ConEmuPlugin2800.obj
 0002:00001678       ??_7CPluginW995@@6B@       0000000180034678     ConEmuPlugin995.obj
 0002:000017a0       ??_C@_1BI@IBAPHBGL@?$AAE?$AAx?$AAi?$AAt?$AAF?$AAA?$AAR?$AAW?$AA9?$AA9?$AA5@ 00000001800347a0     ConEmuPlugin995.obj
 0002:000017b8       ??_C@_1CG@PKCNLDOL@?$AAE?$AAx?$AAi?$AAt?$AAF?$AAA?$AAR?$AAW?$AA9?$AA9?$AA5?$AA?5?$AA?9?$AA?5?$AAd@ 00000001800347b8     ConEmuPlugin995.obj
 0002:000017e0       __xmm@00000001000000000000000000000002 00000001800347e0     ConEmuPlugin995.obj
 0002:000017f0       __xmm@00000033000000010000000300000003 00000001800347f0     ConEmuPlugin995.obj
 0002:00001800       ??_C@_00CNPNBAHC@@         0000000180034800     ConEmuPluginA.obj
 0002:00001810       ??_7CPluginAnsi@@6B@       0000000180034810     ConEmuPluginA.obj
 0002:00001938       ??_C@_1O@BKFLFFPA@?$AAP?$AAl?$AAu?$AAg?$AAi?$AAn@ 0000000180034938     ConEmuPluginA.obj
 0002:00001948       ??_C@_06HGFNEGAJ@ConEmu@   0000000180034948     ConEmuPluginA.obj
 0002:00001950       ??_C@_0P@DFGMHJNG@ConEmuGuiMacro@ 0000000180034950     ConEmuPluginA.obj
 0002:00001968       ??_7CPluginBase@@6B@       0000000180034968     ConEmuPluginBase.obj
 0002:00001a90       ??_C@_13FPGAJAPJ@?$AA?2@   0000000180034a90     ConEmuPluginBase.obj
 0002:00001aa0       ??_C@_1FG@DPPGENBC@?$AAL?$AAo?$AAa?$AAd?$AAA?$AAp?$AAp?$AAV?$AAe?$AAr?$AAs?$AAi?$AAo?$AAn?$AA?4@ 0000000180034aa0     ConEmuPluginBase.obj
 0002:00001b00       ??_C@_1FK@HILEEFML@?$AAL?$AAo?$AAa?$AAd?$AAA?$AAp?$AAp?$AAV?$AAe?$AAr?$AAs?$AAi?$AAo?$AAn?$AA?4@ 0000000180034b00     ConEmuPluginBase.obj
 0002:00001b60       ??_C@_1GC@BINFLBDC@?$AAL?$AAo?$AAa?$AAd?$AAA?$AAp?$AAp?$AAV?$AAe?$AAr?$AAs?$AAi?$AAo?$AAn?$AA?5@ 0000000180034b60     ConEmuPluginBase.obj
 0002:00001bd0       ??_C@_1GC@CPPHDKJK@?$AAL?$AAo?$AAa?$AAd?$AAA?$AAp?$AAp?$AAV?$AAe?$AAr?$AAs?$AAi?$AAo?$AAn?$AA?4@ 0000000180034bd0     ConEmuPluginBase.obj
 0002:00001c40       ??_C@_1EG@IINOBDEG@?$AAI?$AAn?$AAv?$AAa?$AAl?$AAi?$AAd?$AA?5?$AAa?$AAs?$AAM?$AAo?$AAd?$AAu?$AAl@ 0000000180034c40     ConEmuPluginBase.obj
 0002:00001c88       ??_C@_1CA@GGFPMHLH@?$AA?6?$AAE?$AAr?$AAr?$AAC?$AAo?$AAd?$AAe?$AA?$DN?$AA0?$AAx?$AA?$CF?$AA0?$AA8?$AAX@ 0000000180034c88     ConEmuPluginBase.obj
 0002:00001cb0       ??_C@_1FG@LNADFPCE@?$AAL?$AAo?$AAa?$AAd?$AAF?$AAa?$AAr?$AAV?$AAe?$AAr?$AAs?$AAi?$AAo?$AAn?$AA?4@ 0000000180034cb0     ConEmuPluginBase.obj
 0002:00001d08       ??_C@_0BP@OODKCJPP@Wow64DisableWow64FsRedirection@ 0000000180034d08     ConEmuPluginBase.obj
 0002:00001d28       ??_C@_0BO@KOCOEJCM@Wow64RevertWow64FsRedirection@ 0000000180034d28     ConEmuPluginBase.obj
 0002:00001d48       ??_C@_1BO@ONHPLONP@?$AAC?$AAo?$AAn?$AAE?$AAm?$AAu?$AA?4?$AAx?$AA6?$AA4?$AA?4?$AAd?$AAl?$AAl@ 0000000180034d48     ConEmuPluginBase.obj
 0002:00001d70       ??_C@_1IA@EGLJCBKE@?$AAS?$AAy?$AAn?$AAc?$AAh?$AAo?$AA?5?$AAe?$AAv?$AAe?$AAn?$AAt?$AAs?$AA?5?$AAa@ 0000000180034d70     ConEmuPluginBase.obj
 0002:00001df0       ??_C@_1BG@NBIHKCLP@?$AAC?$AAo?$AAn?$AAE?$AAm?$AAu?$AA?4?$AAd?$AAl?$AAl@ 0000000180034df0     ConEmuPluginBase.obj
 0002:00001e08       ??_C@_13LBAGMAIH@?$AA?6@   0000000180034e08     ConEmuPluginBase.obj
 0002:00001e10       ??_C@_1PO@CKPDODMD@?$AAS?$AAe?$AAv?$AAe?$AAr?$AAa?$AAl?$AA?5?$AAi?$AAn?$AAs?$AAt?$AAa?$AAn?$AAc@ 0000000180034e10     ConEmuPluginBase.obj
 0002:00001f10       ??_C@_13IMODFHAA@?$AA?9@   0000000180034f10     ConEmuPluginBase.obj
 0002:00001f20       ??_C@_1FI@CBKBKFFI@?$AAC?$AAo?$AAn?$AAE?$AAm?$AAu?$AA?5?$AAp?$AAl?$AAu?$AAg?$AAi?$AAn?$AA?5?$AA?$CF@ 0000000180034f20     ConEmuPluginBase.obj
 0002:00001f78       ??_C@_1BG@DILNIJHK@?$AA?$DM?$AAM?$AAs?$AAg?$AAI?$AAD?$AA?$DN?$AA?$CF?$AAi?$AA?$DO@ 0000000180034f78     ConEmuPluginBase.obj
 0002:00001f90       ??_C@_1PO@DJAPICLP@?$AA$?$AAi?$AAf?$AA?5?$AA?$CI?$AA?$CB?$AAE?$AAd?$AAi?$AAt?$AAo?$AAr?$AA?5?$AA?$CG?$AA?$CG@ 0000000180034f90     ConEmuPluginBase.obj
 0002:00002090       ??_C@_1EK@LJEKIKEG@?$AA4?$AAb?$AA6?$AA7?$AA5?$AAd?$AA8?$AA0?$AA?9?$AA1?$AAd?$AA4?$AAa?$AA?9?$AA4@ 0000000180035090     ConEmuPluginBase.obj
 0002:000020e0       ??_C@_1BBO@FBOKPEBF@?$AA$?$AAi?$AAf?$AA?5?$AA?$CI?$AAA?$AAP?$AAa?$AAn?$AAe?$AAl?$AA?4?$AAP?$AAl?$AAu@ 00000001800350e0     ConEmuPluginBase.obj
 0002:00002200       ??_C@_1LO@GJMEBJHL@?$AAP?$AAl?$AAu?$AAg?$AAi?$AAn?$AA?4?$AAC?$AAa?$AAl?$AAl?$AA?$CI?$AA?$CC?$AA?$CF?$AAs@ 0000000180035200     ConEmuPluginBase.obj
 0002:000022c0       ??_C@_1BA@CMKDJLHG@?$AA?$HN?$AA?5?$AA?9?$AA?5?$AAF?$AAa?$AAr@ 00000001800352c0     ConEmuPluginBase.obj
 0002:000022d0       ??_C@_17MEJHPLBO@?$AAc?$AAm?$AAd@ 00000001800352d0     ConEmuPluginBase.obj
 0002:000022d8       ??_C@_1CK@KEKIDABI@?$AAC?$AAo?$AAn?$AAE?$AAm?$AAu?$AA?4?$AAC?$AAr?$AAe?$AAa?$AAt?$AAe?$AAP?$AAr@ 00000001800352d8     ConEmuPluginBase.obj
 0002:00002308       ??_C@_1CM@MHCEHIEP@?$AAS?$AAt?$AAa?$AAr?$AAt?$AA?5?$AAc?$AAo?$AAn?$AAs?$AAo?$AAl?$AAe?$AA?5?$AAp@ 0000000180035308     ConEmuPluginBase.obj
 0002:00002338       ??_C@_17BJPFHBEJ@?$AAC?$AA?3?$AA?2@ 0000000180035338     ConEmuPluginBase.obj
 0002:00002340       ??_C@_1BK@NEALEMPH@?$AA?9?$AAn?$AAe?$AAw?$AA_?$AAc?$AAo?$AAn?$AAs?$AAo?$AAl?$AAe@ 0000000180035340     ConEmuPluginBase.obj
 0002:00002360       ??_C@_19KHBBCLDH@?$AAr?$AAu?$AAn?$AA?3@ 0000000180035360     ConEmuPluginBase.obj
 0002:0000236c       ??_C@_13DANNHAJN@?$AAV@    000000018003536c     ConEmuPluginBase.obj
 0002:00002370       ??_C@_13IABLFADB@?$AAH@    0000000180035370     ConEmuPluginBase.obj
 0002:00002378       ??_C@_17PBAHFJOA@?$AAY?$AAe?$AAs@ 0000000180035378     ConEmuPluginBase.obj
 0002:00002380       ??_C@_15BICKNCBF@?$AAN?$AAo@ 0000000180035380     ConEmuPluginBase.obj
 0002:00002390       ??_C@_1BPK@LEDPNENO@?$AAC?$AAo?$AAn?$AAE?$AAm?$AAu?$AA?5?$AAC?$AAo?$AAn?$AAs?$AAo?$AAl?$AAe?$AA?5@ 0000000180035390     ConEmuPluginBase.obj
 0002:00002590       ??_C@_1BM@MGPNCPCE@?$AAC?$AAo?$AAn?$AAE?$AAm?$AAu?$AAB?$AAa?$AAs?$AAe?$AAD?$AAi?$AAr@ 0000000180035590     ConEmuPluginBase.obj
 0002:000025b0       ??_C@_1BK@PCAIPEAH@?$AA?2?$AAC?$AAo?$AAn?$AAE?$AAm?$AAu?$AAC?$AA?4?$AAe?$AAx?$AAe@ 00000001800355b0     ConEmuPluginBase.obj
 0002:000025d0       ??_C@_1CI@DIEJPMOK@?$AA?2?$AAC?$AAo?$AAn?$AAE?$AAm?$AAu?$AA?2?$AAC?$AAo?$AAn?$AAE?$AAm?$AAu?$AAC@ 00000001800355d0     ConEmuPluginBase.obj
 0002:00002600       ??_C@_1HE@BLMGMKID@?$AA?$CC?$AA?$CF?$AAs?$AA?$CC?$AA?5?$AA?1?$AAA?$AAT?$AAT?$AAA?$AAC?$AAH?$AA?5?$AA?1?$AAR@ 0000000180035600     ConEmuPluginBase.obj
 0002:00002680       ??_C@_1EO@CCMHHKOG@?$AA?$CC?$AA?$CF?$AAs?$AA?$CC?$AA?5?$AA?1?$AAD?$AAE?$AAB?$AAU?$AAG?$AAP?$AAI?$AAD?$AA?$DN@ 0000000180035680     ConEmuPluginBase.obj
 0002:000026d0       ??_C@_1CA@CIILNAEN@?$AA?2?$AAC?$AAo?$AAn?$AAE?$AAm?$AAu?$AAH?$AAk?$AA6?$AA4?$AA?4?$AAd?$AAl?$AAl@ 00000001800356d0     ConEmuPluginBase.obj
 0002:000026f0       ??_C@_1BM@DIGKKBBA@?$AAC?$AAo?$AAn?$AAE?$AAm?$AAu?$AAC?$AA6?$AA4?$AA?4?$AAe?$AAx?$AAe@ 00000001800356f0     ConEmuPluginBase.obj
 0002:00002710       ??_C@_1BI@OPBAAHCM@?$AAC?$AAo?$AAn?$AAE?$AAm?$AAu?$AAC?$AA?4?$AAe?$AAx?$AAe@ 0000000180035710     ConEmuPluginBase.obj
 0002:00002728       ??_C@_1BE@FFPCKGKG@?$AA?1?$AAC?$AAO?$AAN?$AAF?$AAI?$AAR?$AAM?$AA?5@ 0000000180035728     ConEmuPluginBase.obj
 0002:00002740       ??_C@_1DA@LLHOBAFM@?$AA?$CC?$AA?5?$AA?1?$AAA?$AAT?$AAT?$AAA?$AAC?$AAH?$AA?5?$AA?1?$AAF?$AAA?$AAR?$AAP@ 0000000180035740     ConEmuPluginBase.obj
 0002:00002770       ??_C@_1BA@JLPJLFMH@?$AA?1?$AAG?$AAI?$AAD?$AA?$DN?$AA?$CF?$AAi@ 0000000180035770     ConEmuPluginBase.obj
 0002:00002780       ??_C@_1CI@EIEAGHGL@?$AAC?$AAo?$AAn?$AAE?$AAm?$AAu?$AAS?$AAr?$AAv?$AAS?$AAt?$AAa?$AAr?$AAt?$AAe@ 0000000180035780     ConEmuPluginBase.obj
 0002:000027a8       ??_C@_0BD@DHBGKFD@RequestLocalServer@ 00000001800357a8     ConEmuPluginBase.obj
 0002:000027c0       ??_C@_17LCEPOKH@?$AAC?$AAE?$AAM@ 00000001800357c0     ConEmuPluginBase.obj
 0002:000027c8       ??_C@_19LKKOIHJI@?$AA?4?$AAt?$AAm?$AAp@ 00000001800357c8     ConEmuPluginBase.obj
 0002:000027e0       ??_C@_1BFI@CAKBMDAF@?$AAW?$AAr?$AAo?$AAn?$AAg?$AA?5?$AAp?$AAl?$AAu?$AAg?$AAi?$AAn?$AA?5?$AAv?$AAe@ 00000001800357e0     ConEmuPluginBase.obj
 0002:00002938       ??_C@_1BA@DAHNNHGF@?$AAF?$AAA?$AAR?$AAL?$AAA?$AAN?$AAG@ 0000000180035938     ConEmuPluginBase.obj
 0002:00002950       ??_C@_1EA@BFFHMENH@?$AAC?$AAo?$AAn?$AAE?$AAm?$AAu?$AAC?$AA?3?$AA?5?$AAC?$AAh?$AAe?$AAc?$AAk?$AAR@ 0000000180035950     ConEmuPluginBase.obj
 0002:00002990       ??_C@_19LELMJPKF@?$AAe?$AAd?$AAi?$AAt@ 0000000180035990     ConEmuPluginBase.obj
 0002:000029a0       ??_C@_19IGFHNPAK@?$AAv?$AAi?$AAe?$AAw@ 00000001800359a0     ConEmuPluginBase.obj
 0002:000029b0       ??_C@_1CC@IHNECLD@?$AA?$HL?$AAT?$AAe?$AAm?$AAp?$AAo?$AAr?$AAa?$AAr?$AAy?$AA?5?$AAp?$AAa?$AAn?$AAe@ 00000001800359b0     ConEmuPluginBase.obj
 0002:000029d8       ??_C@_1CO@ELKEEMPJ@?$AAC?$AAo?$AAn?$AAE?$AAm?$AAu?$AAF?$AAi?$AAl?$AAe?$AAM?$AAa?$AAp?$AAp?$AAi@ 00000001800359d8     ConEmuPluginBase.obj
 0002:00002a08       ??_C@_1BI@ENONIIIC@?$AAF?$AAa?$AAr?$AA?5?$AAM?$AAa?$AAn?$AAa?$AAg?$AAe?$AAr@ 0000000180035a08     ConEmuPluginBase.obj
 0002:00002a20       ??_C@_19HBICLLML@?$AAF?$AAA?$AAR?$AA2@ 0000000180035a20     ConEmuPluginBase.obj
 0002:00002a30       ??_C@_17NACPPFBM@?$AAF?$AAA?$AAR@ 0000000180035a30     ConEmuPluginBase.obj
 0002:00002a38       ??_C@_1BA@NIFIBMHP@?$AAF?$AAA?$AAR?$AAU?$AAS?$AAE?$AAR@ 0000000180035a38     ConEmuPluginBase.obj
 0002:00002a48       ??_C@_1BA@FJJFMPFO@?$AA?2?$AAU?$AAs?$AAe?$AAr?$AAs?$AA?2@ 0000000180035a48     ConEmuPluginBase.obj
 0002:00002a58       ??_C@_1BE@FLHKCJKF@?$AAS?$AAo?$AAf?$AAt?$AAw?$AAa?$AAr?$AAe?$AA?2@ 0000000180035a58     ConEmuPluginBase.obj
 0002:00002a70       ??_C@_1CG@HOMCPCN@?$AA?2?$AAP?$AAl?$AAu?$AAg?$AAi?$AAn?$AAs?$AA?2?$AAP?$AAa?$AAn?$AAe?$AAl?$AAT@ 0000000180035a70     ConEmuPluginBase.obj
 0002:00002a98       ??_C@_1BK@NFAPLMGI@?$AAS?$AAe?$AAp?$AAa?$AAr?$AAa?$AAt?$AAe?$AAT?$AAa?$AAb?$AAs@ 0000000180035a98     ConEmuPluginBase.obj
 0002:00002ab8       ??_C@_1BI@GILFJGEK@?$AAB?$AAu?$AAt?$AAt?$AAo?$AAn?$AAC?$AAo?$AAl?$AAo?$AAr@ 0000000180035ab8     ConEmuPluginBase.obj
 0002:00002ad0       ??_C@_1DE@DBNFJOHM@?$AAC?$AAo?$AAn?$AAs?$AAo?$AAl?$AAe?$AA2?$AA_?$AAc?$AAo?$AAn?$AAs?$AAo?$AAl@ 0000000180035ad0     ConEmuPluginBase.obj
 0002:00002b08       ??_C@_1CK@EANOIBDN@?$AAC?$AAo?$AAn?$AAE?$AAm?$AAu?$AAC?$AAt?$AAr?$AAl?$AAP?$AAr?$AAe?$AAs?$AAs@ 0000000180035b08     ConEmuPluginBase.obj
 0002:00002b38       ??_C@_1CM@JBFABNEO@?$AAC?$AAo?$AAn?$AAE?$AAm?$AAu?$AAS?$AAh?$AAi?$AAf?$AAt?$AAP?$AAr?$AAe?$AAs@ 0000000180035b38     ConEmuPluginBase.obj
 0002:00002b68       ??_C@_1CE@DLFCKCF@?$AAC?$AAo?$AAn?$AAE?$AAm?$AAu?$AAT?$AAa?$AAb?$AAs?$AAC?$AAh?$AAa?$AAn?$AAg@ 0000000180035b68     ConEmuPluginBase.obj
 0002:00002b90       ??_C@_0BG@HFNJBNKJ@Plugin?3?3MonitorThread@ 0000000180035b90     ConEmuPluginBase.obj
 0002:00002ba8       ??_C@_1BG@OILDLIOJ@?$AAu?$AAs?$AAe?$AAr?$AA3?$AA2?$AA?4?$AAd?$AAl?$AAl@ 0000000180035ba8     ConEmuPluginBase.obj
 0002:00002bc0       ??_C@_0BJ@GFJHAGKD@AllowSetForegroundWindow@ 0000000180035bc0     ConEmuPluginBase.obj
 0002:00002be0       ??_C@_1BO@KPCFCPEP@?$AAC?$AAo?$AAn?$AAE?$AAm?$AAu?$AAC?$AAD?$AA6?$AA4?$AA?4?$AAd?$AAl?$AAl@ 0000000180035be0     ConEmuPluginBase.obj
 0002:00002c00       ??_C@_1HO@CHHOFADM@?$AAC?$AAo?$AAn?$AAs?$AAo?$AAl?$AAe?$AA?5?$AAw?$AAa?$AAs?$AA?5?$AAa?$AAb?$AAn@ 0000000180035c00     ConEmuPluginBase.obj
 0002:00002c80       ??_C@_1NC@MNABBPPB@?$AA$?$AAi?$AAf?$AA?5?$AA?$CI?$AAS?$AAe?$AAa?$AAr?$AAc?$AAh?$AA?$CJ?$AA?5?$AAE?$AAs@ 0000000180035c80     ConEmuPluginBase.obj
 0002:00002d60       ??_C@_1MK@EDFFIGHJ@?$AA$?$AAi?$AAf?$AA?5?$AA?$CI?$AAS?$AAe?$AAa?$AAr?$AAc?$AAh?$AA?$CJ?$AA?5?$AAE?$AAs@ 0000000180035d60     ConEmuPluginBase.obj
 0002:00002e30       ??_C@_1BBA@LKLGFJB@?$AAi?$AAf?$AA?5?$AAA?$AAr?$AAe?$AAa?$AA?4?$AAS?$AAe?$AAa?$AAr?$AAc?$AAh?$AA?5@ 0000000180035e30     ConEmuPluginBase.obj
 0002:00002f40       ??_C@_0P@LNKHCDND@OnConEmuLoaded@ 0000000180035f40     ConEmuPluginBase.obj
 0002:00002f50       ??_C@_0BA@IDLLFCLM@SetStartupInfoW@ 0000000180035f50     ConEmuPluginBase.obj
 0002:00002f60       ??_C@_0P@JNNILPEA@SetStartupInfo@ 0000000180035f60     ConEmuPluginBase.obj
 0002:00002f70       ??_C@_0FI@CMDDEBEE@C?3?2Users?2Maksim?4Moisiuk?2Documen@ 0000000180035f70     ConEmuPluginBase.obj
 0002:00002fc8       ??_C@_1BC@GNOFNJJG@?$AAM?$AAs?$AAL?$AAC?$AAl?$AAi?$AAc?$AAk@ 0000000180035fc8     ConEmuPluginBase.obj
 0002:00002fe0       ??_C@_1CC@DFJIOIPL@?$AAK?$AAe?$AAy?$AAs?$AA?$CI?$AA?8?$AAM?$AAs?$AAL?$AAC?$AAl?$AAi?$AAc?$AAk?$AA?8@ 0000000180035fe0     ConEmuPluginBase.obj
 0002:00003008       ??_C@_1CM@IICFOBPI@?$AA$?$AAi?$AAf?$AA?5?$AA?$CI?$AAS?$AAe?$AAa?$AAr?$AAc?$AAh?$AA?$CJ?$AA?5?$AAE?$AAs@ 0000000180036008     ConEmuPluginBase.obj
 0002:00003038       ??_C@_1DO@LEFBPADB@?$AAi?$AAf?$AA?5?$AAA?$AAr?$AAe?$AAa?$AA?4?$AAS?$AAe?$AAa?$AAr?$AAc?$AAh?$AA?5@ 0000000180036038     ConEmuPluginBase.obj
 0002:00003080       ??_C@_1CCO@OMFPMNEO@?$AA?$EA?$AAi?$AAf?$AA?5?$AAn?$AAo?$AAt?$AA?5?$AAC?$AAm?$AAd?$AAL?$AAi?$AAn?$AAe@ 0000000180036080     ConEmuPluginBase.obj
 0002:000032b0       ??_C@_1CAM@BBLMGMFK@?$AA?$EA?$AA$?$AAI?$AAf?$AA?5?$AA?$CI?$AA?$CB?$AAC?$AAm?$AAd?$AAL?$AAi?$AAn?$AAe?$AA?4@ 00000001800362b0     ConEmuPluginBase.obj
 0002:000034c0       ??_C@_1CG@OILEFJJN@?$AAC?$AAo?$AAn?$AAE?$AAm?$AAu?$AAT?$AAh?$AA?3?$AA?3?$AAS?$AAe?$AAt?$AAt?$AAi@ 00000001800364c0     ConEmuPluginBase.obj
 0002:000034e8       ??_C@_1CI@MBMLEGFG@?$AAC?$AAo?$AAn?$AAE?$AAm?$AAu?$AAF?$AAa?$AAr?$AAM?$AAa?$AAp?$AAp?$AAi?$AAn@ 00000001800364e8     ConEmuPluginBase.obj
 0002:00003510       ??_C@_1CO@INAJPHBH@?$AAC?$AAo?$AAn?$AAE?$AAm?$AAu?$AAF?$AAa?$AAr?$AAA?$AAl?$AAi?$AAv?$AAe?$AAE@ 0000000180036510     ConEmuPluginBase.obj
 0002:00003540       ??_C@_1BE@GLIABAAK@?$AA?$EA?$AA?$FO?$AA$?$AAT?$AAE?$AAX?$AAT?$AA?5?$AA?$CC@ 0000000180036540     ConEmuPluginBase.obj
 0002:00003558       ??_C@_1BE@CPLNCDLK@?$AA?$EA?$AA?$FO?$AAp?$AAr?$AAi?$AAn?$AAt?$AA?$CI?$AA?$CC@ 0000000180036558     ConEmuPluginBase.obj
 0002:0000356c       ??_C@_13NEIAEHFG@?$AA?$CC@ 000000018003656c     ConEmuPluginBase.obj
 0002:00003570       ??_C@_15NJGDBKNF@?$AA?$CC?$AA?$CJ@ 0000000180036570     ConEmuPluginBase.obj
 0002:00003580       ??_C@_1GK@OGACKIKJ@?$AAI?$AAn?$AAt?$AAe?$AAr?$AAn?$AAa?$AAl?$AA?5?$AAe?$AAr?$AAr?$AAo?$AAr?$AA?4@ 0000000180036580     ConEmuPluginBase.obj
 0002:000035f0       ??_C@_1O@KBENBEFG@?$AAc?$AAr?$AAe?$AAa?$AAt?$AAe@ 00000001800365f0     ConEmuPluginBase.obj
 0002:00003600       ??_C@_19BDAJEHDN@?$AAo?$AAp?$AAe?$AAn@ 0000000180036600     ConEmuPluginBase.obj
 0002:00003610       ??_C@_1GM@LGOLGABE@?$AAC?$AAa?$AAn?$AA?8?$AAt?$AA?5?$AA?$CF?$AAs?$AA?5?$AAc?$AAo?$AAn?$AAs?$AAo?$AAl@ 0000000180036610     ConEmuPluginBase.obj
 0002:00003680       ??_C@_1BE@HADLJAO@?$AAR?$AAe?$AAa?$AAd?$AAW?$AAr?$AAi?$AAt?$AAe@ 0000000180036680     ConEmuPluginBase.obj
 0002:00003698       ??_C@_19EOHDNDII@?$AAR?$AAe?$AAa?$AAd@ 0000000180036698     ConEmuPluginBase.obj
 0002:000036b0       ??_C@_1FO@BGAPBIGG@?$AAC?$AAa?$AAn?$AA?8?$AAt?$AA?5?$AAm?$AAa?$AAp?$AA?5?$AAc?$AAo?$AAn?$AAs?$AAo@ 00000001800366b0     ConEmuPluginBase.obj
 0002:00003710       ??_C@_1II@OIMPCJAG@?$AAC?$AAa?$AAn?$AA?8?$AAt?$AA?5?$AAm?$AAa?$AAp?$AA?5?$AAc?$AAo?$AAn?$AAs?$AAo@ 0000000180036710     ConEmuPluginBase.obj
 0002:000037a0       ??_C@_1JM@IDPBKCIF@?$AAC?$AAa?$AAn?$AA?8?$AAt?$AA?5?$AAm?$AAa?$AAp?$AA?5?$AAc?$AAo?$AAn?$AAs?$AAo@ 00000001800367a0     ConEmuPluginBase.obj
 0002:00003840       ??_C@_1DA@OEIAGFIH@?$AAC?$AAo?$AAn?$AAE?$AAm?$AAu?$AA?$AA?$AAF?$AAa?$AAr?$AA?5?$AAB?$AAa?$AAc?$AAk@ 0000000180036840     PluginBackground.obj
 0002:00003870       ??_C@_1DA@BMIFHIMF@?$AAC?$AAo?$AAn?$AAE?$AAm?$AAu?$AAV?$AAi?$AAe?$AAw?$AAS?$AAe?$AAt?$AAM?$AAa@ 0000000180036870     PluginBackground.obj
 0002:000038a0       ??_C@_1GA@OEMDGAOF@?$AAI?$AAn?$AAt?$AAe?$AAr?$AAn?$AAa?$AAl?$AA?5?$AAe?$AAr?$AAr?$AAo?$AAr?$AA?4@ 00000001800368a0     PluginBackground.obj
 0002:00003900       ??_C@_13JOFGPIOO@?$AA?4@   0000000180036900     PluginSrv.obj
 0002:00003908       ??_C@_1DC@PFNEMDKA@?$AA?2?$AA?2?$AA?$CF?$AAs?$AA?2?$AAp?$AAi?$AAp?$AAe?$AA?2?$AAC?$AAo?$AAn?$AAE?$AAm@ 0000000180036908     PluginSrv.obj
 0002:00003940       ??_C@_19HGGOABND@?$AA?$CF?$AA0?$AA8?$AAx@ 0000000180036940     PluginSrv.obj
 0002:00003950       ??_C@_1FM@LPOPCJG@?$AAS?$AAt?$AAa?$AAr?$AAt?$AAP?$AAi?$AAp?$AAe?$AAS?$AAe?$AAr?$AAv?$AAe?$AAr@ 0000000180036950     PluginSrv.obj
 0002:000039b0       ??_C@_0EK@DNKFANMG@C?3?2Users?2Maksim?4Moisiuk?2Documen@ 00000001800369b0     PluginSrv.obj
 0002:00003a00       ??_C@_1GC@MCEAIMAO@?$AAS?$AAt?$AAa?$AAr?$AAt?$AAP?$AAi?$AAp?$AAe?$AAI?$AAn?$AAs?$AAt?$AAa?$AAn@ 0000000180036a00     PluginSrv.obj
 0002:00003a68       ??_C@_0BB@MDGFLNIP@PipeServerThread@ 0000000180036a68     PluginSrv.obj
 0002:00003a80       ??_C@_1GG@PAGGIEEF@?$AAS?$AAt?$AAa?$AAr?$AAt?$AAP?$AAi?$AAp?$AAe?$AAI?$AAn?$AAs?$AAt?$AAa?$AAn@ 0000000180036a80     PluginSrv.obj
 0002:00003ae8       ??_C@_1M@KGONCMNM@?$AA?$CF?$AAs?$AA?6?$AA?$CF?$AAs@ 0000000180036ae8     PluginSrv.obj
 0002:00003b00       ??_C@_1EA@JFONKNJK@?$AAP?$AAi?$AAp?$AAe?$AAS?$AAe?$AAr?$AAv?$AAe?$AAr?$AAE?$AAr?$AAr?$AAo?$AAr@ 0000000180036b00     PluginSrv.obj
 0002:00003b40       ??_C@_1FG@DJFPBHJF@?$AAP?$AAi?$AAp?$AAe?$AAS?$AAe?$AAr?$AAv?$AAe?$AAr?$AAE?$AAr?$AAr?$AAo?$AAr@ 0000000180036b40     PluginSrv.obj
 0002:00003ba0       ??_C@_1GK@OLPCHMBE@?$AAP?$AAi?$AAp?$AAe?$AAS?$AAe?$AAr?$AAv?$AAe?$AAr?$AAT?$AAh?$AAr?$AAe?$AAa@ 0000000180036ba0     PluginSrv.obj
 0002:00003c10       ??_C@_1HA@EGHGJDPG@?$AAP?$AAi?$AAp?$AAe?$AAS?$AAe?$AAr?$AAv?$AAe?$AAr?$AAT?$AAh?$AAr?$AAe?$AAa@ 0000000180036c10     PluginSrv.obj
 0002:00003c80       ??_C@_1HG@LHMKOAMG@?$AAP?$AAi?$AAp?$AAe?$AAS?$AAe?$AAr?$AAv?$AAe?$AAr?$AAT?$AAh?$AAr?$AAe?$AAa@ 0000000180036c80     PluginSrv.obj
 0002:00003d00       ??_C@_1EM@INHGIPLC@?$AA?$CF?$AAs?$AA?4?$AA?$CF?$AAu?$AA?3?$AA?5?$AAC?$AAr?$AAe?$AAa?$AAt?$AAe?$AAF?$AAi@ 0000000180036d00     common-kernel64:ConEmuCheck.obj
 0002:00003d50       ??_C@_1DA@LCPELGGN@?$AAC?$AAo?$AAn?$AAE?$AAm?$AAu?$AAG?$AAu?$AAi?$AAI?$AAn?$AAf?$AAo?$AAM?$AAa@ 0000000180036d50     common-kernel64:ConEmuCheck.obj
 0002:00003d80       ??_C@_1DC@MJLCOFMA@?$AA?2?$AA?2?$AA?$CF?$AAs?$AA?2?$AAp?$AAi?$AAp?$AAe?$AA?2?$AAC?$AAo?$AAn?$AAE?$AAm@ 0000000180036d80     common-kernel64:ConEmuCheck.obj
 0002:00003db8       ??_C@_1CM@OPJKOFLA@?$AA?2?$AA?2?$AA?$CF?$AAs?$AA?2?$AAp?$AAi?$AAp?$AAe?$AA?2?$AAC?$AAo?$AAn?$AAE?$AAm@ 0000000180036db8     common-kernel64:ConEmuCheck.obj
 0002:00003de8       ??_C@_1CG@FFFCCLIF@?$AAC?$AAo?$AAn?$AAs?$AAo?$AAl?$AAe?$AAW?$AAi?$AAn?$AAd?$AAo?$AAw?$AAC?$AAl@ 0000000180036de8     common-kernel64:ConEmuCheck.obj
 0002:00003e10       ??_C@_1CC@LMJBOHFL@?$AAW?$AAi?$AAn?$AAe?$AAC?$AAo?$AAn?$AAs?$AAo?$AAl?$AAe?$AAC?$AAl?$AAa?$AAs@ 0000000180036e10     common-kernel64:ConEmuCheck.obj
 0002:00003e38       ??_C@_1BC@LMIJMNIA@?$AA0?$AA0?$AA0?$AA0?$AA0?$AA0?$AA0?$AA0@ 0000000180036e38     common-kernel64:MStrSafe.obj
 0002:00003e70       ??_C@_19DOGDICKI@?$AA?4?$AAe?$AAx?$AAe@ 0000000180036e70     common-kernel64:CmdLine.obj
 0002:00003e80       ??_C@_1BG@PIGCKNCG@?$AAC?$AAo?$AAn?$AAE?$AAm?$AAu?$AA?4?$AAe?$AAx?$AAe@ 0000000180036e80     common-kernel64:CmdLine.obj
 0002:00003e98       ??_C@_1BK@BNOCAHHB@?$AAC?$AAo?$AAn?$AAE?$AAm?$AAu?$AA6?$AA4?$AA?4?$AAe?$AAx?$AAe@ 0000000180036e98     common-kernel64:CmdLine.obj
 0002:00003eb4       ??_C@_05LCABBMOG@?$CFs?3?$CFi@ 0000000180036eb4     common-kernel64:WThreads.obj
 0002:00003ec0       ??_C@_19IJOJOJIB@?$AAP?$AAA?$AAT?$AAH@ 0000000180036ec0     common-kernel64:EnvVar.obj
 0002:00003ed0       ??_C@_1BO@HJHEFHMO@?$AAK?$AAe?$AAr?$AAn?$AAe?$AAl?$AAB?$AAa?$AAs?$AAe?$AA?4?$AAd?$AAl?$AAl@ 0000000180036ed0     common-kernel64:MSecurity.obj
 0002:00003ef0       ??_C@_1BK@BIGILECK@?$AAA?$AAd?$AAv?$AAa?$AAp?$AAi?$AA3?$AA2?$AA?4?$AAd?$AAl?$AAl@ 0000000180036ef0     common-kernel64:MSecurity.obj
 0002:00003f10       ??_C@_0BE@IPKPLIM@AddAccessAllowedAce@ 0000000180036f10     common-kernel64:MSecurity.obj
 0002:00003f28       ??_C@_0BD@EIGAJLOG@AddAccessDeniedAce@ 0000000180036f28     common-kernel64:MSecurity.obj
 0002:00003f40       ??_C@_0BJ@ECIKFEOL@AllocateAndInitializeSid@ 0000000180036f40     common-kernel64:MSecurity.obj
 0002:00003f60       ??_C@_0N@HBKDHKNL@GetLengthSid@ 0000000180036f60     common-kernel64:MSecurity.obj
 0002:00003f70       ??_C@_0O@GKCEJBAA@InitializeAcl@ 0000000180036f70     common-kernel64:MSecurity.obj
 0002:00003f80       ??_C@_0BN@FNLANPJJ@InitializeSecurityDescriptor@ 0000000180036f80     common-kernel64:MSecurity.obj
 0002:00003fa0       ??_C@_0BK@DNNLOFO@SetSecurityDescriptorDacl@ 0000000180036fa0     common-kernel64:MSecurity.obj
 0002:00003fc8       ??_7exception@stdext@@6B@  0000000180036fc8     common-kernel64:CEStr.obj
 0002:00003fe0       ??_C@_0BC@BDKFLDHL@unknown?5exception@ 0000000180036fe0     common-kernel64:CEStr.obj
 0002:00004000       ??_7bad_alloc@stdext@@6B@  0000000180037000     common-kernel64:CEStr.obj
 0002:00004020       ??_C@_1BE@GJOFHIHD@?$AAn?$AAt?$AAd?$AAl?$AAl?$AA?4?$AAd?$AAl?$AAl@ 0000000180037020     common-kernel64:WObjects.obj
 0002:00004038       ??_C@_0BF@LOGLPPDD@RtlVerifyVersionInfo@ 0000000180037038     common-kernel64:WObjects.obj
 0002:00004050       ??_C@_1BA@PHJPMKEE@?$AAC?$AAo?$AAm?$AAS?$AAp?$AAe?$AAc@ 0000000180037050     common-kernel64:WObjects.obj
 0002:00004068       ??_7?$_Func_impl_no_alloc@P6AHPEAX@ZXPEAX@std@@6B@ 0000000180037068     common-kernel64:WObjects.obj
 0002:00004098       ??_C@_0BD@HGJIAJJM@RequestTrampolines@ 0000000180037098     common-kernel64:HkFunc.obj
 0002:000040b8       ??_7?$MToolHelp@UtagPROCESSENTRY32W@@$1?Process32FirstW@@YAHPEAXPEAU1@@Z$1?Process32NextW@@YAH01@Z@@6B@ 00000001800370b8     common-kernel64:MProcess.obj
 0002:000040d0       ??_7MToolHelpProcess@@6B@  00000001800370d0     common-kernel64:MProcess.obj
 0002:000040e0       ??_C@_1BK@HHKNEJDC@?$AAt?$AAl?$AAn?$AAt?$AAs?$AAe?$AAs?$AAs?$AA?4?$AAe?$AAx?$AAe@ 00000001800370e0     common-kernel64:MProcess.obj
 0002:00004100       ??_C@_1BI@MPDCNJBA@?$AAt?$AAl?$AAn?$AAt?$AAs?$AAv?$AAr?$AA?4?$AAe?$AAx?$AAe@ 0000000180037100     common-kernel64:MProcess.obj
 0002:00004120       ??_7?$_Func_impl_no_alloc@V<lambda_217d18733db987cb8fc0adfd68028951>@@_NAEBUtagPROCESSENTRY32W@@@std@@6B@ 0000000180037120     common-kernel64:MProcess.obj
 0002:00004150       ??_C@_1O@GNPNAMOC@?$AA0?$AAx?$AA?$CF?$AA0?$AA8?$AAX@ 0000000180037150     common-user64:SetEnvVar.obj
 0002:00004160       ??_C@_1BG@CJNOKBPK@?$AAC?$AAo?$AAn?$AAE?$AAm?$AAu?$AAH?$AAW?$AAN?$AAD@ 0000000180037160     common-user64:SetEnvVar.obj
 0002:00004178       ??_C@_15EFLNJKHH@?$AA?$CF?$AAu@ 0000000180037178     common-user64:SetEnvVar.obj
 0002:00004180       ??_C@_1BE@GIIMEDBE@?$AAC?$AAo?$AAn?$AAE?$AAm?$AAu?$AAP?$AAI?$AAD@ 0000000180037180     common-user64:SetEnvVar.obj
 0002:00004198       ??_C@_1BO@BBOAAODE@?$AAC?$AAo?$AAn?$AAE?$AAm?$AAu?$AAD?$AAr?$AAa?$AAw?$AAH?$AAW?$AAN?$AAD@ 0000000180037198     common-user64:SetEnvVar.obj
 0002:000041b8       ??_C@_1BO@DIAPFMAN@?$AAC?$AAo?$AAn?$AAE?$AAm?$AAu?$AAB?$AAa?$AAc?$AAk?$AAH?$AAW?$AAN?$AAD@ 00000001800371b8     common-user64:SetEnvVar.obj
 0002:000041d8       ??_C@_1CI@PDOPFPLH@?$AAV?$AAi?$AAr?$AAt?$AAu?$AAa?$AAl?$AAC?$AAo?$AAn?$AAs?$AAo?$AAl?$AAe?$AAC@ 00000001800371d8     common-user64:ConEmuCheckEx.obj
 0002:00004200       ??_C@_1CC@PDEDDOGK@?$AA?2?$AAP?$AAl?$AAu?$AAg?$AAi?$AAn?$AAs?$AA?2?$AAC?$AAo?$AAn?$AAE?$AAm?$AAu@ 0000000180037200     common-user64:ConEmuCheckEx.obj
 0002:00004228       ??_C@_1CA@CNCOCNJD@?$AAS?$AAo?$AAf?$AAt?$AAw?$AAa?$AAr?$AAe?$AA?2?$AAC?$AAo?$AAn?$AAE?$AAm?$AAu@ 0000000180037228     common-user64:ConEmuCheckEx.obj
 0002:00004248       ??_C@_1CK@KBHIPEEC@?$AAC?$AAo?$AAn?$AAE?$AAm?$AAu?$AA?2?$AAC?$AAo?$AAn?$AAE?$AAm?$AAu?$AAC?$AA6@ 0000000180037248     common-user64:ConEmuCheckEx.obj
 0002:00004278       ??_C@_1CG@HCDHJIEM@?$AAC?$AAo?$AAn?$AAE?$AAm?$AAu?$AA?2?$AAC?$AAo?$AAn?$AAE?$AAm?$AAu?$AAC?$AA?4@ 0000000180037278     common-user64:ConEmuCheckEx.obj
 0002:000042a0       __xmm@ffffffff800000010000000000000000 00000001800372a0     common-user64:ConEmuCheckEx.obj
 0002:000042b0       __xmm@ffffffff80000002ffffffff80000002 00000001800372b0     common-user64:ConEmuCheckEx.obj
 0002:000042c0       ??_C@_1BO@CJPKCNHF@?$AAL?$AAu?$AAc?$AAi?$AAd?$AAa?$AA?5?$AAC?$AAo?$AAn?$AAs?$AAo?$AAl?$AAe@ 00000001800372c0     common-user64:EmergencyShow.obj
 0002:000042e0       ??_C@_1BA@GIKDDGPH@?$AAC?$AAo?$AAn?$AAs?$AAo?$AAl?$AAe@ 00000001800372e0     common-user64:EmergencyShow.obj
 0002:000042f0       ??_C@_1BC@MAHCNJIF@?$AAF?$AAo?$AAn?$AAt?$AAS?$AAi?$AAz?$AAe@ 00000001800372f0     common-user64:EmergencyShow.obj
 0002:00004310       ??_C@_1EM@OAOIIPGN@?$AAC?$AAo?$AAn?$AAs?$AAo?$AAl?$AAe?$AA?2?$AA?$CF?$AAS?$AAy?$AAs?$AAt?$AAe?$AAm@ 0000000180037310     common-user64:EmergencyShow.obj
 0002:00004360       ??_C@_1DC@GKBPJPHN@?$AAC?$AAo?$AAn?$AAE?$AAm?$AAu?$AAE?$AAm?$AAe?$AAr?$AAg?$AAe?$AAn?$AAc?$AAy@ 0000000180037360     common-user64:EmergencyShow.obj
 0002:000043a0       ??_C@_1GK@PPEHOOAL@?$AAS?$AAO?$AAF?$AAT?$AAW?$AAA?$AAR?$AAE?$AA?2?$AAM?$AAi?$AAc?$AAr?$AAo?$AAs@ 00000001800373a0     common-user64:WFiles.obj
 0002:0000440c       ??_C@_13PJJBFPED@?$AA?$DL@ 000000018003740c     common-user64:WFiles.obj
 0002:00004410       ??_C@_1FM@HGFGNGE@?$AAC?$AAa?$AAn?$AA?8?$AAt?$AA?5?$AAC?$AAr?$AAe?$AAa?$AAt?$AAe?$AAF?$AAi?$AAl@ 0000000180037410     common-user64:WConsoleEx.obj
 0002:00004470       ??_C@_1EA@DNEBDKPD@?$AAC?$AAa?$AAn?$AA?8?$AAt?$AA?5?$AAM?$AAa?$AAp?$AAV?$AAi?$AAe?$AAw?$AAO?$AAf@ 0000000180037470     common-user64:WConsoleEx.obj
 0002:000044b0       ??_C@_1BO@IPFLJP@?$AAC?$AAo?$AAn?$AAs?$AAo?$AAl?$AAe?$AA?2?$AAC?$AAo?$AAn?$AAE?$AAm?$AAu@ 00000001800374b0     common-user64:WConsoleEx.obj
 0002:000044d0       ??_C@_1CE@BJHMHGLF@?$AAH?$AAi?$AAs?$AAt?$AAo?$AAr?$AAy?$AAB?$AAu?$AAf?$AAf?$AAe?$AAr?$AAS?$AAi@ 00000001800374d0     common-user64:WConsoleEx.obj
 0002:000044f8       ??_C@_1CO@DAOCNAIJ@?$AAN?$AAu?$AAm?$AAb?$AAe?$AAr?$AAO?$AAf?$AAH?$AAi?$AAs?$AAt?$AAo?$AAr?$AAy@ 00000001800374f8     common-user64:WConsoleEx.obj
 0002:00004530       ??_7bad_function_call@std@@6B@ 0000000180037530     libcpmt:xthrow.obj
 0002:00004540       ??_C@_0BC@DPJNKNAF@bad?5function?5call@ 0000000180037540     libcpmt:xthrow.obj
 0002:00004560       ??_7logic_error@std@@6B@   0000000180037560     libcpmt:xthrow.obj
 0002:00004578       ??_7length_error@std@@6B@  0000000180037578     libcpmt:xthrow.obj
 0002:00004590       ??_7type_info@@6B@         0000000180037590     LIBCMT:std_type_info_static.obj
 0002:000045a0       ??_C@_1EC@JIJBPKFM@?$AAa?$AAp?$AAi?$AA?9?$AAm?$AAs?$AA?9?$AAw?$AAi?$AAn?$AA?9?$AAc?$AAo?$AAr?$AAe@ 00000001800375a0     LIBCMT:thread_safe_statics.obj
 0002:000045e8       ??_C@_0BJ@JEBJOJFJ@SleepConditionVariableCS@ 00000001800375e8     LIBCMT:thread_safe_statics.obj
 0002:00004608       ??_C@_0BJ@PGPPEPCC@WakeAllConditionVariable@ 0000000180037608     LIBCMT:thread_safe_statics.obj
 0002:00004628       _pDefaultRawDllMain        0000000180037628     LIBCMT:dll_dllmain.obj
 0002:00004628       _pRawDllMain               0000000180037628     LIBCMT:dll_dllmain.obj
 0002:00004630       __xmm@ffffffffffffffffffffffffffffffff 0000000180037630     LIBCMT:utility.obj
 0002:00004650       ?s_negLengthTab@FH4@@3QBCB 0000000180037650     libvcruntime:risctrnsctrl.obj
 0002:00004660       ?s_shiftTab@FH4@@3QBEB     0000000180037660     libvcruntime:risctrnsctrl.obj
 0002:00004708       _pDestructExceptionObject  0000000180037708     libvcruntime:ehhelpers.obj
 0002:00004718       ??_7bad_exception@std@@6B@ 0000000180037718     libvcruntime:frame.obj
 0002:00004728       ??_C@_0O@DPKOEFFH@bad?5exception@ 0000000180037728     libvcruntime:frame.obj
 0002:00004e40       ??_C@_08EHJDFFNH@__based?$CI@ 0000000180037e40     libvcruntime:undname.obj
 0002:00004e50       ??_C@_07KOLFKCDI@__cdecl@  0000000180037e50     libvcruntime:undname.obj
 0002:00004e58       ??_C@_08GHMPAG@__pascal@   0000000180037e58     libvcruntime:undname.obj
 0002:00004e68       ??_C@_09IFJBGAPI@__stdcall@ 0000000180037e68     libvcruntime:undname.obj
 0002:00004e78       ??_C@_0L@NPHFGOKO@__thiscall@ 0000000180037e78     libvcruntime:undname.obj
 0002:00004e88       ??_C@_0L@JMKHOMEK@__fastcall@ 0000000180037e88     libvcruntime:undname.obj
 0002:00004e98       ??_C@_0N@BCKKPABJ@__vectorcall@ 0000000180037e98     libvcruntime:undname.obj
 0002:00004ea8       ??_C@_09HIJEGCPM@__clrcall@ 0000000180037ea8     libvcruntime:undname.obj
 0002:00004eb4       ??_C@_06GHPCKEAG@__eabi@   0000000180037eb4     libvcruntime:undname.obj
 0002:00004ec0       ??_C@_09IOPIDJLG@__swift_1@ 0000000180037ec0     libvcruntime:undname.obj
 0002:00004ed0       ??_C@_09KFNFGKHF@__swift_2@ 0000000180037ed0     libvcruntime:undname.obj
 0002:00004ee0       ??_C@_07JOMMBBKO@__ptr64@  0000000180037ee0     libvcruntime:undname.obj
 0002:00004ee8       ??_C@_0L@PILCLIHE@__restrict@ 0000000180037ee8     libvcruntime:undname.obj
 0002:00004ef8       ??_C@_0M@GFIIJFMG@__unaligned@ 0000000180037ef8     libvcruntime:undname.obj
 0002:00004f08       ??_C@_09DHDLOLLB@restrict?$CI@ 0000000180037f08     libvcruntime:undname.obj
 0002:00004f14       ??_C@_04NIHEBCM@?5new@     0000000180037f14     libvcruntime:undname.obj
 0002:00004f20       ??_C@_07FPCDHGMM@?5delete@ 0000000180037f20     libvcruntime:undname.obj
 0002:00004f28       ??_C@_01NEMOKFLO@?$DN@     0000000180037f28     libvcruntime:undname.obj
 0002:00004f2c       ??_C@_02GPIOPFAK@?$DO?$DO@ 0000000180037f2c     libvcruntime:undname.obj
 0002:00004f30       ??_C@_02FODMEDOG@?$DM?$DM@ 0000000180037f30     libvcruntime:undname.obj
 0002:00004f34       ??_C@_01DCLJPIOD@?$CB@     0000000180037f34     libvcruntime:undname.obj
 0002:00004f38       ??_C@_02EGOFBIJA@?$DN?$DN@ 0000000180037f38     libvcruntime:undname.obj
 0002:00004f3c       ??_C@_02FDNJECIE@?$CB?$DN@ 0000000180037f3c     libvcruntime:undname.obj
 0002:00004f40       ??_C@_02GPECMEKF@?$FL?$FN@ 0000000180037f40     libvcruntime:undname.obj
 0002:00004f48       ??_C@_08LHJFAFGD@operator@ 0000000180037f48     libvcruntime:undname.obj
 0002:00004f54       ??_C@_02HBOOOICD@?9?$DO@   0000000180037f54     libvcruntime:undname.obj
 0002:00004f58       ??_C@_01NBENCBCI@?$CK@     0000000180037f58     libvcruntime:undname.obj
 0002:00004f5c       ??_C@_02ECNGHCIF@?$CL?$CL@ 0000000180037f5c     libvcruntime:undname.obj
 0002:00004f60       ??_C@_02BAABKJLB@?9?9@     0000000180037f60     libvcruntime:undname.obj
 0002:00004f64       ??_C@_01JOAMLHOP@?9@       0000000180037f64     libvcruntime:undname.obj
 0002:00004f68       ??_C@_01MIFGBAGJ@?$CL@     0000000180037f68     libvcruntime:undname.obj
 0002:00004f6c       ??_C@_01HNPIGOCE@?$CG@     0000000180037f6c     libvcruntime:undname.obj
 0002:00004f70       ??_C@_03MNHNFDLC@?9?$DO?$CK@ 0000000180037f70     libvcruntime:undname.obj
 0002:00004f74       ??_C@_01KMDKNFGN@?1@       0000000180037f74     libvcruntime:undname.obj
 0002:00004f78       ??_C@_01FGNFDNOH@?$CF@     0000000180037f78     libvcruntime:undname.obj
 0002:00004f7c       ??_C@_01MNNFJEPP@?$DM@     0000000180037f7c     libvcruntime:undname.obj
 0002:00004f80       ??_C@_02EHCHHCKH@?$DM?$DN@ 0000000180037f80     libvcruntime:undname.obj
 0002:00004f84       ??_C@_01PPODPGHN@?$DO@     0000000180037f84     libvcruntime:undname.obj
 0002:00004f88       ??_C@_02EEKDKGMJ@?$DO?$DN@ 0000000180037f88     libvcruntime:undname.obj
 0002:00004f8c       ??_C@_01IHBHIGKO@?0@       0000000180037f8c     libvcruntime:undname.obj
 0002:00004f90       ??_C@_02HCKGKOFO@?$CI?$CJ@ 0000000180037f90     libvcruntime:undname.obj
 0002:00004f94       ??_C@_01PJKLJHI@?$HO@      0000000180037f94     libvcruntime:undname.obj
 0002:00004f98       ??_C@_01JKBOJNNK@?$FO@     0000000180037f98     libvcruntime:undname.obj
 0002:00004f9c       ??_C@_01DNKMNLPK@?$HM@     0000000180037f9c     libvcruntime:undname.obj
 0002:00004fa0       ??_C@_02PPKAJPJL@?$CG?$CG@ 0000000180037fa0     libvcruntime:undname.obj
 0002:00004fa4       ??_C@_02NONPIBCD@?$HM?$HM@ 0000000180037fa4     libvcruntime:undname.obj
 0002:00004fa8       ??_C@_02FPIMKNGF@?$CK?$DN@ 0000000180037fa8     libvcruntime:undname.obj
 0002:00004fac       ??_C@_02FOEOMHFC@?$CL?$DN@ 0000000180037fac     libvcruntime:undname.obj
 0002:00004fb0       ??_C@_02FKMDLLOA@?9?$DN@   0000000180037fb0     libvcruntime:undname.obj
 0002:00004fb4       ??_C@_02FJEHGPIO@?1?$DN@   0000000180037fb4     libvcruntime:undname.obj
 0002:00004fb8       ??_C@_02FENAOKFI@?$CF?$DN@ 0000000180037fb8     libvcruntime:undname.obj
 0002:00004fbc       ??_C@_03IKFCCPFF@?$DO?$DO?$DN@ 0000000180037fbc     libvcruntime:undname.obj
 0002:00004fc0       ??_C@_03CDNPDDLA@?$DM?$DM?$DN@ 0000000180037fc0     libvcruntime:undname.obj
 0002:00004fc4       ??_C@_02FGJGFEAB@?$CG?$DN@ 0000000180037fc4     libvcruntime:undname.obj
 0002:00004fc8       ??_C@_02DHLNPPGH@?$HM?$DN@ 0000000180037fc8     libvcruntime:undname.obj
 0002:00004fcc       ??_C@_02MHEGNOJ@?$FO?$DN@  0000000180037fcc     libvcruntime:undname.obj
 0002:00004fd0       ??_C@_09IFPLHPGF@?$GAvftable?8@ 0000000180037fd0     libvcruntime:undname.obj
 0002:00004fe0       ??_C@_09BLBHBJP@?$GAvbtable?8@ 0000000180037fe0     libvcruntime:undname.obj
 0002:00004ff0       ??_C@_07FEEIOKP@?$GAvcall?8@ 0000000180037ff0     libvcruntime:undname.obj
 0002:00004ff8       ??_C@_08LLFFHHDJ@?$GAtypeof?8@ 0000000180037ff8     libvcruntime:undname.obj
 0002:00005008       ??_C@_0BF@KDPPACIK@?$GAlocal?5static?5guard?8@ 0000000180038008     libvcruntime:undname.obj
 0002:00005020       ??_C@_08OBABFOLI@?$GAstring?8@ 0000000180038020     libvcruntime:undname.obj
 0002:00005030       ??_C@_0BD@JDLKDPAB@?$GAvbase?5destructor?8@ 0000000180038030     libvcruntime:undname.obj
 0002:00005048       ??_C@_0BN@DEGPLNFK@?$GAvector?5deleting?5destructor?8@ 0000000180038048     libvcruntime:undname.obj
 0002:00005068       ??_C@_0BO@OBMKPJIG@?$GAdefault?5constructor?5closure?8@ 0000000180038068     libvcruntime:undname.obj
 0002:00005088       ??_C@_0BN@IMDCHIKM@?$GAscalar?5deleting?5destructor?8@ 0000000180038088     libvcruntime:undname.obj
 0002:000050a8       ??_C@_0BO@PFGOCPJJ@?$GAvector?5constructor?5iterator?8@ 00000001800380a8     libvcruntime:undname.obj
 0002:000050c8       ??_C@_0BN@LFPFMEDL@?$GAvector?5destructor?5iterator?8@ 00000001800380c8     libvcruntime:undname.obj
 0002:000050e8       ??_C@_0CE@IKBNEHA@?$GAvector?5vbase?5constructor?5itera@ 00000001800380e8     libvcruntime:undname.obj
 0002:00005110       ??_C@_0BL@NILFHHPC@?$GAvirtual?5displacement?5map?8@ 0000000180038110     libvcruntime:undname.obj
 0002:00005130       ??_C@_0CB@JONCMFFK@?$GAeh?5vector?5constructor?5iterator@ 0000000180038130     libvcruntime:undname.obj
 0002:00005158       ??_C@_0CA@GCEOPDGL@?$GAeh?5vector?5destructor?5iterator?8@ 0000000180038158     libvcruntime:undname.obj
 0002:00005178       ??_C@_0CH@OOJPLCPH@?$GAeh?5vector?5vbase?5constructor?5it@ 0000000180038178     libvcruntime:undname.obj
 0002:000051a0       ??_C@_0BL@LLKPOHJI@?$GAcopy?5constructor?5closure?8@ 00000001800381a0     libvcruntime:undname.obj
 0002:000051c0       ??_C@_0BA@KBCDOMBN@?$GAudt?5returning?8@ 00000001800381c0     libvcruntime:undname.obj
 0002:000051d0       ??_C@_03KLGMFNMG@?$GAEH@   00000001800381d0     libvcruntime:undname.obj
 0002:000051d4       ??_C@_05KHLCHHI@?$GARTTI@  00000001800381d4     libvcruntime:undname.obj
 0002:000051e0       ??_C@_0BA@KKLDJDLB@?$GAlocal?5vftable?8@ 00000001800381e0     libvcruntime:undname.obj
 0002:000051f0       ??_C@_0CE@IIHCMGGL@?$GAlocal?5vftable?5constructor?5clos@ 00000001800381f0     libvcruntime:undname.obj
 0002:00005214       ??_C@_06FHBGPFGH@?5new?$FL?$FN@ 0000000180038214     libvcruntime:undname.obj
 0002:00005220       ??_C@_09LBNFPBCA@?5delete?$FL?$FN@ 0000000180038220     libvcruntime:undname.obj
 0002:00005230       ??_C@_0P@HJKNJFNN@?$GAomni?5callsig?8@ 0000000180038230     libvcruntime:undname.obj
 0002:00005240       ??_C@_0BL@CNOONJFP@?$GAplacement?5delete?5closure?8@ 0000000180038240     libvcruntime:undname.obj
 0002:00005260       ??_C@_0BN@CKNJLHMB@?$GAplacement?5delete?$FL?$FN?5closure?8@ 0000000180038260     libvcruntime:undname.obj
 0002:00005280       ??_C@_0CG@CFDHKGGD@?$GAmanaged?5vector?5constructor?5ite@ 0000000180038280     libvcruntime:undname.obj
 0002:000052a8       ??_C@_0CF@IMGKMJNO@?$GAmanaged?5vector?5destructor?5iter@ 00000001800382a8     libvcruntime:undname.obj
 0002:000052d0       ??_C@_0CG@HLDDJMAG@?$GAeh?5vector?5copy?5constructor?5ite@ 00000001800382d0     libvcruntime:undname.obj
 0002:000052f8       ??_C@_0CM@FCBBDIGB@?$GAeh?5vector?5vbase?5copy?5construct@ 00000001800382f8     libvcruntime:undname.obj
 0002:00005328       ??_C@_0BL@CLIPGLGB@?$GAdynamic?5initializer?5for?5?8@ 0000000180038328     libvcruntime:undname.obj
 0002:00005348       ??_C@_0CB@PDBIFEP@?$GAdynamic?5atexit?5destructor?5for?5@ 0000000180038348     libvcruntime:undname.obj
 0002:00005370       ??_C@_0CD@CGAJBKEJ@?$GAvector?5copy?5constructor?5iterat@ 0000000180038370     libvcruntime:undname.obj
 0002:00005398       ??_C@_0CJ@GJELGAMM@?$GAvector?5vbase?5copy?5constructor?5@ 0000000180038398     libvcruntime:undname.obj
 0002:000053c8       ??_C@_0CL@FGIJHLCE@?$GAmanaged?5vector?5copy?5constructo@ 00000001800383c8     libvcruntime:undname.obj
 0002:000053f8       ??_C@_0BM@PMGGMLDN@?$GAlocal?5static?5thread?5guard?8@ 00000001800383f8     libvcruntime:undname.obj
 0002:00005418       ??_C@_0N@BDNMDMOL@operator?5?$CC?$CC?5@ 0000000180038418     libvcruntime:undname.obj
 0002:00005428       ??_C@_0BC@GGEBGALA@operator?5co_await@ 0000000180038428     libvcruntime:undname.obj
 0002:00005440       ??_C@_0M@GAAIMMOH@operator?$DM?$DN?$DO@ 0000000180038440     libvcruntime:undname.obj
 0002:00005450       ??_C@_0BC@DAFEJGAK@?5Type?5Descriptor?8@ 0000000180038450     libvcruntime:undname.obj
 0002:00005468       ??_C@_0BM@LDKODKLH@?5Base?5Class?5Descriptor?5at?5?$CI@ 0000000180038468     libvcruntime:undname.obj
 0002:00005488       ??_C@_0BD@LGICGFMM@?5Base?5Class?5Array?8@ 0000000180038488     libvcruntime:undname.obj
 0002:000054a0       ??_C@_0BN@MECKDCOJ@?5Class?5Hierarchy?5Descriptor?8@ 00000001800384a0     libvcruntime:undname.obj
 0002:000054c0       ??_C@_0BK@CFCOFLF@?5Complete?5Object?5Locator?8@ 00000001800384c0     libvcruntime:undname.obj
 0002:000054e0       ??_C@_0BG@JNJLAMPM@?$GAanonymous?5namespace?8@ 00000001800384e0     libvcruntime:undname.obj
 0002:00005510       ??_C@_1DM@KHCHBNEB@?$AAa?$AAp?$AAi?$AA?9?$AAm?$AAs?$AA?9?$AAw?$AAi?$AAn?$AA?9?$AAc?$AAo?$AAr?$AAe@ 0000000180038510     libvcruntime:winapi_downlevel.obj
 0002:00005550       ??_C@_1DK@LPPGFMPP@?$AAa?$AAp?$AAi?$AA?9?$AAm?$AAs?$AA?9?$AAw?$AAi?$AAn?$AA?9?$AAc?$AAo?$AAr?$AAe@ 0000000180038550     libvcruntime:winapi_downlevel.obj
 0002:00005590       ??_C@_1BC@GDMECMAK@?$AAk?$AAe?$AAr?$AAn?$AAe?$AAl?$AA3?$AA2@ 0000000180038590     libvcruntime:winapi_downlevel.obj
 0002:000055a8       ??_C@_1BA@PFFKHIOG@?$AAa?$AAp?$AAi?$AA?9?$AAm?$AAs?$AA?9@ 00000001800385a8     libvcruntime:winapi_downlevel.obj
 0002:000055c0       ??_C@_08KNHFBNJ@FlsAlloc@  00000001800385c0     libvcruntime:winapi_downlevel.obj
 0002:000055d8       ??_C@_07PEJMOBNF@FlsFree@  00000001800385d8     libvcruntime:winapi_downlevel.obj
 0002:000055e8       ??_C@_0M@GDNOONDI@FlsGetValue@ 00000001800385e8     libvcruntime:winapi_downlevel.obj
 0002:00005600       ??_C@_0M@JCPCPOEF@FlsSetValue@ 0000000180038600     libvcruntime:winapi_downlevel.obj
 0002:00005618       ??_C@_0BM@HCFOFFN@InitializeCriticalSectionEx@ 0000000180038618     libvcruntime:winapi_downlevel.obj
 0002:00005640       ?standard_lookup_table_spectre@__crt_stdio_output@@3V?$spectre_mitigated_lookup_table@Ustate_transition_pair@__crt_stdio_output@@$0IA@@1@B 0000000180038640     libucrt:output.obj
 0002:00005a40       ??_C@_1O@CEDCILHN@?$AA?$CI?$AAn?$AAu?$AAl?$AAl?$AA?$CJ@ 0000000180038a40     libucrt:output.obj
 0002:00005a50       ??_C@_06OJHGLDPL@?$CInull?$CJ@ 0000000180038a50     libucrt:output.obj
 0002:00005bd0       __acrt_exception_action_table 0000000180038bd0     libucrt:exception_filter.obj
 0002:00005c90       __acrt_signal_action_table_count 0000000180038c90     libucrt:exception_filter.obj
 0002:00005c98       __acrt_signal_action_first_fpe_index 0000000180038c98     libucrt:exception_filter.obj
 0002:00005ca0       __acrt_signal_action_fpe_count 0000000180038ca0     libucrt:exception_filter.obj
 0002:00005ca8       ??_C@_1BI@BGOHAHKC@?$AAm?$AAs?$AAc?$AAo?$AAr?$AAe?$AAe?$AA?4?$AAd?$AAl?$AAl@ 0000000180038ca8     libucrt:exit.obj
 0002:00005cc0       ??_C@_0P@MIGLKIOC@CorExitProcess@ 0000000180038cc0     libucrt:exit.obj
 0002:00005e50       ??_C@_03OEIAHPBN@INF@      0000000180038e50     libucrt:cvt.obj
 0002:00005e54       ??_C@_03OJHLLCGB@inf@      0000000180038e54     libucrt:cvt.obj
 0002:00005e58       ??_C@_03LKNCIKJB@NAN@      0000000180038e58     libucrt:cvt.obj
 0002:00005e5c       ??_C@_03LHCJEHON@nan@      0000000180038e5c     libucrt:cvt.obj
 0002:00005e60       ??_C@_09OFJJIMPC@NAN?$CISNAN?$CJ@ 0000000180038e60     libucrt:cvt.obj
 0002:00005e70       ??_C@_09IPFBKMDL@nan?$CIsnan?$CJ@ 0000000180038e70     libucrt:cvt.obj
 0002:00005e80       ??_C@_08IKHNHAJ@NAN?$CIIND?$CJ@ 0000000180038e80     libucrt:cvt.obj
 0002:00005e90       ??_C@_08OFCDMILK@nan?$CIind?$CJ@ 0000000180038e90     libucrt:cvt.obj
 0002:00005e9c       ??_C@_05KLBDPFGC@e?$CL000@ 0000000180038e9c     libucrt:cvt.obj
 0002:00005eb0       __lc_time_c                0000000180038eb0     libucrt:nlsdata.obj
 0002:00006170       ??_C@_03KOEHGMDN@Sun@      0000000180039170     libucrt:nlsdata.obj
 0002:00006174       ??_C@_03PDAGKDH@Mon@       0000000180039174     libucrt:nlsdata.obj
 0002:00006178       ??_C@_03NAGEINEP@Tue@      0000000180039178     libucrt:nlsdata.obj
 0002:0000617c       ??_C@_03MHOMLAJA@Wed@      000000018003917c     libucrt:nlsdata.obj
 0002:00006180       ??_C@_03IOFIKPDN@Thu@      0000000180039180     libucrt:nlsdata.obj
 0002:00006184       ??_C@_03IDIOELNC@Fri@      0000000180039184     libucrt:nlsdata.obj
 0002:00006188       ??_C@_03FEFJNEK@Sat@       0000000180039188     libucrt:nlsdata.obj
 0002:0000618c       ??_C@_06OOPIFAJ@Sunday@    000000018003918c     libucrt:nlsdata.obj
 0002:00006194       ??_C@_06JLEDEDGH@Monday@   0000000180039194     libucrt:nlsdata.obj
 0002:000061a0       ??_C@_07BAAGCFCM@Tuesday@  00000001800391a0     libucrt:nlsdata.obj
 0002:000061a8       ??_C@_09DLIGFAKA@Wednesday@ 00000001800391a8     libucrt:nlsdata.obj
 0002:000061b8       ??_C@_08HACCIKIA@Thursday@ 00000001800391b8     libucrt:nlsdata.obj
 0002:000061c4       ??_C@_06JECMNKMI@Friday@   00000001800391c4     libucrt:nlsdata.obj
 0002:000061d0       ??_C@_08INBOOONO@Saturday@ 00000001800391d0     libucrt:nlsdata.obj
 0002:000061dc       ??_C@_03JIHJHPIE@Jan@      00000001800391dc     libucrt:nlsdata.obj
 0002:000061e0       ??_C@_03HJBDCHOM@Feb@      00000001800391e0     libucrt:nlsdata.obj
 0002:000061e4       ??_C@_03ODNJBKGA@Mar@      00000001800391e4     libucrt:nlsdata.obj
 0002:000061e8       ??_C@_03LEOLGMJP@Apr@      00000001800391e8     libucrt:nlsdata.obj
 0002:000061ec       ??_C@_03CNMDKL@May@        00000001800391ec     libucrt:nlsdata.obj
 0002:000061f0       ??_C@_03IDFGHECI@Jun@      00000001800391f0     libucrt:nlsdata.obj
 0002:000061f4       ??_C@_03LBGABGKK@Jul@      00000001800391f4     libucrt:nlsdata.obj
 0002:000061f8       ??_C@_03IFJFEIGA@Aug@      00000001800391f8     libucrt:nlsdata.obj
 0002:000061fc       ??_C@_03GGCAPAJC@Sep@      00000001800391fc     libucrt:nlsdata.obj
 0002:00006200       ??_C@_03BMAOKBAD@Oct@      0000000180039200     libucrt:nlsdata.obj
 0002:00006204       ??_C@_03JPJOFNIA@Nov@      0000000180039204     libucrt:nlsdata.obj
 0002:00006208       ??_C@_03MKABNOCG@Dec@      0000000180039208     libucrt:nlsdata.obj
 0002:00006210       ??_C@_07CGJPFGJA@January@  0000000180039210     libucrt:nlsdata.obj
 0002:00006218       ??_C@_08GNJGEPFN@February@ 0000000180039218     libucrt:nlsdata.obj
 0002:00006224       ??_C@_05HPCKOFNC@March@    0000000180039224     libucrt:nlsdata.obj
 0002:0000622c       ??_C@_05DMJDNLEJ@April@    000000018003922c     libucrt:nlsdata.obj
 0002:00006234       ??_C@_04CNLMGBGM@June@     0000000180039234     libucrt:nlsdata.obj
 0002:0000623c       ??_C@_04MIEPOIFP@July@     000000018003923c     libucrt:nlsdata.obj
 0002:00006244       ??_C@_06LBBHFDDG@August@   0000000180039244     libucrt:nlsdata.obj
 0002:00006250       ??_C@_09BHHEALKD@September@ 0000000180039250     libucrt:nlsdata.obj
 0002:00006260       ??_C@_07JJNFCEND@October@  0000000180039260     libucrt:nlsdata.obj
 0002:00006268       ??_C@_08HCHEGEOA@November@ 0000000180039268     libucrt:nlsdata.obj
 0002:00006278       ??_C@_08EDHMEBNP@December@ 0000000180039278     libucrt:nlsdata.obj
 0002:00006284       ??_C@_02DEDBPAFC@AM@       0000000180039284     libucrt:nlsdata.obj
 0002:00006288       ??_C@_02CJNFDJBF@PM@       0000000180039288     libucrt:nlsdata.obj
 0002:00006290       ??_C@_08BPBNCDIB@MM?1dd?1yy@ 0000000180039290     libucrt:nlsdata.obj
 0002:000062a0       ??_C@_0BE@CKGJFCPC@dddd?0?5MMMM?5dd?0?5yyyy@ 00000001800392a0     libucrt:nlsdata.obj
 0002:000062b8       ??_C@_08JCCMCCIL@HH?3mm?3ss@ 00000001800392b8     libucrt:nlsdata.obj
 0002:000062c8       ??_C@_17MBGCMIPB@?$AAS?$AAu?$AAn@ 00000001800392c8     libucrt:nlsdata.obj
 0002:000062d0       ??_C@_17KBOMKBF@?$AAM?$AAo?$AAn@ 00000001800392d0     libucrt:nlsdata.obj
 0002:000062d8       ??_C@_17BMKGEGOJ@?$AAT?$AAu?$AAe@ 00000001800392d8     libucrt:nlsdata.obj
 0002:000062e0       ??_C@_17CJEDCEPE@?$AAW?$AAe?$AAd@ 00000001800392e0     libucrt:nlsdata.obj
 0002:000062e8       ??_C@_17PDPHAADD@?$AAT?$AAh?$AAu@ 00000001800392e8     libucrt:nlsdata.obj
 0002:000062f0       ??_C@_17HFOLPPLP@?$AAF?$AAr?$AAi@ 00000001800392f0     libucrt:nlsdata.obj
 0002:000062f8       ??_C@_17GGIBDPIH@?$AAS?$AAa?$AAt@ 00000001800392f8     libucrt:nlsdata.obj
 0002:00006300       ??_C@_1O@IHNHDHPB@?$AAS?$AAu?$AAn?$AAd?$AAa?$AAy@ 0000000180039300     libucrt:nlsdata.obj
 0002:00006310       ??_C@_1O@MMNBFLIA@?$AAM?$AAo?$AAn?$AAd?$AAa?$AAy@ 0000000180039310     libucrt:nlsdata.obj
 0002:00006320       ??_C@_1BA@ENFBFFEK@?$AAT?$AAu?$AAe?$AAs?$AAd?$AAa?$AAy@ 0000000180039320     libucrt:nlsdata.obj
 0002:00006330       ??_C@_1BE@EBOGMDOH@?$AAW?$AAe?$AAd?$AAn?$AAe?$AAs?$AAd?$AAa?$AAy@ 0000000180039330     libucrt:nlsdata.obj
 0002:00006348       ??_C@_1BC@HHMNLIHE@?$AAT?$AAh?$AAu?$AAr?$AAs?$AAd?$AAa?$AAy@ 0000000180039348     libucrt:nlsdata.obj
 0002:00006360       ??_C@_1O@PDICJHAG@?$AAF?$AAr?$AAi?$AAd?$AAa?$AAy@ 0000000180039360     libucrt:nlsdata.obj
 0002:00006370       ??_C@_1BC@ENMNNPAJ@?$AAS?$AAa?$AAt?$AAu?$AAr?$AAd?$AAa?$AAy@ 0000000180039370     libucrt:nlsdata.obj
 0002:00006388       ??_C@_17DKNBKCHM@?$AAJ?$AAa?$AAn@ 0000000180039388     libucrt:nlsdata.obj
 0002:00006390       ??_C@_17LMDJEKJN@?$AAF?$AAe?$AAb@ 0000000180039390     libucrt:nlsdata.obj
 0002:00006398       ??_C@_17CKNLEDEC@?$AAM?$AAa?$AAr@ 0000000180039398     libucrt:nlsdata.obj
 0002:000063a0       ??_C@_17LFPOIHDD@?$AAA?$AAp?$AAr@ 00000001800393a0     libucrt:nlsdata.obj
 0002:000063a8       ??_C@_17PNNKMEED@?$AAM?$AAa?$AAy@ 00000001800393a8     libucrt:nlsdata.obj
 0002:000063b0       ??_C@_17KCJGOCPB@?$AAJ?$AAu?$AAn@ 00000001800393b0     libucrt:nlsdata.obj
 0002:000063b8       ??_C@_17IJPCKHK@?$AAJ?$AAu?$AAl@ 00000001800393b8     libucrt:nlsdata.obj
 0002:000063c0       ??_C@_17ICPELBCN@?$AAA?$AAu?$AAg@ 00000001800393c0     libucrt:nlsdata.obj
 0002:000063c8       ??_C@_17HCHCOKMG@?$AAS?$AAe?$AAp@ 00000001800393c8     libucrt:nlsdata.obj
 0002:000063d0       ??_C@_17FNLKOI@?$AAO?$AAc?$AAt@ 00000001800393d0     libucrt:nlsdata.obj
 0002:000063d8       ??_C@_17BBDMLCIG@?$AAN?$AAo?$AAv@ 00000001800393d8     libucrt:nlsdata.obj
 0002:000063e0       ??_C@_17EGKACKIF@?$AAD?$AAe?$AAc@ 00000001800393e0     libucrt:nlsdata.obj
 0002:000063e8       ??_C@_1BA@EFMEIEBA@?$AAJ?$AAa?$AAn?$AAu?$AAa?$AAr?$AAy@ 00000001800393e8     libucrt:nlsdata.obj
 0002:000063f8       ??_C@_1BC@JGDDFFAM@?$AAF?$AAe?$AAb?$AAr?$AAu?$AAa?$AAr?$AAy@ 00000001800393f8     libucrt:nlsdata.obj
 0002:00006410       ??_C@_1M@IKEENEDF@?$AAM?$AAa?$AAr?$AAc?$AAh@ 0000000180039410     libucrt:nlsdata.obj
 0002:00006420       ??_C@_1M@GJNLMHFD@?$AAA?$AAp?$AAr?$AAi?$AAl@ 0000000180039420     libucrt:nlsdata.obj
 0002:00006430       ??_C@_19EPFLPGAP@?$AAJ?$AAu?$AAn?$AAe@ 0000000180039430     libucrt:nlsdata.obj
 0002:00006440       ??_C@_19BIFMLPCD@?$AAJ?$AAu?$AAl?$AAy@ 0000000180039440     libucrt:nlsdata.obj
 0002:00006450       ??_C@_1O@PAHLKOAC@?$AAA?$AAu?$AAg?$AAu?$AAs?$AAt@ 0000000180039450     libucrt:nlsdata.obj
 0002:00006460       ??_C@_1BE@DKAAMBJL@?$AAS?$AAe?$AAp?$AAt?$AAe?$AAm?$AAb?$AAe?$AAr@ 0000000180039460     libucrt:nlsdata.obj
 0002:00006478       ??_C@_1BA@EPANDLNG@?$AAO?$AAc?$AAt?$AAo?$AAb?$AAe?$AAr@ 0000000180039478     libucrt:nlsdata.obj
 0002:00006488       ??_C@_1BC@BGLIFPF@?$AAN?$AAo?$AAv?$AAe?$AAm?$AAb?$AAe?$AAr@ 0000000180039488     libucrt:nlsdata.obj
 0002:000064a0       ??_C@_1BC@FEMKIFH@?$AAD?$AAe?$AAc?$AAe?$AAm?$AAb?$AAe?$AAr@ 00000001800394a0     libucrt:nlsdata.obj
 0002:000064b4       ??_C@_15ODEHAHHF@?$AAA?$AAM@ 00000001800394b4     libucrt:nlsdata.obj
 0002:000064bc       ??_C@_15CLMNNGEL@?$AAP?$AAM@ 00000001800394bc     libucrt:nlsdata.obj
 0002:000064c8       ??_C@_1BC@IEBCMHCM@?$AAM?$AAM?$AA?1?$AAd?$AAd?$AA?1?$AAy?$AAy@ 00000001800394c8     libucrt:nlsdata.obj
 0002:000064e0       ??_C@_1CI@KNAKOEBC@?$AAd?$AAd?$AAd?$AAd?$AA?0?$AA?5?$AAM?$AAM?$AAM?$AAM?$AA?5?$AAd?$AAd?$AA?0?$AA?5@ 00000001800394e0     libucrt:nlsdata.obj
 0002:00006508       ??_C@_1BC@GDGBMEMK@?$AAH?$AAH?$AA?3?$AAm?$AAm?$AA?3?$AAs?$AAs@ 0000000180039508     libucrt:nlsdata.obj
 0002:00006520       ??_C@_1M@BMHNFIME@?$AAe?$AAn?$AA?9?$AAU?$AAS@ 0000000180039520     libucrt:nlsdata.obj
 0002:00006530       __newctype                 0000000180039530     libucrt:ctype.obj
 0002:00006830       __newclmap                 0000000180039830     libucrt:ctype.obj
 0002:000069b0       __newcumap                 00000001800399b0     libucrt:ctype.obj
 0002:00006b30       _wctype                    0000000180039b30     libucrt:ctype.obj
 0002:00006d58       ??_C@_1M@HPNHIDJI@?$AAj?$AAa?$AA?9?$AAJ?$AAP@ 0000000180039d58     libucrt:mbctype.obj
 0002:00006d68       ??_C@_1M@BIBDDEMK@?$AAz?$AAh?$AA?9?$AAC?$AAN@ 0000000180039d68     libucrt:mbctype.obj
 0002:00006d78       ??_C@_1M@JLOOOEGK@?$AAk?$AAo?$AA?9?$AAK?$AAR@ 0000000180039d78     libucrt:mbctype.obj
 0002:00006d88       ??_C@_1M@CLNBBOPM@?$AAz?$AAh?$AA?9?$AAT?$AAW@ 0000000180039d88     libucrt:mbctype.obj
 0002:00006e40       ??_C@_1EA@JGEFHKEI@?$AAa?$AAp?$AAi?$AA?9?$AAm?$AAs?$AA?9?$AAw?$AAi?$AAn?$AA?9?$AAc?$AAo?$AAr?$AAe@ 0000000180039e40     libucrt:winapi_thunks.obj
 0002:00006e80       ??_C@_1DI@IJCEHOCB@?$AAa?$AAp?$AAi?$AA?9?$AAm?$AAs?$AA?9?$AAw?$AAi?$AAn?$AA?9?$AAc?$AAo?$AAr?$AAe@ 0000000180039e80     libucrt:winapi_thunks.obj
 0002:00006ec0       ??_C@_1EI@MPIAOHOC@?$AAa?$AAp?$AAi?$AA?9?$AAm?$AAs?$AA?9?$AAw?$AAi?$AAn?$AA?9?$AAc?$AAo?$AAr?$AAe@ 0000000180039ec0     libucrt:winapi_thunks.obj
 0002:00006f10       ??_C@_1FK@FPHCKFIE@?$AAa?$AAp?$AAi?$AA?9?$AAm?$AAs?$AA?9?$AAw?$AAi?$AAn?$AA?9?$AAc?$AAo?$AAr?$AAe@ 0000000180039f10     libucrt:winapi_thunks.obj
 0002:00006f70       ??_C@_1EM@DILCGIIO@?$AAa?$AAp?$AAi?$AA?9?$AAm?$AAs?$AA?9?$AAw?$AAi?$AAn?$AA?9?$AAc?$AAo?$AAr?$AAe@ 0000000180039f70     libucrt:winapi_thunks.obj
 0002:00006fc0       ??_C@_1DM@LNCGDDPN@?$AAa?$AAp?$AAi?$AA?9?$AAm?$AAs?$AA?9?$AAw?$AAi?$AAn?$AA?9?$AAc?$AAo?$AAr?$AAe@ 0000000180039fc0     libucrt:winapi_thunks.obj
 0002:00007000       ??_C@_1DO@FPAPJEMD@?$AAa?$AAp?$AAi?$AA?9?$AAm?$AAs?$AA?9?$AAw?$AAi?$AAn?$AA?9?$AAc?$AAo?$AAr?$AAe@ 000000018003a000     libucrt:winapi_thunks.obj
 0002:00007040       ??_C@_1DK@NDHNAHIO@?$AAa?$AAp?$AAi?$AA?9?$AAm?$AAs?$AA?9?$AAw?$AAi?$AAn?$AA?9?$AAc?$AAo?$AAr?$AAe@ 000000018003a040     libucrt:winapi_thunks.obj
 0002:00007080       ??_C@_1DM@KGHDGBCM@?$AAa?$AAp?$AAi?$AA?9?$AAm?$AAs?$AA?9?$AAw?$AAi?$AAn?$AA?9?$AAc?$AAo?$AAr?$AAe@ 000000018003a080     libucrt:winapi_thunks.obj
 0002:000070c0       ??_C@_1EO@IJIOEFOH@?$AAa?$AAp?$AAi?$AA?9?$AAm?$AAs?$AA?9?$AAw?$AAi?$AAn?$AA?9?$AAr?$AAt?$AAc?$AAo@ 000000018003a0c0     libucrt:winapi_thunks.obj
 0002:00007110       ??_C@_1FG@HHGEKANL@?$AAa?$AAp?$AAi?$AA?9?$AAm?$AAs?$AA?9?$AAw?$AAi?$AAn?$AA?9?$AAs?$AAe?$AAc?$AAu@ 000000018003a110     libucrt:winapi_thunks.obj
 0002:00007170       ??_C@_1EG@DBIOJECG@?$AAe?$AAx?$AAt?$AA?9?$AAm?$AAs?$AA?9?$AAw?$AAi?$AAn?$AA?9?$AAn?$AAt?$AAu?$AAs@ 000000018003a170     libucrt:winapi_thunks.obj
 0002:000071c0       ??_C@_1EO@FIHMJCLF@?$AAe?$AAx?$AAt?$AA?9?$AAm?$AAs?$AA?9?$AAw?$AAi?$AAn?$AA?9?$AAn?$AAt?$AAu?$AAs@ 000000018003a1c0     libucrt:winapi_thunks.obj
 0002:00007210       ??_C@_1BC@DNHGCMLG@?$AAa?$AAd?$AAv?$AAa?$AAp?$AAi?$AA3?$AA2@ 000000018003a210     libucrt:winapi_thunks.obj
 0002:00007228       ??_C@_1M@OAIMIKLP@?$AAn?$AAt?$AAd?$AAl?$AAl@ 000000018003a228     libucrt:winapi_thunks.obj
 0002:00007240       ??_C@_1EG@DPGNFKGC@?$AAa?$AAp?$AAi?$AA?9?$AAm?$AAs?$AA?9?$AAw?$AAi?$AAn?$AA?9?$AAa?$AAp?$AAp?$AAm@ 000000018003a240     libucrt:winapi_thunks.obj
 0002:00007288       ??_C@_1O@BCCLBEOE@?$AAu?$AAs?$AAe?$AAr?$AA3?$AA2@ 000000018003a288     libucrt:winapi_thunks.obj
 0002:00007298       ??_C@_1BA@IAIFMGEF@?$AAe?$AAx?$AAt?$AA?9?$AAm?$AAs?$AA?9@ 000000018003a298     libucrt:winapi_thunks.obj
 0002:000072b0       ??_C@_0BA@FHFNEAED@AreFileApisANSI@ 000000018003a2b0     libucrt:winapi_thunks.obj
 0002:000072f0       ??_C@_0O@KKBNKAPF@LCMapStringEx@ 000000018003a2f0     libucrt:winapi_thunks.obj
 0002:00007308       ??_C@_0BB@HBDEELFH@LocaleNameToLCID@ 000000018003a308     libucrt:winapi_thunks.obj
 0002:00007320       ??_C@_0CF@OJOFEIGO@AppPolicyGetProcessTerminationM@ 000000018003a320     libucrt:winapi_thunks.obj
 0002:00007350       ?large_power_data@?1??multiply_by_power_of_ten@__crt_strtox@@YA_NAEAUbig_integer@2@I@Z@4QBIB 000000018003a350     libucrt:cfout.obj
 0002:00007c60       ?large_power_indices@?1??multiply_by_power_of_ten@__crt_strtox@@YA_NAEAUbig_integer@2@I@Z@4QBUunpack_index@?1??12@YA_N0I@Z@B 000000018003ac60     libucrt:cfout.obj
 0002:00007cf8       ?small_powers_of_ten@?1??multiply_by_power_of_ten@__crt_strtox@@YA_NAEAUbig_integer@2@I@Z@4QBIB 000000018003acf8     libucrt:cfout.obj
 0002:00007d1c       ??_C@_01GBGANLPD@0@        000000018003ad1c     libucrt:cfout.obj
 0002:00007d20       ??_C@_05DNEBIAHO@1?$CDINF@ 000000018003ad20     libucrt:cfout.obj
 0002:00007d28       ??_C@_06IMKFLFPG@1?$CDQNAN@ 000000018003ad28     libucrt:cfout.obj
 0002:00007d30       ??_C@_06PGGFOGJG@1?$CDSNAN@ 000000018003ad30     libucrt:cfout.obj
 0002:00007d38       ??_C@_05PHHOCPM@1?$CDIND@  000000018003ad38     libucrt:cfout.obj
 0002:00007d40       ??_C@_15PJPFLCCM@?$AAu?$AAk@ 000000018003ad40     libucrt:get_qualified_locale.obj
 0002:00008b90       ??_C@_15EMKDOKLE@?$AAa?$AAr@ 000000018003bb90     libucrt:lcidtoname_downlevel.obj
 0002:00008b98       ??_C@_15KNPADPLH@?$AAb?$AAg@ 000000018003bb98     libucrt:lcidtoname_downlevel.obj
 0002:00008ba0       ??_C@_15EDMHLDMO@?$AAc?$AAa@ 000000018003bba0     libucrt:lcidtoname_downlevel.obj
 0002:00008ba8       ??_C@_1O@BPEAJADD@?$AAz?$AAh?$AA?9?$AAC?$AAH?$AAS@ 000000018003bba8     libucrt:lcidtoname_downlevel.obj
 0002:00008bb8       ??_C@_15LJNHCMNK@?$AAc?$AAs@ 000000018003bbb8     libucrt:lcidtoname_downlevel.obj
 0002:00008bc0       ??_C@_15FOMCIDHG@?$AAd?$AAa@ 000000018003bbc0     libucrt:lcidtoname_downlevel.obj
 0002:00008bc8       ??_C@_15NBKABECB@?$AAd?$AAe@ 000000018003bbc8     libucrt:lcidtoname_downlevel.obj
 0002:00008bd0       ??_C@_15GHPEIIAO@?$AAe?$AAl@ 000000018003bbd0     libucrt:lcidtoname_downlevel.obj
 0002:00008bd8       ??_C@_15MNPNEAIF@?$AAe?$AAn@ 000000018003bbd8     libucrt:lcidtoname_downlevel.obj
 0002:00008be0       ??_C@_15GPIOMPMH@?$AAe?$AAs@ 000000018003bbe0     libucrt:lcidtoname_downlevel.obj
 0002:00008be8       ??_C@_15NGLOAKJC@?$AAf?$AAi@ 000000018003bbe8     libucrt:lcidtoname_downlevel.obj
 0002:00008bf0       ??_C@_15FBKGNKAM@?$AAf?$AAr@ 000000018003bbf0     libucrt:lcidtoname_downlevel.obj
 0002:00008bf8       ??_C@_15KGGCNEFK@?$AAh?$AAe@ 000000018003bbf8     libucrt:lcidtoname_downlevel.obj
 0002:00008c00       ??_C@_15PGHLIDMF@?$AAh?$AAu@ 000000018003bc00     libucrt:lcidtoname_downlevel.obj
 0002:00008c08       ??_C@_15BIEMAPLM@?$AAi?$AAs@ 000000018003bc08     libucrt:lcidtoname_downlevel.obj
 0002:00008c10       ??_C@_15IFJLDHAF@?$AAi?$AAt@ 000000018003bc10     libucrt:lcidtoname_downlevel.obj
 0002:00008c18       ??_C@_15GEMIOCAG@?$AAj?$AAa@ 000000018003bc18     libucrt:lcidtoname_downlevel.obj
 0002:00008c20       ??_C@_15EPELEGJA@?$AAk?$AAo@ 000000018003bc20     libucrt:lcidtoname_downlevel.obj
 0002:00008c28       ??_C@_15NDDHIMN@?$AAn?$AAl@ 000000018003bc28     libucrt:lcidtoname_downlevel.obj
 0002:00008c30       ??_C@_15BPIGNHCD@?$AAn?$AAo@ 000000018003bc30     libucrt:lcidtoname_downlevel.obj
 0002:00008c38       ??_C@_15DEOPBLCG@?$AAp?$AAl@ 000000018003bc38     libucrt:lcidtoname_downlevel.obj
 0002:00008c40       ??_C@_15KBECGEFG@?$AAp?$AAt@ 000000018003bc40     libucrt:lcidtoname_downlevel.obj
 0002:00008c48       ??_C@_15GLJCBFMD@?$AAr?$AAo@ 000000018003bc48     libucrt:lcidtoname_downlevel.obj
 0002:00008c50       ??_C@_15FEDGKCDI@?$AAr?$AAu@ 000000018003bc50     libucrt:lcidtoname_downlevel.obj
 0002:00008c58       ??_C@_15GLKMLLHM@?$AAh?$AAr@ 000000018003bc58     libucrt:lcidtoname_downlevel.obj
 0002:00008c60       ??_C@_15CPKMFBDB@?$AAs?$AAk@ 000000018003bc60     libucrt:lcidtoname_downlevel.obj
 0002:00008c68       ??_C@_15BAAIOGMK@?$AAs?$AAq@ 000000018003bc68     libucrt:lcidtoname_downlevel.obj
 0002:00008c70       ??_C@_15INNPNOHD@?$AAs?$AAv@ 000000018003bc70     libucrt:lcidtoname_downlevel.obj
 0002:00008c78       ??_C@_15CABMMOGH@?$AAt?$AAh@ 000000018003bc78     libucrt:lcidtoname_downlevel.obj
 0002:00008c80       ??_C@_15BPLIHJJM@?$AAt?$AAr@ 000000018003bc80     libucrt:lcidtoname_downlevel.obj
 0002:00008c88       ??_C@_15NEOEKKDJ@?$AAu?$AAr@ 000000018003bc88     libucrt:lcidtoname_downlevel.obj
 0002:00008c90       ??_C@_15NFICGAJK@?$AAi?$AAd@ 000000018003bc90     libucrt:lcidtoname_downlevel.obj
 0002:00008c98       ??_C@_15HPJPHDM@?$AAb?$AAe@ 000000018003bc98     libucrt:lcidtoname_downlevel.obj
 0002:00008ca0       ??_C@_15LCHLGJII@?$AAs?$AAl@ 000000018003bca0     libucrt:lcidtoname_downlevel.obj
 0002:00008ca8       ??_C@_15PCFJPHHO@?$AAe?$AAt@ 000000018003bca8     libucrt:lcidtoname_downlevel.obj
 0002:00008cb0       ??_C@_15HPFPGODN@?$AAl?$AAv@ 000000018003bcb0     libucrt:lcidtoname_downlevel.obj
 0002:00008cb8       ??_C@_15NFFGKGLG@?$AAl?$AAt@ 000000018003bcb8     libucrt:lcidtoname_downlevel.obj
 0002:00008cc0       ??_C@_15BDAKCCHN@?$AAf?$AAa@ 000000018003bcc0     libucrt:lcidtoname_downlevel.obj
 0002:00008cc8       ??_C@_15NFGIAIAJ@?$AAv?$AAi@ 000000018003bcc8     libucrt:lcidtoname_downlevel.obj
 0002:00008cd0       ??_C@_15LMKNDMHN@?$AAh?$AAy@ 000000018003bcd0     libucrt:lcidtoname_downlevel.obj
 0002:00008cd8       ??_C@_15IJBHMCFL@?$AAa?$AAz@ 000000018003bcd8     libucrt:lcidtoname_downlevel.obj
 0002:00008ce0       ??_C@_15EKOFJABL@?$AAe?$AAu@ 000000018003bce0     libucrt:lcidtoname_downlevel.obj
 0002:00008ce8       ??_C@_15BGHADCNK@?$AAm?$AAk@ 000000018003bce8     libucrt:lcidtoname_downlevel.obj
 0002:00008cf0       ??_C@_15JDNICKHM@?$AAa?$AAf@ 000000018003bcf0     libucrt:lcidtoname_downlevel.obj
 0002:00008cf8       ??_C@_15KPJEDBKD@?$AAk?$AAa@ 000000018003bcf8     libucrt:lcidtoname_downlevel.obj
 0002:00008d00       ??_C@_15PDNFFFEO@?$AAf?$AAo@ 000000018003bd00     libucrt:lcidtoname_downlevel.obj
 0002:00008d08       ??_C@_15OMLEGLOC@?$AAh?$AAi@ 000000018003bd08     libucrt:lcidtoname_downlevel.obj
 0002:00008d10       ??_C@_15IDNNENKK@?$AAm?$AAs@ 000000018003bd10     libucrt:lcidtoname_downlevel.obj
 0002:00008d18       ??_C@_15MACJNBMH@?$AAk?$AAk@ 000000018003bd18     libucrt:lcidtoname_downlevel.obj
 0002:00008d20       ??_C@_15DKDJEOND@?$AAk?$AAy@ 000000018003bd20     libucrt:lcidtoname_downlevel.obj
 0002:00008d28       ??_C@_15DFGDLJBG@?$AAs?$AAw@ 000000018003bd28     libucrt:lcidtoname_downlevel.obj
 0002:00008d30       ??_C@_15BBFAICNG@?$AAu?$AAz@ 000000018003bd30     libucrt:lcidtoname_downlevel.obj
 0002:00008d38       ??_C@_15DKNDCGEA@?$AAt?$AAt@ 000000018003bd38     libucrt:lcidtoname_downlevel.obj
 0002:00008d40       ??_C@_15MGIFMDPL@?$AAp?$AAa@ 000000018003bd40     libucrt:lcidtoname_downlevel.obj
 0002:00008d48       ??_C@_15HCNDBBA@?$AAg?$AAu@ 000000018003bd48     libucrt:lcidtoname_downlevel.obj
 0002:00008d50       ??_C@_15FNBEIBON@?$AAt?$AAa@ 000000018003bd50     libucrt:lcidtoname_downlevel.obj
 0002:00008d58       ??_C@_15NCHGBGLK@?$AAt?$AAe@ 000000018003bd58     libucrt:lcidtoname_downlevel.obj
 0002:00008d60       ??_C@_15PHPHCBPF@?$AAk?$AAn@ 000000018003bd60     libucrt:lcidtoname_downlevel.obj
 0002:00008d68       ??_C@_15DLGBCKMP@?$AAm?$AAr@ 000000018003bd68     libucrt:lcidtoname_downlevel.obj
 0002:00008d70       ??_C@_15EABBLBFF@?$AAs?$AAa@ 000000018003bd70     libucrt:lcidtoname_downlevel.obj
 0002:00008d78       ??_C@_15CBKOMCOI@?$AAm?$AAn@ 000000018003bd78     libucrt:lcidtoname_downlevel.obj
 0002:00008d80       ??_C@_15CKDMCJAF@?$AAg?$AAl@ 000000018003bd80     libucrt:lcidtoname_downlevel.obj
 0002:00008d88       ??_C@_17CNJFBPG@?$AAk?$AAo?$AAk@ 000000018003bd88     libucrt:lcidtoname_downlevel.obj
 0002:00008d90       ??_C@_17FFBJICPL@?$AAs?$AAy?$AAr@ 000000018003bd90     libucrt:lcidtoname_downlevel.obj
 0002:00008d98       ??_C@_17KPNDCPAF@?$AAd?$AAi?$AAv@ 000000018003bd98     libucrt:lcidtoname_downlevel.obj
 0002:00008da0       ??_C@_1M@OKAHONE@?$AAa?$AAr?$AA?9?$AAS?$AAA@ 000000018003bda0     libucrt:lcidtoname_downlevel.obj
 0002:00008db0       ??_C@_1M@FFFIGIGK@?$AAb?$AAg?$AA?9?$AAB?$AAG@ 000000018003bdb0     libucrt:lcidtoname_downlevel.obj
 0002:00008dc0       ??_C@_1M@BJNKEDC@?$AAc?$AAa?$AA?9?$AAE?$AAS@ 000000018003bdc0     libucrt:lcidtoname_downlevel.obj
 0002:00008dd0       ??_C@_1M@IJJHFJHA@?$AAc?$AAs?$AA?9?$AAC?$AAZ@ 000000018003bdd0     libucrt:lcidtoname_downlevel.obj
 0002:00008de0       ??_C@_1M@CLPEOBGI@?$AAd?$AAa?$AA?9?$AAD?$AAK@ 000000018003bde0     libucrt:lcidtoname_downlevel.obj
 0002:00008df0       ??_C@_1M@MCMADGCB@?$AAd?$AAe?$AA?9?$AAD?$AAE@ 000000018003bdf0     libucrt:lcidtoname_downlevel.obj
 0002:00008e00       ??_C@_1M@OOCKEMAM@?$AAe?$AAl?$AA?9?$AAG?$AAR@ 000000018003be00     libucrt:lcidtoname_downlevel.obj
 0002:00008e10       ??_C@_1M@DDNJFGID@?$AAf?$AAi?$AA?9?$AAF?$AAI@ 000000018003be10     libucrt:lcidtoname_downlevel.obj
 0002:00008e20       ??_C@_1M@GLIPPMAC@?$AAf?$AAr?$AA?9?$AAF?$AAR@ 000000018003be20     libucrt:lcidtoname_downlevel.obj
 0002:00008e30       ??_C@_1M@GFMCHPE@?$AAh?$AAe?$AA?9?$AAI?$AAL@ 000000018003be30     libucrt:lcidtoname_downlevel.obj
 0002:00008e40       ??_C@_1M@MHLPGNKM@?$AAh?$AAu?$AA?9?$AAH?$AAU@ 000000018003be40     libucrt:lcidtoname_downlevel.obj
 0002:00008e50       ??_C@_1M@LPDDNNPN@?$AAi?$AAs?$AA?9?$AAI?$AAS@ 000000018003be50     libucrt:lcidtoname_downlevel.obj
 0002:00008e60       ??_C@_1M@MADIPODN@?$AAi?$AAt?$AA?9?$AAI?$AAT@ 000000018003be60     libucrt:lcidtoname_downlevel.obj
 0002:00008e70       ??_C@_1M@IHBJJGG@?$AAn?$AAl?$AA?9?$AAN?$AAL@ 000000018003be70     libucrt:lcidtoname_downlevel.obj
 0002:00008e80       ??_C@_1M@EANAGDL@?$AAn?$AAb?$AA?9?$AAN?$AAO@ 000000018003be80     libucrt:lcidtoname_downlevel.obj
 0002:00008e90       ??_C@_1M@NEIEMEGP@?$AAp?$AAl?$AA?9?$AAP?$AAL@ 000000018003be90     libucrt:lcidtoname_downlevel.obj
 0002:00008ea0       ??_C@_1M@BOCFIGEP@?$AAp?$AAt?$AA?9?$AAB?$AAR@ 000000018003bea0     libucrt:lcidtoname_downlevel.obj
 0002:00008eb0       ??_C@_1M@IMPFOPBG@?$AAr?$AAo?$AA?9?$AAR?$AAO@ 000000018003beb0     libucrt:lcidtoname_downlevel.obj
 0002:00008ec0       ??_C@_1M@IDNNEJMM@?$AAr?$AAu?$AA?9?$AAR?$AAU@ 000000018003bec0     libucrt:lcidtoname_downlevel.obj
 0002:00008ed0       ??_C@_1M@LILEEOGM@?$AAh?$AAr?$AA?9?$AAH?$AAR@ 000000018003bed0     libucrt:lcidtoname_downlevel.obj
 0002:00008ee0       ??_C@_1M@FKIFEHPB@?$AAs?$AAk?$AA?9?$AAS?$AAK@ 000000018003bee0     libucrt:lcidtoname_downlevel.obj
 0002:00008ef0       ??_C@_1M@LJMAMNPJ@?$AAs?$AAq?$AA?9?$AAA?$AAL@ 000000018003bef0     libucrt:lcidtoname_downlevel.obj
 0002:00008f00       ??_C@_1M@GIAKDKJK@?$AAs?$AAv?$AA?9?$AAS?$AAE@ 000000018003bf00     libucrt:lcidtoname_downlevel.obj
 0002:00008f10       ??_C@_1M@MKJKIKCL@?$AAt?$AAh?$AA?9?$AAT?$AAH@ 000000018003bf10     libucrt:lcidtoname_downlevel.obj
 0002:00008f20       ??_C@_1M@MFLCCMPB@?$AAt?$AAr?$AA?9?$AAT?$AAR@ 000000018003bf20     libucrt:lcidtoname_downlevel.obj
 0002:00008f30       ??_C@_1M@OIJHDKJN@?$AAu?$AAr?$AA?9?$AAP?$AAK@ 000000018003bf30     libucrt:lcidtoname_downlevel.obj
 0002:00008f40       ??_C@_1M@LHIPCIEK@?$AAi?$AAd?$AA?9?$AAI?$AAD@ 000000018003bf40     libucrt:lcidtoname_downlevel.obj
 0002:00008f50       ??_C@_1M@MFMOBGI@?$AAu?$AAk?$AA?9?$AAU?$AAA@ 000000018003bf50     libucrt:lcidtoname_downlevel.obj
 0002:00008f60       ??_C@_1M@OBGLJIPL@?$AAb?$AAe?$AA?9?$AAB?$AAY@ 000000018003bf60     libucrt:lcidtoname_downlevel.obj
 0002:00008f70       ??_C@_1M@BCFAJEAD@?$AAs?$AAl?$AA?9?$AAS?$AAI@ 000000018003bf70     libucrt:lcidtoname_downlevel.obj
 0002:00008f80       ??_C@_1M@FKFFEDDN@?$AAe?$AAt?$AA?9?$AAE?$AAE@ 000000018003bf80     libucrt:lcidtoname_downlevel.obj
 0002:00008f90       ??_C@_1M@KGKKAACI@?$AAl?$AAv?$AA?9?$AAL?$AAV@ 000000018003bf90     libucrt:lcidtoname_downlevel.obj
 0002:00008fa0       ??_C@_1M@IFGBIJO@?$AAl?$AAt?$AA?9?$AAL?$AAT@ 000000018003bfa0     libucrt:lcidtoname_downlevel.obj
 0002:00008fb0       ??_C@_1M@FGEAHEDM@?$AAf?$AAa?$AA?9?$AAI?$AAR@ 000000018003bfb0     libucrt:lcidtoname_downlevel.obj
 0002:00008fc0       ??_C@_1M@KBMAIBFN@?$AAv?$AAi?$AA?9?$AAV?$AAN@ 000000018003bfc0     libucrt:lcidtoname_downlevel.obj
 0002:00008fd0       ??_C@_1M@GPCBKDJK@?$AAh?$AAy?$AA?9?$AAA?$AAM@ 000000018003bfd0     libucrt:lcidtoname_downlevel.obj
 0002:00008fe0       ??_C@_1BG@BECMDDJB@?$AAa?$AAz?$AA?9?$AAA?$AAZ?$AA?9?$AAL?$AAa?$AAt?$AAn@ 000000018003bfe0     libucrt:lcidtoname_downlevel.obj
 0002:00008ff8       ??_C@_1M@MAOFCAEA@?$AAe?$AAu?$AA?9?$AAE?$AAS@ 000000018003bff8     libucrt:lcidtoname_downlevel.obj
 0002:00009008       ??_C@_1M@IGHABKPI@?$AAm?$AAk?$AA?9?$AAM?$AAK@ 000000018003c008     libucrt:lcidtoname_downlevel.obj
 0002:00009018       ??_C@_1M@IAIGNEJG@?$AAt?$AAn?$AA?9?$AAZ?$AAA@ 000000018003c018     libucrt:lcidtoname_downlevel.obj
 0002:00009028       ??_C@_1M@IIJCOJFA@?$AAx?$AAh?$AA?9?$AAZ?$AAA@ 000000018003c028     libucrt:lcidtoname_downlevel.obj
 0002:00009038       ??_C@_1M@LGPJHNJH@?$AAz?$AAu?$AA?9?$AAZ?$AAA@ 000000018003c038     libucrt:lcidtoname_downlevel.obj
 0002:00009048       ??_C@_1M@HOKAOIO@?$AAa?$AAf?$AA?9?$AAZ?$AAA@ 000000018003c048     libucrt:lcidtoname_downlevel.obj
 0002:00009058       ??_C@_1M@DPCLHLIE@?$AAk?$AAa?$AA?9?$AAG?$AAE@ 000000018003c058     libucrt:lcidtoname_downlevel.obj
 0002:00009068       ??_C@_1M@BLKMHJBI@?$AAf?$AAo?$AA?9?$AAF?$AAO@ 000000018003c068     libucrt:lcidtoname_downlevel.obj
 0002:00009078       ??_C@_1M@LGGJAPPB@?$AAh?$AAi?$AA?9?$AAI?$AAN@ 000000018003c078     libucrt:lcidtoname_downlevel.obj
 0002:00009088       ??_C@_1M@FIKPIHFE@?$AAm?$AAt?$AA?9?$AAM?$AAT@ 000000018003c088     libucrt:lcidtoname_downlevel.obj
 0002:00009098       ??_C@_1M@HEGGPBFA@?$AAs?$AAe?$AA?9?$AAN?$AAO@ 000000018003c098     libucrt:lcidtoname_downlevel.obj
 0002:000090a8       ??_C@_1M@EIBJEEPA@?$AAm?$AAs?$AA?9?$AAM?$AAY@ 000000018003c0a8     libucrt:lcidtoname_downlevel.obj
 0002:000090b8       ??_C@_1M@FHLBGMPP@?$AAk?$AAk?$AA?9?$AAK?$AAZ@ 000000018003c0b8     libucrt:lcidtoname_downlevel.obj
 0002:000090c8       ??_C@_1M@NGJJLCGI@?$AAk?$AAy?$AA?9?$AAK?$AAG@ 000000018003c0c8     libucrt:lcidtoname_downlevel.obj
 0002:000090d8       ??_C@_1M@GIENNBFC@?$AAs?$AAw?$AA?9?$AAK?$AAE@ 000000018003c0d8     libucrt:lcidtoname_downlevel.obj
 0002:000090e8       ??_C@_1BG@NDGMJIMJ@?$AAu?$AAz?$AA?9?$AAU?$AAZ?$AA?9?$AAL?$AAa?$AAt?$AAn@ 000000018003c0e8     libucrt:lcidtoname_downlevel.obj
 0002:00009100       ??_C@_1M@IDCCIHBC@?$AAt?$AAt?$AA?9?$AAR?$AAU@ 000000018003c100     libucrt:lcidtoname_downlevel.obj
 0002:00009110       ??_C@_1M@LOICPMOJ@?$AAb?$AAn?$AA?9?$AAI?$AAN@ 000000018003c110     libucrt:lcidtoname_downlevel.obj
 0002:00009120       ??_C@_1M@KPKKNEAH@?$AAp?$AAa?$AA?9?$AAI?$AAN@ 000000018003c120     libucrt:lcidtoname_downlevel.obj
 0002:00009130       ??_C@_1M@PJGPPBOG@?$AAg?$AAu?$AA?9?$AAI?$AAN@ 000000018003c130     libucrt:lcidtoname_downlevel.obj
 0002:00009140       ??_C@_1M@KMKMOPHI@?$AAt?$AAa?$AA?9?$AAI?$AAN@ 000000018003c140     libucrt:lcidtoname_downlevel.obj
 0002:00009150       ??_C@_1M@KFEHEPAC@?$AAt?$AAe?$AA?9?$AAI?$AAN@ 000000018003c150     libucrt:lcidtoname_downlevel.obj
 0002:00009160       ??_C@_1M@CDCLMGHI@?$AAk?$AAn?$AA?9?$AAI?$AAN@ 000000018003c160     libucrt:lcidtoname_downlevel.obj
 0002:00009170       ??_C@_1M@MIODLDKF@?$AAm?$AAl?$AA?9?$AAI?$AAN@ 000000018003c170     libucrt:lcidtoname_downlevel.obj
 0002:00009180       ??_C@_1M@PBIEACPO@?$AAm?$AAr?$AA?9?$AAI?$AAN@ 000000018003c180     libucrt:lcidtoname_downlevel.obj
 0002:00009190       ??_C@_1M@NIDEAGPH@?$AAs?$AAa?$AA?9?$AAI?$AAN@ 000000018003c190     libucrt:lcidtoname_downlevel.obj
 0002:000091a0       ??_C@_1M@FHIHCBIO@?$AAm?$AAn?$AA?9?$AAM?$AAN@ 000000018003c1a0     libucrt:lcidtoname_downlevel.obj
 0002:000091b0       ??_C@_1M@JAIJPENP@?$AAc?$AAy?$AA?9?$AAG?$AAB@ 000000018003c1b0     libucrt:lcidtoname_downlevel.obj
 0002:000091c0       ??_C@_1M@PHGFBEPN@?$AAg?$AAl?$AA?9?$AAE?$AAS@ 000000018003c1c0     libucrt:lcidtoname_downlevel.obj
 0002:000091d0       ??_C@_1O@KPIPDNCP@?$AAk?$AAo?$AAk?$AA?9?$AAI?$AAN@ 000000018003c1d0     libucrt:lcidtoname_downlevel.obj
 0002:000091e0       ??_C@_1O@KNHJLDJA@?$AAs?$AAy?$AAr?$AA?9?$AAS?$AAY@ 000000018003c1e0     libucrt:lcidtoname_downlevel.obj
 0002:000091f0       ??_C@_1O@MKEKBLAH@?$AAd?$AAi?$AAv?$AA?9?$AAM?$AAV@ 000000018003c1f0     libucrt:lcidtoname_downlevel.obj
 0002:00009200       ??_C@_1O@OHDCKDDF@?$AAq?$AAu?$AAz?$AA?9?$AAB?$AAO@ 000000018003c200     libucrt:lcidtoname_downlevel.obj
 0002:00009210       ??_C@_1M@LEPJNLFD@?$AAn?$AAs?$AA?9?$AAZ?$AAA@ 000000018003c210     libucrt:lcidtoname_downlevel.obj
 0002:00009220       ??_C@_1M@OMLEIIJB@?$AAm?$AAi?$AA?9?$AAN?$AAZ@ 000000018003c220     libucrt:lcidtoname_downlevel.obj
 0002:00009230       ??_C@_1M@PMPEAILG@?$AAa?$AAr?$AA?9?$AAI?$AAQ@ 000000018003c230     libucrt:lcidtoname_downlevel.obj
 0002:00009240       ??_C@_1M@CNKPNOEE@?$AAd?$AAe?$AA?9?$AAC?$AAH@ 000000018003c240     libucrt:lcidtoname_downlevel.obj
 0002:00009250       ??_C@_1M@LKMGMLKO@?$AAe?$AAn?$AA?9?$AAG?$AAB@ 000000018003c250     libucrt:lcidtoname_downlevel.obj
 0002:00009260       ??_C@_1M@PGKJFFGL@?$AAe?$AAs?$AA?9?$AAM?$AAX@ 000000018003c260     libucrt:lcidtoname_downlevel.obj
 0002:00009270       ??_C@_1M@DNNANBDC@?$AAf?$AAr?$AA?9?$AAB?$AAE@ 000000018003c270     libucrt:lcidtoname_downlevel.obj
 0002:00009280       ??_C@_1M@HLGMDFHM@?$AAi?$AAt?$AA?9?$AAC?$AAH@ 000000018003c280     libucrt:lcidtoname_downlevel.obj
 0002:00009290       ??_C@_1M@CLLBGJH@?$AAn?$AAl?$AA?9?$AAB?$AAE@ 000000018003c290     libucrt:lcidtoname_downlevel.obj
 0002:000092a0       ??_C@_1M@BODBOGLF@?$AAn?$AAn?$AA?9?$AAN?$AAO@ 000000018003c2a0     libucrt:lcidtoname_downlevel.obj
 0002:000092b0       ??_C@_1M@HFFAHKAD@?$AAp?$AAt?$AA?9?$AAP?$AAT@ 000000018003c2b0     libucrt:lcidtoname_downlevel.obj
 0002:000092c0       ??_C@_1BG@LNOAKHIE@?$AAs?$AAr?$AA?9?$AAS?$AAP?$AA?9?$AAL?$AAa?$AAt?$AAn@ 000000018003c2c0     libucrt:lcidtoname_downlevel.obj
 0002:000092d8       ??_C@_1M@HBMHBGAK@?$AAs?$AAv?$AA?9?$AAF?$AAI@ 000000018003c2d8     libucrt:lcidtoname_downlevel.obj
 0002:000092e8       ??_C@_1BG@DGCJGJBE@?$AAa?$AAz?$AA?9?$AAA?$AAZ?$AA?9?$AAC?$AAy?$AAr?$AAl@ 000000018003c2e8     libucrt:lcidtoname_downlevel.obj
 0002:00009300       ??_C@_1M@KEJDAAHB@?$AAs?$AAe?$AA?9?$AAS?$AAE@ 000000018003c300     libucrt:lcidtoname_downlevel.obj
 0002:00009310       ??_C@_1M@HEIBJJAD@?$AAm?$AAs?$AA?9?$AAB?$AAN@ 000000018003c310     libucrt:lcidtoname_downlevel.obj
 0002:00009320       ??_C@_1BG@PBGJMCEM@?$AAu?$AAz?$AA?9?$AAU?$AAZ?$AA?9?$AAC?$AAy?$AAr?$AAl@ 000000018003c320     libucrt:lcidtoname_downlevel.obj
 0002:00009338       ??_C@_1O@LAOBCMDF@?$AAq?$AAu?$AAz?$AA?9?$AAE?$AAC@ 000000018003c338     libucrt:lcidtoname_downlevel.obj
 0002:00009348       ??_C@_1M@POEEMAIO@?$AAa?$AAr?$AA?9?$AAE?$AAG@ 000000018003c348     libucrt:lcidtoname_downlevel.obj
 0002:00009358       ??_C@_1M@EFAKDEDL@?$AAz?$AAh?$AA?9?$AAH?$AAK@ 000000018003c358     libucrt:lcidtoname_downlevel.obj
 0002:00009368       ??_C@_1M@HKKIJHGI@?$AAd?$AAe?$AA?9?$AAA?$AAT@ 000000018003c368     libucrt:lcidtoname_downlevel.obj
 0002:00009378       ??_C@_1M@KBFBEHJF@?$AAe?$AAn?$AA?9?$AAA?$AAU@ 000000018003c378     libucrt:lcidtoname_downlevel.obj
 0002:00009388       ??_C@_1M@MNPLFAAH@?$AAe?$AAs?$AA?9?$AAE?$AAS@ 000000018003c388     libucrt:lcidtoname_downlevel.obj
 0002:00009398       ??_C@_1M@HJOOJFMA@?$AAf?$AAr?$AA?9?$AAC?$AAA@ 000000018003c398     libucrt:lcidtoname_downlevel.obj
 0002:000093a8       ??_C@_1BG@JPOFPNAB@?$AAs?$AAr?$AA?9?$AAS?$AAP?$AA?9?$AAC?$AAy?$AAr?$AAl@ 000000018003c3a8     libucrt:lcidtoname_downlevel.obj
 0002:000093c0       ??_C@_1M@LNFOCMOB@?$AAs?$AAe?$AA?9?$AAF?$AAI@ 000000018003c3c0     libucrt:lcidtoname_downlevel.obj
 0002:000093d0       ??_C@_1O@MGJBOAMB@?$AAq?$AAu?$AAz?$AA?9?$AAP?$AAE@ 000000018003c3d0     libucrt:lcidtoname_downlevel.obj
 0002:000093e0       ??_C@_1M@GJINLBOK@?$AAa?$AAr?$AA?9?$AAL?$AAY@ 000000018003c3e0     libucrt:lcidtoname_downlevel.obj
 0002:000093f0       ??_C@_1M@GGMNHJNL@?$AAz?$AAh?$AA?9?$AAS?$AAG@ 000000018003c3f0     libucrt:lcidtoname_downlevel.obj
 0002:00009400       ??_C@_1M@HOIKODND@?$AAd?$AAe?$AA?9?$AAL?$AAU@ 000000018003c400     libucrt:lcidtoname_downlevel.obj
 0002:00009410       ??_C@_1M@DDOCCGFG@?$AAe?$AAn?$AA?9?$AAC?$AAA@ 000000018003c410     libucrt:lcidtoname_downlevel.obj
 0002:00009420       ??_C@_1M@BNOEMJLF@?$AAe?$AAs?$AA?9?$AAG?$AAT@ 000000018003c420     libucrt:lcidtoname_downlevel.obj
 0002:00009430       ??_C@_1M@EOGNKEK@?$AAf?$AAr?$AA?9?$AAC?$AAH@ 000000018003c430     libucrt:lcidtoname_downlevel.obj
 0002:00009440       ??_C@_1M@FLIDJFHL@?$AAh?$AAr?$AA?9?$AAB?$AAA@ 000000018003c440     libucrt:lcidtoname_downlevel.obj
 0002:00009450       ??_C@_1O@FMCELNAJ@?$AAs?$AAm?$AAj?$AA?9?$AAN?$AAO@ 000000018003c450     libucrt:lcidtoname_downlevel.obj
 0002:00009460       ??_C@_1M@JHGLJMGJ@?$AAa?$AAr?$AA?9?$AAD?$AAZ@ 000000018003c460     libucrt:lcidtoname_downlevel.obj
 0002:00009470       ??_C@_1M@JKKFDCNP@?$AAz?$AAh?$AA?9?$AAM?$AAO@ 000000018003c470     libucrt:lcidtoname_downlevel.obj
 0002:00009480       ??_C@_1M@GEEFALPE@?$AAd?$AAe?$AA?9?$AAL?$AAI@ 000000018003c480     libucrt:lcidtoname_downlevel.obj
 0002:00009490       ??_C@_1M@IGEOFBG@?$AAe?$AAn?$AA?9?$AAN?$AAZ@ 000000018003c490     libucrt:lcidtoname_downlevel.obj
 0002:000094a0       ??_C@_1M@KDBONEHP@?$AAe?$AAs?$AA?9?$AAC?$AAR@ 000000018003c4a0     libucrt:lcidtoname_downlevel.obj
 0002:000094b0       ??_C@_1M@FHMDOHNN@?$AAf?$AAr?$AA?9?$AAL?$AAU@ 000000018003c4b0     libucrt:lcidtoname_downlevel.obj
 0002:000094c0       ??_C@_1BG@NFKKMAFG@?$AAb?$AAs?$AA?9?$AAB?$AAA?$AA?9?$AAL?$AAa?$AAt?$AAn@ 000000018003c4c0     libucrt:lcidtoname_downlevel.obj
 0002:000094d8       ??_C@_1O@IMNBEMCI@?$AAs?$AAm?$AAj?$AA?9?$AAS?$AAE@ 000000018003c4d8     libucrt:lcidtoname_downlevel.obj
 0002:000094e8       ??_C@_1M@DHHMBNDP@?$AAa?$AAr?$AA?9?$AAM?$AAA@ 000000018003c4e8     libucrt:lcidtoname_downlevel.obj
 0002:000094f8       ??_C@_1M@BNBLJCGH@?$AAe?$AAn?$AA?9?$AAI?$AAE@ 000000018003c4f8     libucrt:lcidtoname_downlevel.obj
 0002:00009508       ??_C@_1M@GEPAFMDL@?$AAe?$AAs?$AA?9?$AAP?$AAA@ 000000018003c508     libucrt:lcidtoname_downlevel.obj
 0002:00009518       ??_C@_1M@OJONDMDL@?$AAf?$AAr?$AA?9?$AAM?$AAC@ 000000018003c518     libucrt:lcidtoname_downlevel.obj
 0002:00009528       ??_C@_1BG@OBCNFJB@?$AAs?$AAr?$AA?9?$AAB?$AAA?$AA?9?$AAL?$AAa?$AAt?$AAn@ 000000018003c528     libucrt:lcidtoname_downlevel.obj
 0002:00009540       ??_C@_1O@KEMEEGPO@?$AAs?$AAm?$AAa?$AA?9?$AAN?$AAO@ 000000018003c540     libucrt:lcidtoname_downlevel.obj
 0002:00009550       ??_C@_1M@ELMGFODK@?$AAa?$AAr?$AA?9?$AAT?$AAN@ 000000018003c550     libucrt:lcidtoname_downlevel.obj
 0002:00009560       ??_C@_1M@BHDLHFAF@?$AAe?$AAn?$AA?9?$AAZ?$AAA@ 000000018003c560     libucrt:lcidtoname_downlevel.obj
 0002:00009570       ??_C@_1M@BMGIGLIF@?$AAe?$AAs?$AA?9?$AAD?$AAO@ 000000018003c570     libucrt:lcidtoname_downlevel.obj
 0002:00009580       ??_C@_1BG@CMBHIPBE@?$AAs?$AAr?$AA?9?$AAB?$AAA?$AA?9?$AAC?$AAy?$AAr?$AAl@ 000000018003c580     libucrt:lcidtoname_downlevel.obj
 0002:00009598       ??_C@_1O@HEDBLHNP@?$AAs?$AAm?$AAa?$AA?9?$AAS?$AAE@ 000000018003c598     libucrt:lcidtoname_downlevel.obj
 0002:000095a8       ??_C@_1M@DAGCADIM@?$AAa?$AAr?$AA?9?$AAO?$AAM@ 000000018003c5a8     libucrt:lcidtoname_downlevel.obj
 0002:000095b8       ??_C@_1M@FODLMICG@?$AAe?$AAn?$AA?9?$AAJ?$AAM@ 000000018003c5b8     libucrt:lcidtoname_downlevel.obj
 0002:000095c8       ??_C@_1M@DNMLCIHB@?$AAe?$AAs?$AA?9?$AAV?$AAE@ 000000018003c5c8     libucrt:lcidtoname_downlevel.obj
 0002:000095d8       ??_C@_1O@EOKHMKJK@?$AAs?$AAm?$AAs?$AA?9?$AAF?$AAI@ 000000018003c5d8     libucrt:lcidtoname_downlevel.obj
 0002:000095e8       ??_C@_1M@CAFJMKOF@?$AAa?$AAr?$AA?9?$AAY?$AAE@ 000000018003c5e8     libucrt:lcidtoname_downlevel.obj
 0002:000095f8       ??_C@_1M@CBFHIJLI@?$AAe?$AAn?$AA?9?$AAC?$AAB@ 000000018003c5f8     libucrt:lcidtoname_downlevel.obj
 0002:00009608       ??_C@_1M@BGNFLDN@?$AAe?$AAs?$AA?9?$AAC?$AAO@ 000000018003c608     libucrt:lcidtoname_downlevel.obj
 0002:00009618       ??_C@_1O@JMPHMAMC@?$AAs?$AAm?$AAn?$AA?9?$AAF?$AAI@ 000000018003c618     libucrt:lcidtoname_downlevel.obj
 0002:00009628       ??_C@_1M@JLANABKE@?$AAa?$AAr?$AA?9?$AAS?$AAY@ 000000018003c628     libucrt:lcidtoname_downlevel.obj
 0002:00009638       ??_C@_1M@HPKGCFGN@?$AAe?$AAn?$AA?9?$AAB?$AAZ@ 000000018003c638     libucrt:lcidtoname_downlevel.obj
 0002:00009648       ??_C@_1M@OLJCMLGM@?$AAe?$AAs?$AA?9?$AAP?$AAE@ 000000018003c648     libucrt:lcidtoname_downlevel.obj
 0002:00009658       ??_C@_1M@MKKGFKLE@?$AAa?$AAr?$AA?9?$AAJ?$AAO@ 000000018003c658     libucrt:lcidtoname_downlevel.obj
 0002:00009668       ??_C@_1M@EKPGLDNI@?$AAe?$AAn?$AA?9?$AAT?$AAT@ 000000018003c668     libucrt:lcidtoname_downlevel.obj
 0002:00009678       ??_C@_1M@OONGHFHE@?$AAe?$AAs?$AA?9?$AAA?$AAR@ 000000018003c678     libucrt:lcidtoname_downlevel.obj
 0002:00009688       ??_C@_1M@OOJFGBHE@?$AAa?$AAr?$AA?9?$AAL?$AAB@ 000000018003c688     libucrt:lcidtoname_downlevel.obj
 0002:00009698       ??_C@_1M@GCEJHNEG@?$AAe?$AAn?$AA?9?$AAZ?$AAW@ 000000018003c698     libucrt:lcidtoname_downlevel.obj
 0002:000096a8       ??_C@_1M@JNOCAHJI@?$AAe?$AAs?$AA?9?$AAE?$AAC@ 000000018003c6a8     libucrt:lcidtoname_downlevel.obj
 0002:000096b8       ??_C@_1M@JEFHPGGB@?$AAa?$AAr?$AA?9?$AAK?$AAW@ 000000018003c6b8     libucrt:lcidtoname_downlevel.obj
 0002:000096c8       ??_C@_1M@MLKIBJOJ@?$AAe?$AAn?$AA?9?$AAP?$AAH@ 000000018003c6c8     libucrt:lcidtoname_downlevel.obj
 0002:000096d8       ??_C@_1M@BDNIPEND@?$AAe?$AAs?$AA?9?$AAC?$AAL@ 000000018003c6d8     libucrt:lcidtoname_downlevel.obj
 0002:000096e8       ??_C@_1M@MPNMEKBD@?$AAa?$AAr?$AA?9?$AAA?$AAE@ 000000018003c6e8     libucrt:lcidtoname_downlevel.obj
 0002:000096f8       ??_C@_1M@KBJALCPI@?$AAe?$AAs?$AA?9?$AAU?$AAY@ 000000018003c6f8     libucrt:lcidtoname_downlevel.obj
 0002:00009708       ??_C@_1M@LLCCOAGA@?$AAa?$AAr?$AA?9?$AAB?$AAH@ 000000018003c708     libucrt:lcidtoname_downlevel.obj
 0002:00009718       ??_C@_1M@PBFNCDEL@?$AAe?$AAs?$AA?9?$AAP?$AAY@ 000000018003c718     libucrt:lcidtoname_downlevel.obj
 0002:00009728       ??_C@_1M@EDGINPNP@?$AAa?$AAr?$AA?9?$AAQ?$AAA@ 000000018003c728     libucrt:lcidtoname_downlevel.obj
 0002:00009738       ??_C@_1M@MKDBIIJI@?$AAe?$AAs?$AA?9?$AAB?$AAO@ 000000018003c738     libucrt:lcidtoname_downlevel.obj
 0002:00009748       ??_C@_1M@CPKKEBLD@?$AAe?$AAs?$AA?9?$AAS?$AAV@ 000000018003c748     libucrt:lcidtoname_downlevel.obj
 0002:00009758       ??_C@_1M@NDBGMMJL@?$AAe?$AAs?$AA?9?$AAH?$AAN@ 000000018003c758     libucrt:lcidtoname_downlevel.obj
 0002:00009768       ??_C@_1M@JIJIBHDP@?$AAe?$AAs?$AA?9?$AAN?$AAI@ 000000018003c768     libucrt:lcidtoname_downlevel.obj
 0002:00009778       ??_C@_1M@CGFMKEEK@?$AAe?$AAs?$AA?9?$AAP?$AAR@ 000000018003c778     libucrt:lcidtoname_downlevel.obj
 0002:00009788       ??_C@_1O@ICJHKIIK@?$AAz?$AAh?$AA?9?$AAC?$AAH?$AAT@ 000000018003c788     libucrt:lcidtoname_downlevel.obj
 0002:00009798       ??_C@_15CLNEJCE@?$AAs?$AAr@ 000000018003c798     libucrt:lcidtoname_downlevel.obj
 0002:0000a5e0       ??_C@_1M@KAHEKEIG@?$AAa?$AAf?$AA?9?$AAz?$AAa@ 000000018003d5e0     libucrt:lcidtoname_downlevel.obj
 0002:0000a5f0       ??_C@_1M@GIECOABL@?$AAa?$AAr?$AA?9?$AAa?$AAe@ 000000018003d5f0     libucrt:lcidtoname_downlevel.obj
 0002:0000a600       ??_C@_1M@BMLMEKGI@?$AAa?$AAr?$AA?9?$AAb?$AAh@ 000000018003d600     libucrt:lcidtoname_downlevel.obj
 0002:0000a610       ??_C@_1M@DAPFDGGB@?$AAa?$AAr?$AA?9?$AAd?$AAz@ 000000018003d610     libucrt:lcidtoname_downlevel.obj
 0002:0000a620       ??_C@_1M@FJNKGKIG@?$AAa?$AAr?$AA?9?$AAe?$AAg@ 000000018003d620     libucrt:lcidtoname_downlevel.obj
 0002:0000a630       ??_C@_1M@FLGKKCLO@?$AAa?$AAr?$AA?9?$AAi?$AAq@ 000000018003d630     libucrt:lcidtoname_downlevel.obj
 0002:0000a640       ??_C@_1M@GNDIPALM@?$AAa?$AAr?$AA?9?$AAj?$AAo@ 000000018003d640     libucrt:lcidtoname_downlevel.obj
 0002:0000a650       ??_C@_1M@DDMJFMGJ@?$AAa?$AAr?$AA?9?$AAk?$AAw@ 000000018003d650     libucrt:lcidtoname_downlevel.obj
 0002:0000a660       ??_C@_1M@EJALMLHM@?$AAa?$AAr?$AA?9?$AAl?$AAb@ 000000018003d660     libucrt:lcidtoname_downlevel.obj
 0002:0000a670       ??_C@_1M@MOBDBLOC@?$AAa?$AAr?$AA?9?$AAl?$AAy@ 000000018003d670     libucrt:lcidtoname_downlevel.obj
 0002:0000a680       ??_C@_1M@JAOCLHDH@?$AAa?$AAr?$AA?9?$AAm?$AAa@ 000000018003d680     libucrt:lcidtoname_downlevel.obj
 0002:0000a690       ??_C@_1M@JHPMKJIE@?$AAa?$AAr?$AA?9?$AAo?$AAm@ 000000018003d690     libucrt:lcidtoname_downlevel.obj
 0002:0000a6a0       ??_C@_1M@OEPGHFNH@?$AAa?$AAr?$AA?9?$AAq?$AAa@ 000000018003d6a0     libucrt:lcidtoname_downlevel.obj
 0002:0000a6b0       ??_C@_1M@KJDONENM@?$AAa?$AAr?$AA?9?$AAs?$AAa@ 000000018003d6b0     libucrt:lcidtoname_downlevel.obj
 0002:0000a6c0       ??_C@_1M@DMJDKLKM@?$AAa?$AAr?$AA?9?$AAs?$AAy@ 000000018003d6c0     libucrt:lcidtoname_downlevel.obj
 0002:0000a6d0       ??_C@_1M@OMFIPEDC@?$AAa?$AAr?$AA?9?$AAt?$AAn@ 000000018003d6d0     libucrt:lcidtoname_downlevel.obj
 0002:0000a6e0       ??_C@_1M@IHMHGAON@?$AAa?$AAr?$AA?9?$AAy?$AAe@ 000000018003d6e0     libucrt:lcidtoname_downlevel.obj
 0002:0000a6f0       ??_C@_1BG@KDCPGJGB@?$AAa?$AAz?$AA?9?$AAa?$AAz?$AA?9?$AAc?$AAy?$AAr?$AAl@ 000000018003d6f0     libucrt:lcidtoname_downlevel.obj
 0002:0000a708       ??_C@_1BG@IBCKDDOE@?$AAa?$AAz?$AA?9?$AAa?$AAz?$AA?9?$AAl?$AAa?$AAt?$AAn@ 000000018003d708     libucrt:lcidtoname_downlevel.obj
 0002:0000a720       ??_C@_1M@EGPFDCPD@?$AAb?$AAe?$AA?9?$AAb?$AAy@ 000000018003d720     libucrt:lcidtoname_downlevel.obj
 0002:0000a730       ??_C@_1M@PCMGMCGC@?$AAb?$AAg?$AA?9?$AAb?$AAg@ 000000018003d730     libucrt:lcidtoname_downlevel.obj
 0002:0000a740       ??_C@_1M@BJBMFGOB@?$AAb?$AAn?$AA?9?$AAi?$AAn@ 000000018003d740     libucrt:lcidtoname_downlevel.obj
 0002:0000a750       ??_C@_1BG@EAKMMACD@?$AAb?$AAs?$AA?9?$AAb?$AAa?$AA?9?$AAl?$AAa?$AAt?$AAn@ 000000018003d750     libucrt:lcidtoname_downlevel.obj
 0002:0000a768       ??_C@_1M@KGADAODK@?$AAc?$AAa?$AA?9?$AAe?$AAs@ 000000018003d768     libucrt:lcidtoname_downlevel.obj
 0002:0000a778       ??_C@_1M@COAJPDHI@?$AAc?$AAs?$AA?9?$AAc?$AAz@ 000000018003d778     libucrt:lcidtoname_downlevel.obj
 0002:0000a788       ??_C@_1M@DHBHFONH@?$AAc?$AAy?$AA?9?$AAg?$AAb@ 000000018003d788     libucrt:lcidtoname_downlevel.obj
 0002:0000a798       ??_C@_1M@IMGKELGA@?$AAd?$AAa?$AA?9?$AAd?$AAk@ 000000018003d798     libucrt:lcidtoname_downlevel.obj
 0002:0000a7a8       ??_C@_1M@NNDGDNGA@?$AAd?$AAe?$AA?9?$AAa?$AAt@ 000000018003d7a8     libucrt:lcidtoname_downlevel.obj
 0002:0000a7b8       ??_C@_1M@IKDBHEEM@?$AAd?$AAe?$AA?9?$AAc?$AAh@ 000000018003d7b8     libucrt:lcidtoname_downlevel.obj
 0002:0000a7c8       ??_C@_1M@GFFOJMCJ@?$AAd?$AAe?$AA?9?$AAd?$AAe@ 000000018003d7c8     libucrt:lcidtoname_downlevel.obj
 0002:0000a7d8       ??_C@_1M@MDNLKBPM@?$AAd?$AAe?$AA?9?$AAl?$AAi@ 000000018003d7d8     libucrt:lcidtoname_downlevel.obj
 0002:0000a7e8       ??_C@_1M@NJBEEJNL@?$AAd?$AAe?$AA?9?$AAl?$AAu@ 000000018003d7e8     libucrt:lcidtoname_downlevel.obj
 0002:0000a7f8       ??_C@_1O@GNNELBAP@?$AAd?$AAi?$AAv?$AA?9?$AAm?$AAv@ 000000018003d7f8     libucrt:lcidtoname_downlevel.obj
 0002:0000a808       ??_C@_1M@EJLEOGAE@?$AAe?$AAl?$AA?9?$AAg?$AAr@ 000000018003d808     libucrt:lcidtoname_downlevel.obj
 0002:0000a818       ??_C@_1M@GMPONJN@?$AAe?$AAn?$AA?9?$AAa?$AAu@ 000000018003d818     libucrt:lcidtoname_downlevel.obj
 0002:0000a828       ??_C@_1M@NIDIIPGF@?$AAe?$AAn?$AA?9?$AAb?$AAz@ 000000018003d828     libucrt:lcidtoname_downlevel.obj
 0002:0000a838       ??_C@_1M@JEHMIMFO@?$AAe?$AAn?$AA?9?$AAc?$AAa@ 000000018003d838     libucrt:lcidtoname_downlevel.obj
 0002:0000a848       ??_C@_1M@IGMJCDLA@?$AAe?$AAn?$AA?9?$AAc?$AAb@ 000000018003d848     libucrt:lcidtoname_downlevel.obj
 0002:0000a858       ??_C@_1M@BNFIGBKG@?$AAe?$AAn?$AA?9?$AAg?$AAb@ 000000018003d858     libucrt:lcidtoname_downlevel.obj
 0002:0000a868       ??_C@_1M@LKIFDIGP@?$AAe?$AAn?$AA?9?$AAi?$AAe@ 000000018003d868     libucrt:lcidtoname_downlevel.obj
 0002:0000a878       ??_C@_1M@PJKFGCCO@?$AAe?$AAn?$AA?9?$AAj?$AAm@ 000000018003d878     libucrt:lcidtoname_downlevel.obj
 0002:0000a888       ??_C@_1M@KPPKEPBO@?$AAe?$AAn?$AA?9?$AAn?$AAz@ 000000018003d888     libucrt:lcidtoname_downlevel.obj
 0002:0000a898       ??_C@_1M@GMDGLDOB@?$AAe?$AAn?$AA?9?$AAp?$AAh@ 000000018003d898     libucrt:lcidtoname_downlevel.obj
 0002:0000a8a8       ??_C@_1M@ONGIBJNA@?$AAe?$AAn?$AA?9?$AAt?$AAt@ 000000018003d8a8     libucrt:lcidtoname_downlevel.obj
 0002:0000a8b8       ??_C@_1M@LLODPCMM@?$AAe?$AAn?$AA?9?$AAu?$AAs@ 000000018003d8b8     libucrt:lcidtoname_downlevel.obj
 0002:0000a8c8       ??_C@_1M@LAKFNPAN@?$AAe?$AAn?$AA?9?$AAz?$AAa@ 000000018003d8c8     libucrt:lcidtoname_downlevel.obj
 0002:0000a8d8       ??_C@_1M@MFNHNHEO@?$AAe?$AAn?$AA?9?$AAz?$AAw@ 000000018003d8d8     libucrt:lcidtoname_downlevel.obj
 0002:0000a8e8       ??_C@_1M@EJEINPHM@?$AAe?$AAs?$AA?9?$AAa?$AAr@ 000000018003d8e8     libucrt:lcidtoname_downlevel.obj
 0002:0000a8f8       ??_C@_1M@GNKPCCJA@?$AAe?$AAs?$AA?9?$AAb?$AAo@ 000000018003d8f8     libucrt:lcidtoname_downlevel.obj
 0002:0000a908       ??_C@_1M@LEEGFONL@?$AAe?$AAs?$AA?9?$AAc?$AAl@ 000000018003d908     libucrt:lcidtoname_downlevel.obj
 0002:0000a918       ??_C@_1M@KGPDPBDF@?$AAe?$AAs?$AA?9?$AAc?$AAo@ 000000018003d918     libucrt:lcidtoname_downlevel.obj
 0002:0000a928       ??_C@_1M@EIAHOHH@?$AAe?$AAs?$AA?9?$AAc?$AAr@ 000000018003d928     libucrt:lcidtoname_downlevel.obj
 0002:0000a938       ??_C@_1M@LLPGMBIN@?$AAe?$AAs?$AA?9?$AAd?$AAo@ 000000018003d938     libucrt:lcidtoname_downlevel.obj
 0002:0000a948       ??_C@_1M@DKHMKNJA@?$AAe?$AAs?$AA?9?$AAe?$AAc@ 000000018003d948     libucrt:lcidtoname_downlevel.obj
 0002:0000a958       ??_C@_1M@GKGFPKAP@?$AAe?$AAs?$AA?9?$AAe?$AAs@ 000000018003d958     libucrt:lcidtoname_downlevel.obj
 0002:0000a968       ??_C@_1M@LKHKGDLN@?$AAe?$AAs?$AA?9?$AAg?$AAt@ 000000018003d968     libucrt:lcidtoname_downlevel.obj
 0002:0000a978       ??_C@_1M@HEIIGGJD@?$AAe?$AAs?$AA?9?$AAh?$AAn@ 000000018003d978     libucrt:lcidtoname_downlevel.obj
 0002:0000a988       ??_C@_1M@FBDHPPGD@?$AAe?$AAs?$AA?9?$AAm?$AAx@ 000000018003d988     libucrt:lcidtoname_downlevel.obj
 0002:0000a998       ??_C@_1M@DPAGLNDH@?$AAe?$AAs?$AA?9?$AAn?$AAi@ 000000018003d998     libucrt:lcidtoname_downlevel.obj
 0002:0000a9a8       ??_C@_1M@MDGOPGDD@?$AAe?$AAs?$AA?9?$AAp?$AAa@ 000000018003d9a8     libucrt:lcidtoname_downlevel.obj
 0002:0000a9b8       ??_C@_1M@EMAMGBGE@?$AAe?$AAs?$AA?9?$AAp?$AAe@ 000000018003d9b8     libucrt:lcidtoname_downlevel.obj
 0002:0000a9c8       ??_C@_1M@IBMCAOEC@?$AAe?$AAs?$AA?9?$AAp?$AAr@ 000000018003d9c8     libucrt:lcidtoname_downlevel.obj
 0002:0000a9d8       ??_C@_1M@FGMDIJED@?$AAe?$AAs?$AA?9?$AAp?$AAy@ 000000018003d9d8     libucrt:lcidtoname_downlevel.obj
 0002:0000a9e8       ??_C@_1M@IIDEOLLL@?$AAe?$AAs?$AA?9?$AAs?$AAv@ 000000018003d9e8     libucrt:lcidtoname_downlevel.obj
 0002:0000a9f8       ??_C@_1M@GAOBIPA@?$AAe?$AAs?$AA?9?$AAu?$AAy@ 000000018003d9f8     libucrt:lcidtoname_downlevel.obj
 0002:0000aa08       ??_C@_1M@JKFFICHJ@?$AAe?$AAs?$AA?9?$AAv?$AAe@ 000000018003da08     libucrt:lcidtoname_downlevel.obj
 0002:0000aa18       ??_C@_1M@PNMLOJDF@?$AAe?$AAt?$AA?9?$AAe?$AAe@ 000000018003da18     libucrt:lcidtoname_downlevel.obj
 0002:0000aa28       ??_C@_1M@GHHLIKEI@?$AAe?$AAu?$AA?9?$AAe?$AAs@ 000000018003da28     libucrt:lcidtoname_downlevel.obj
 0002:0000aa38       ??_C@_1M@PBNONODE@?$AAf?$AAa?$AA?9?$AAi?$AAr@ 000000018003da38     libucrt:lcidtoname_downlevel.obj
 0002:0000aa48       ??_C@_1M@JEEHPMIL@?$AAf?$AAi?$AA?9?$AAf?$AAi@ 000000018003da48     libucrt:lcidtoname_downlevel.obj
 0002:0000aa58       ??_C@_1M@LMDCNDBA@?$AAf?$AAo?$AA?9?$AAf?$AAo@ 000000018003da58     libucrt:lcidtoname_downlevel.obj
 0002:0000aa68       ??_C@_1M@JKEOHLDK@?$AAf?$AAr?$AA?9?$AAb?$AAe@ 000000018003da68     libucrt:lcidtoname_downlevel.obj
 0002:0000aa78       ??_C@_1M@NOHADPMI@?$AAf?$AAr?$AA?9?$AAc?$AAa@ 000000018003da78     libucrt:lcidtoname_downlevel.obj
 0002:0000aa88       ??_C@_1M@KDHIHAEC@?$AAf?$AAr?$AA?9?$AAc?$AAh@ 000000018003da88     libucrt:lcidtoname_downlevel.obj
 0002:0000aa98       ??_C@_1M@MMBBFGAK@?$AAf?$AAr?$AA?9?$AAf?$AAr@ 000000018003da98     libucrt:lcidtoname_downlevel.obj
 0002:0000aaa8       ??_C@_1M@PAFNENNF@?$AAf?$AAr?$AA?9?$AAl?$AAu@ 000000018003daa8     libucrt:lcidtoname_downlevel.obj
 0002:0000aab8       ??_C@_1M@EOHDJGDD@?$AAf?$AAr?$AA?9?$AAm?$AAc@ 000000018003dab8     libucrt:lcidtoname_downlevel.obj
 0002:0000aac8       ??_C@_1M@FAPLLOPF@?$AAg?$AAl?$AA?9?$AAe?$AAs@ 000000018003dac8     libucrt:lcidtoname_downlevel.obj
 0002:0000aad8       ??_C@_1M@FOPBFLOO@?$AAg?$AAu?$AA?9?$AAi?$AAn@ 000000018003dad8     libucrt:lcidtoname_downlevel.obj
 0002:0000aae8       ??_C@_1M@KBMCINPM@?$AAh?$AAe?$AA?9?$AAi?$AAl@ 000000018003dae8     libucrt:lcidtoname_downlevel.obj
 0002:0000aaf8       ??_C@_1M@BBPHKFPJ@?$AAh?$AAi?$AA?9?$AAi?$AAn@ 000000018003daf8     libucrt:lcidtoname_downlevel.obj
 0002:0000ab08       ??_C@_1M@PMBNDPHD@?$AAh?$AAr?$AA?9?$AAb?$AAa@ 000000018003db08     libucrt:lcidtoname_downlevel.obj
 0002:0000ab18       ??_C@_1M@BPCKOEGE@?$AAh?$AAr?$AA?9?$AAh?$AAr@ 000000018003db18     libucrt:lcidtoname_downlevel.obj
 0002:0000ab28       ??_C@_1M@GACBMHKE@?$AAh?$AAu?$AA?9?$AAh?$AAu@ 000000018003db28     libucrt:lcidtoname_downlevel.obj
 0002:0000ab38       ??_C@_1M@MILPAJJC@?$AAh?$AAy?$AA?9?$AAa?$AAm@ 000000018003db38     libucrt:lcidtoname_downlevel.obj
 0002:0000ab48       ??_C@_1M@BABBICEC@?$AAi?$AAd?$AA?9?$AAi?$AAd@ 000000018003db48     libucrt:lcidtoname_downlevel.obj
 0002:0000ab58       ??_C@_1M@BIKNHHPF@?$AAi?$AAs?$AA?9?$AAi?$AAs@ 000000018003db58     libucrt:lcidtoname_downlevel.obj
 0002:0000ab68       ??_C@_1M@NMPCJPHE@?$AAi?$AAt?$AA?9?$AAc?$AAh@ 000000018003db68     libucrt:lcidtoname_downlevel.obj
 0002:0000ab78       ??_C@_1M@GHKGFEDF@?$AAi?$AAt?$AA?9?$AAi?$AAt@ 000000018003db78     libucrt:lcidtoname_downlevel.obj
 0002:0000ab88       ??_C@_1M@NIEJCJJA@?$AAj?$AAa?$AA?9?$AAj?$AAp@ 000000018003db88     libucrt:lcidtoname_downlevel.obj
 0002:0000ab98       ??_C@_1M@JILFNBIM@?$AAk?$AAa?$AA?9?$AAg?$AAe@ 000000018003db98     libucrt:lcidtoname_downlevel.obj
 0002:0000aba8       ??_C@_1M@PACPMGPH@?$AAk?$AAk?$AA?9?$AAk?$AAz@ 000000018003dba8     libucrt:lcidtoname_downlevel.obj
 0002:0000abb8       ??_C@_1M@IELFGMHA@?$AAk?$AAn?$AA?9?$AAi?$AAn@ 000000018003dbb8     libucrt:lcidtoname_downlevel.obj
 0002:0000abc8       ??_C@_1O@IBBJHCH@?$AAk?$AAo?$AAk?$AA?9?$AAi?$AAn@ 000000018003dbc8     libucrt:lcidtoname_downlevel.obj
 0002:0000abd8       ??_C@_1M@DMHAEOGC@?$AAk?$AAo?$AA?9?$AAk?$AAr@ 000000018003dbd8     libucrt:lcidtoname_downlevel.obj
 0002:0000abe8       ??_C@_1M@HBAHBIGA@?$AAk?$AAy?$AA?9?$AAk?$AAg@ 000000018003dbe8     libucrt:lcidtoname_downlevel.obj
 0002:0000abf8       ??_C@_1M@KPMILCJG@?$AAl?$AAt?$AA?9?$AAl?$AAt@ 000000018003dbf8     libucrt:lcidtoname_downlevel.obj
 0002:0000ac08       ??_C@_1M@BDEKKCA@?$AAl?$AAv?$AA?9?$AAl?$AAv@ 000000018003dc08     libucrt:lcidtoname_downlevel.obj
 0002:0000ac18       ??_C@_1M@ELCKCCJJ@?$AAm?$AAi?$AA?9?$AAn?$AAz@ 000000018003dc18     libucrt:lcidtoname_downlevel.obj
 0002:0000ac28       ??_C@_1M@CBOOLAPA@?$AAm?$AAk?$AA?9?$AAm?$AAk@ 000000018003dc28     libucrt:lcidtoname_downlevel.obj
 0002:0000ac38       ??_C@_1M@GPHNBJKN@?$AAm?$AAl?$AA?9?$AAi?$AAn@ 000000018003dc38     libucrt:lcidtoname_downlevel.obj
 0002:0000ac48       ??_C@_1M@PABJILIG@?$AAm?$AAn?$AA?9?$AAm?$AAn@ 000000018003dc48     libucrt:lcidtoname_downlevel.obj
 0002:0000ac58       ??_C@_1M@FGBKKIPG@?$AAm?$AAr?$AA?9?$AAi?$AAn@ 000000018003dc58     libucrt:lcidtoname_downlevel.obj
 0002:0000ac68       ??_C@_1M@NDBPDDAL@?$AAm?$AAs?$AA?9?$AAb?$AAn@ 000000018003dc68     libucrt:lcidtoname_downlevel.obj
 0002:0000ac78       ??_C@_1M@OPIHOOPI@?$AAm?$AAs?$AA?9?$AAm?$AAy@ 000000018003dc78     libucrt:lcidtoname_downlevel.obj
 0002:0000ac88       ??_C@_1M@PPDBCNFM@?$AAm?$AAt?$AA?9?$AAm?$AAt@ 000000018003dc88     libucrt:lcidtoname_downlevel.obj
 0002:0000ac98       ??_C@_1M@KDJDKMDD@?$AAn?$AAb?$AA?9?$AAn?$AAo@ 000000018003dc98     libucrt:lcidtoname_downlevel.obj
 0002:0000aca8       ??_C@_1M@KFCFLMJP@?$AAn?$AAl?$AA?9?$AAb?$AAe@ 000000018003dca8     libucrt:lcidtoname_downlevel.obj
 0002:0000acb8       ??_C@_1M@KPOPDDGO@?$AAn?$AAl?$AA?9?$AAn?$AAl@ 000000018003dcb8     libucrt:lcidtoname_downlevel.obj
 0002:0000acc8       ??_C@_1M@LJKPEMLN@?$AAn?$AAn?$AA?9?$AAn?$AAo@ 000000018003dcc8     libucrt:lcidtoname_downlevel.obj
 0002:0000acd8       ??_C@_1M@BDGHHBFL@?$AAn?$AAs?$AA?9?$AAz?$AAa@ 000000018003dcd8     libucrt:lcidtoname_downlevel.obj
 0002:0000ace8       ??_C@_1M@IDEHOAP@?$AAp?$AAa?$AA?9?$AAi?$AAn@ 000000018003dce8     libucrt:lcidtoname_downlevel.obj
 0002:0000acf8       ??_C@_1M@HDBKGOGH@?$AAp?$AAl?$AA?9?$AAp?$AAl@ 000000018003dcf8     libucrt:lcidtoname_downlevel.obj
 0002:0000ad08       ??_C@_1M@LJLLCMEH@?$AAp?$AAt?$AA?9?$AAb?$AAr@ 000000018003dd08     libucrt:lcidtoname_downlevel.obj
 0002:0000ad18       ??_C@_1M@NCMONAAL@?$AAp?$AAt?$AA?9?$AAp?$AAt@ 000000018003dd18     libucrt:lcidtoname_downlevel.obj
 0002:0000ad28       ??_C@_1O@EAKMAJDN@?$AAq?$AAu?$AAz?$AA?9?$AAb?$AAo@ 000000018003dd28     libucrt:lcidtoname_downlevel.obj
 0002:0000ad38       ??_C@_1O@BHHPIGDN@?$AAq?$AAu?$AAz?$AA?9?$AAe?$AAc@ 000000018003dd38     libucrt:lcidtoname_downlevel.obj
 0002:0000ad48       ??_C@_1O@GBAPEKMJ@?$AAq?$AAu?$AAz?$AA?9?$AAp?$AAe@ 000000018003dd48     libucrt:lcidtoname_downlevel.obj
 0002:0000ad58       ??_C@_1M@CLGLEFBO@?$AAr?$AAo?$AA?9?$AAr?$AAo@ 000000018003dd58     libucrt:lcidtoname_downlevel.obj
 0002:0000ad68       ??_C@_1M@CEEDODME@?$AAr?$AAu?$AA?9?$AAr?$AAu@ 000000018003dd68     libucrt:lcidtoname_downlevel.obj
 0002:0000ad78       ??_C@_1M@HPKKKMPP@?$AAs?$AAa?$AA?9?$AAi?$AAn@ 000000018003dd78     libucrt:lcidtoname_downlevel.obj
 0002:0000ad88       ??_C@_1M@BKMAIGOJ@?$AAs?$AAe?$AA?9?$AAf?$AAi@ 000000018003dd88     libucrt:lcidtoname_downlevel.obj
 0002:0000ad98       ??_C@_1M@NDPIFLFI@?$AAs?$AAe?$AA?9?$AAn?$AAo@ 000000018003dd98     libucrt:lcidtoname_downlevel.obj
 0002:0000ada8       ??_C@_1M@DANKKHJ@?$AAs?$AAe?$AA?9?$AAs?$AAe@ 000000018003dda8     libucrt:lcidtoname_downlevel.obj
 0002:0000adb8       ??_C@_1M@PNBLONPJ@?$AAs?$AAk?$AA?9?$AAs?$AAk@ 000000018003ddb8     libucrt:lcidtoname_downlevel.obj
 0002:0000adc8       ??_C@_1M@LFMODOAL@?$AAs?$AAl?$AA?9?$AAs?$AAi@ 000000018003ddc8     libucrt:lcidtoname_downlevel.obj
 0002:0000add8       ??_C@_1O@DFKOMPG@?$AAs?$AAm?$AAa?$AA?9?$AAn?$AAo@ 000000018003ddd8     libucrt:lcidtoname_downlevel.obj
 0002:0000ade8       ??_C@_1O@NDKPBNNH@?$AAs?$AAm?$AAa?$AA?9?$AAs?$AAe@ 000000018003dde8     libucrt:lcidtoname_downlevel.obj
 0002:0000adf8       ??_C@_1O@PLLKBHAB@?$AAs?$AAm?$AAj?$AA?9?$AAn?$AAo@ 000000018003ddf8     libucrt:lcidtoname_downlevel.obj
 0002:0000ae08       ??_C@_1O@CLEPOGCA@?$AAs?$AAm?$AAj?$AA?9?$AAs?$AAe@ 000000018003de08     libucrt:lcidtoname_downlevel.obj
 0002:0000ae18       ??_C@_1O@DLGJGKMK@?$AAs?$AAm?$AAn?$AA?9?$AAf?$AAi@ 000000018003de18     libucrt:lcidtoname_downlevel.obj
 0002:0000ae28       ??_C@_1O@OJDJGAJC@?$AAs?$AAm?$AAs?$AA?9?$AAf?$AAi@ 000000018003de28     libucrt:lcidtoname_downlevel.obj
 0002:0000ae38       ??_C@_1M@BOFOGHPB@?$AAs?$AAq?$AA?9?$AAa?$AAl@ 000000018003de38     libucrt:lcidtoname_downlevel.obj
 0002:0000ae48       ??_C@_1BG@LJBBIPGB@?$AAs?$AAr?$AA?9?$AAb?$AAa?$AA?9?$AAc?$AAy?$AAr?$AAl@ 000000018003de48     libucrt:lcidtoname_downlevel.obj
 0002:0000ae60       ??_C@_1BG@JLBENFOE@?$AAs?$AAr?$AA?9?$AAb?$AAa?$AA?9?$AAl?$AAa?$AAt?$AAn@ 000000018003de60     libucrt:lcidtoname_downlevel.obj
 0002:0000ae78       ??_C@_1BG@KODPNHE@?$AAs?$AAr?$AA?9?$AAs?$AAp?$AA?9?$AAc?$AAy?$AAr?$AAl@ 000000018003de78     libucrt:lcidtoname_downlevel.obj
 0002:0000ae90       ??_C@_1BG@CIOGKHPB@?$AAs?$AAr?$AA?9?$AAs?$AAp?$AA?9?$AAl?$AAa?$AAt?$AAn@ 000000018003de90     libucrt:lcidtoname_downlevel.obj
 0002:0000aea8       ??_C@_1M@NGFJLMAC@?$AAs?$AAv?$AA?9?$AAf?$AAi@ 000000018003dea8     libucrt:lcidtoname_downlevel.obj
 0002:0000aeb8       ??_C@_1M@MPJEJAJC@?$AAs?$AAv?$AA?9?$AAs?$AAe@ 000000018003deb8     libucrt:lcidtoname_downlevel.obj
 0002:0000aec8       ??_C@_1M@MPNDHLFK@?$AAs?$AAw?$AA?9?$AAk?$AAe@ 000000018003dec8     libucrt:lcidtoname_downlevel.obj
 0002:0000aed8       ??_C@_1O@KOHBJJI@?$AAs?$AAy?$AAr?$AA?9?$AAs?$AAy@ 000000018003ded8     libucrt:lcidtoname_downlevel.obj
 0002:0000aee8       ??_C@_1M@LDCEFHA@?$AAt?$AAa?$AA?9?$AAi?$AAn@ 000000018003dee8     libucrt:lcidtoname_downlevel.obj
 0002:0000aef8       ??_C@_1M@CNJOFAK@?$AAt?$AAe?$AA?9?$AAi?$AAn@ 000000018003def8     libucrt:lcidtoname_downlevel.obj
 0002:0000af08       ??_C@_1M@GNAECACD@?$AAt?$AAh?$AA?9?$AAt?$AAh@ 000000018003df08     libucrt:lcidtoname_downlevel.obj
 0002:0000af18       ??_C@_1M@CHBIHOJO@?$AAt?$AAn?$AA?9?$AAz?$AAa@ 000000018003df18     libucrt:lcidtoname_downlevel.obj
 0002:0000af28       ??_C@_1M@GCCMIGPJ@?$AAt?$AAr?$AA?9?$AAt?$AAr@ 000000018003df28     libucrt:lcidtoname_downlevel.obj
 0002:0000af38       ??_C@_1M@CELMCNBK@?$AAt?$AAt?$AA?9?$AAr?$AAu@ 000000018003df38     libucrt:lcidtoname_downlevel.obj
 0002:0000af48       ??_C@_1M@KLMCELGA@?$AAu?$AAk?$AA?9?$AAu?$AAa@ 000000018003df48     libucrt:lcidtoname_downlevel.obj
 0002:0000af58       ??_C@_1M@EPAJJAJF@?$AAu?$AAr?$AA?9?$AAp?$AAk@ 000000018003df58     libucrt:lcidtoname_downlevel.obj
 0002:0000af68       ??_C@_1BG@GEGPMCDJ@?$AAu?$AAz?$AA?9?$AAu?$AAz?$AA?9?$AAc?$AAy?$AAr?$AAl@ 000000018003df68     libucrt:lcidtoname_downlevel.obj
 0002:0000af80       ??_C@_1BG@EGGKJILM@?$AAu?$AAz?$AA?9?$AAu?$AAz?$AA?9?$AAl?$AAa?$AAt?$AAn@ 000000018003df80     libucrt:lcidtoname_downlevel.obj
 0002:0000af98       ??_C@_1M@GFOCLFF@?$AAv?$AAi?$AA?9?$AAv?$AAn@ 000000018003df98     libucrt:lcidtoname_downlevel.obj
 0002:0000afa8       ??_C@_1M@CPAMEDFI@?$AAx?$AAh?$AA?9?$AAz?$AAa@ 000000018003dfa8     libucrt:lcidtoname_downlevel.obj
 0002:0000afb8       ??_C@_1O@EBKIFIGN@?$AAz?$AAh?$AA?9?$AAc?$AAh?$AAs@ 000000018003dfb8     libucrt:lcidtoname_downlevel.obj
 0002:0000afc8       ??_C@_1O@NMHPGANE@?$AAz?$AAh?$AA?9?$AAc?$AAh?$AAt@ 000000018003dfc8     libucrt:lcidtoname_downlevel.obj
 0002:0000afd8       ??_C@_1M@LPINJOMC@?$AAz?$AAh?$AA?9?$AAc?$AAn@ 000000018003dfd8     libucrt:lcidtoname_downlevel.obj
 0002:0000afe8       ??_C@_1M@OCJEJODD@?$AAz?$AAh?$AA?9?$AAh?$AAk@ 000000018003dfe8     libucrt:lcidtoname_downlevel.obj
 0002:0000aff8       ??_C@_1M@DNDLJINH@?$AAz?$AAh?$AA?9?$AAm?$AAo@ 000000018003dff8     libucrt:lcidtoname_downlevel.obj
 0002:0000b008       ??_C@_1M@MBFDNDND@?$AAz?$AAh?$AA?9?$AAs?$AAg@ 000000018003e008     libucrt:lcidtoname_downlevel.obj
 0002:0000b018       ??_C@_1M@IMEPLEPE@?$AAz?$AAh?$AA?9?$AAt?$AAw@ 000000018003e018     libucrt:lcidtoname_downlevel.obj
 0002:0000b028       ??_C@_1M@BBGHNHJP@?$AAz?$AAu?$AA?9?$AAz?$AAa@ 000000018003e028     libucrt:lcidtoname_downlevel.obj
 0002:0000b038       __real@3ff0000000000000    000000018003e038     libucrt:ceil.obj
 0002:0000b290       __log10_256_lead           000000018003e290     libucrt:log10_256_lead_tail_table.obj
 0002:0000baa0       __log10_256_tail           000000018003eaa0     libucrt:log10_256_lead_tail_table.obj
 0002:0000c2b0       __log_F_inv_qword          000000018003f2b0     libucrt:log_f_inv_qword_table.obj
 0002:0000cac0       ??_C@_05HGHHAHAP@log10@    000000018003fac0     libucrt:log_special.obj
 0002:0000cac8       ??_C@_1BA@BALFACEM@?$AAC?$AAO?$AAN?$AAO?$AAU?$AAT?$AA$@ 000000018003fac8     libucrt:initcon.obj
 0002:0000caf0       ??_C@_0BI@OEHNMHCG@GetCurrentConsoleFontEx@ 000000018003faf0     common-kernel64:WConsole.obj
 0002:0000cb08       ??_C@_0BI@PCBACGEE@SetCurrentConsoleFontEx@ 000000018003fb08     common-kernel64:WConsole.obj
 0002:0000cb80       _load_config_used          000000018003fb80     LIBCMT:loadcfg.obj
 0002:0000cd00       _tls_used                  000000018003fd00     LIBCMT:tlssup.obj
 0002:0000cd28       ??_R4CPluginW1900@@6B@     000000018003fd28     ConEmuPlugin1900.obj
 0002:0000cd50       ??_R3CPluginW1900@@8       000000018003fd50     ConEmuPlugin1900.obj
 0002:0000cd68       ??_R2CPluginW1900@@8       000000018003fd68     ConEmuPlugin1900.obj
 0002:0000cd80       ??_R1A@?0A@EA@CPluginW1900@@8 000000018003fd80     ConEmuPlugin1900.obj
 0002:0000cda8       ??_R1A@?0A@EA@CPluginBase@@8 000000018003fda8     ConEmuPlugin1900.obj
 0002:0000cdd0       ??_R3CPluginBase@@8        000000018003fdd0     ConEmuPlugin1900.obj
 0002:0000cde8       ??_R2CPluginBase@@8        000000018003fde8     ConEmuPlugin1900.obj
 0002:0000cdf8       ??_R4exception@std@@6B@    000000018003fdf8     ConEmuPlugin2800.obj
 0002:0000ce20       ??_R3exception@std@@8      000000018003fe20     ConEmuPlugin2800.obj
 0002:0000ce38       ??_R2exception@std@@8      000000018003fe38     ConEmuPlugin2800.obj
 0002:0000ce48       ??_R1A@?0A@EA@exception@std@@8 000000018003fe48     ConEmuPlugin2800.obj
 0002:0000ce70       ??_R4bad_alloc@std@@6B@    000000018003fe70     ConEmuPlugin2800.obj
 0002:0000ce98       ??_R3bad_alloc@std@@8      000000018003fe98     ConEmuPlugin2800.obj
 0002:0000ceb0       ??_R2bad_alloc@std@@8      000000018003feb0     ConEmuPlugin2800.obj
 0002:0000cec8       ??_R1A@?0A@EA@bad_alloc@std@@8 000000018003fec8     ConEmuPlugin2800.obj
 0002:0000cef0       ??_R4CPluginW2800@@6B@     000000018003fef0     ConEmuPlugin2800.obj
 0002:0000cf18       ??_R3CPluginW2800@@8       000000018003ff18     ConEmuPlugin2800.obj
 0002:0000cf30       ??_R2CPluginW2800@@8       000000018003ff30     ConEmuPlugin2800.obj
 0002:0000cf48       ??_R1A@?0A@EA@CPluginW2800@@8 000000018003ff48     ConEmuPlugin2800.obj
 0002:0000cf70       ??_R4CPluginW995@@6B@      000000018003ff70     ConEmuPlugin995.obj
 0002:0000cf98       ??_R3CPluginW995@@8        000000018003ff98     ConEmuPlugin995.obj
 0002:0000cfb0       ??_R2CPluginW995@@8        000000018003ffb0     ConEmuPlugin995.obj
 0002:0000cfc8       ??_R1A@?0A@EA@CPluginW995@@8 000000018003ffc8     ConEmuPlugin995.obj
 0002:0000cff0       ??_R4CPluginAnsi@@6B@      000000018003fff0     ConEmuPluginA.obj
 0002:0000d018       ??_R3CPluginAnsi@@8        0000000180040018     ConEmuPluginA.obj
 0002:0000d030       ??_R2CPluginAnsi@@8        0000000180040030     ConEmuPluginA.obj
 0002:0000d048       ??_R1A@?0A@EA@CPluginAnsi@@8 0000000180040048     ConEmuPluginA.obj
 0002:0000d070       ??_R4CPluginBase@@6B@      0000000180040070     ConEmuPluginBase.obj
 0002:0000d098       ??_R4exception@stdext@@6B@ 0000000180040098     common-kernel64:CEStr.obj
 0002:0000d0c0       ??_R3exception@stdext@@8   00000001800400c0     common-kernel64:CEStr.obj
 0002:0000d0d8       ??_R2exception@stdext@@8   00000001800400d8     common-kernel64:CEStr.obj
 0002:0000d0e8       ??_R1A@?0A@EA@exception@stdext@@8 00000001800400e8     common-kernel64:CEStr.obj
 0002:0000d110       ??_R4bad_alloc@stdext@@6B@ 0000000180040110     common-kernel64:CEStr.obj
 0002:0000d138       ??_R3bad_alloc@stdext@@8   0000000180040138     common-kernel64:CEStr.obj
 0002:0000d150       ??_R2bad_alloc@stdext@@8   0000000180040150     common-kernel64:CEStr.obj
 0002:0000d168       ??_R1A@?0A@EA@bad_alloc@stdext@@8 0000000180040168     common-kernel64:CEStr.obj
 0002:0000d190       ??_R3?$_Func_base@XPEAX@std@@8 0000000180040190     common-kernel64:WObjects.obj
 0002:0000d1a8       ??_R2?$_Func_base@XPEAX@std@@8 00000001800401a8     common-kernel64:WObjects.obj
 0002:0000d1b8       ??_R1A@?0A@EA@?$_Func_base@XPEAX@std@@8 00000001800401b8     common-kernel64:WObjects.obj
 0002:0000d1e0       ??_R4?$_Func_impl_no_alloc@P6AHPEAX@ZXPEAX@std@@6B@ 00000001800401e0     common-kernel64:WObjects.obj
 0002:0000d208       ??_R3?$_Func_impl_no_alloc@P6AHPEAX@ZXPEAX@std@@8 0000000180040208     common-kernel64:WObjects.obj
 0002:0000d220       ??_R2?$_Func_impl_no_alloc@P6AHPEAX@ZXPEAX@std@@8 0000000180040220     common-kernel64:WObjects.obj
 0002:0000d238       ??_R1A@?0A@EA@?$_Func_impl_no_alloc@P6AHPEAX@ZXPEAX@std@@8 0000000180040238     common-kernel64:WObjects.obj
 0002:0000d260       ??_R4MToolHelpProcess@@6B@ 0000000180040260     common-kernel64:MProcess.obj
 0002:0000d288       ??_R3MToolHelpProcess@@8   0000000180040288     common-kernel64:MProcess.obj
 0002:0000d2a0       ??_R2MToolHelpProcess@@8   00000001800402a0     common-kernel64:MProcess.obj
 0002:0000d2b8       ??_R1A@?0A@EA@MToolHelpProcess@@8 00000001800402b8     common-kernel64:MProcess.obj
 0002:0000d2e0       ??_R1A@?0A@EA@?$MToolHelp@UtagPROCESSENTRY32W@@$1?Process32FirstW@@YAHPEAXPEAU1@@Z$1?Process32NextW@@YAH01@Z@@8 00000001800402e0     common-kernel64:MProcess.obj
 0002:0000d308       ??_R3?$MToolHelp@UtagPROCESSENTRY32W@@$1?Process32FirstW@@YAHPEAXPEAU1@@Z$1?Process32NextW@@YAH01@Z@@8 0000000180040308     common-kernel64:MProcess.obj
 0002:0000d320       ??_R2?$MToolHelp@UtagPROCESSENTRY32W@@$1?Process32FirstW@@YAHPEAXPEAU1@@Z$1?Process32NextW@@YAH01@Z@@8 0000000180040320     common-kernel64:MProcess.obj
 0002:0000d330       ??_R4?$MToolHelp@UtagPROCESSENTRY32W@@$1?Process32FirstW@@YAHPEAXPEAU1@@Z$1?Process32NextW@@YAH01@Z@@6B@ 0000000180040330     common-kernel64:MProcess.obj
 0002:0000d358       ??_R3?$_Func_base@_NAEBUtagPROCESSENTRY32W@@@std@@8 0000000180040358     common-kernel64:MProcess.obj
 0002:0000d370       ??_R2?$_Func_base@_NAEBUtagPROCESSENTRY32W@@@std@@8 0000000180040370     common-kernel64:MProcess.obj
 0002:0000d380       ??_R1A@?0A@EA@?$_Func_base@_NAEBUtagPROCESSENTRY32W@@@std@@8 0000000180040380     common-kernel64:MProcess.obj
 0002:0000d3a8       ??_R4?$_Func_impl_no_alloc@V<lambda_217d18733db987cb8fc0adfd68028951>@@_NAEBUtagPROCESSENTRY32W@@@std@@6B@ 00000001800403a8     common-kernel64:MProcess.obj
 0002:0000d3d0       ??_R3?$_Func_impl_no_alloc@V<lambda_217d18733db987cb8fc0adfd68028951>@@_NAEBUtagPROCESSENTRY32W@@@std@@8 00000001800403d0     common-kernel64:MProcess.obj
 0002:0000d3e8       ??_R2?$_Func_impl_no_alloc@V<lambda_217d18733db987cb8fc0adfd68028951>@@_NAEBUtagPROCESSENTRY32W@@@std@@8 00000001800403e8     common-kernel64:MProcess.obj
 0002:0000d400       ??_R1A@?0A@EA@?$_Func_impl_no_alloc@V<lambda_217d18733db987cb8fc0adfd68028951>@@_NAEBUtagPROCESSENTRY32W@@@std@@8 0000000180040400     common-kernel64:MProcess.obj
 0002:0000d428       ??_R4bad_function_call@std@@6B@ 0000000180040428     libcpmt:xthrow.obj
 0002:0000d450       ??_R3bad_function_call@std@@8 0000000180040450     libcpmt:xthrow.obj
 0002:0000d468       ??_R2bad_function_call@std@@8 0000000180040468     libcpmt:xthrow.obj
 0002:0000d480       ??_R1A@?0A@EA@bad_function_call@std@@8 0000000180040480     libcpmt:xthrow.obj
 0002:0000d4a8       ??_R4logic_error@std@@6B@  00000001800404a8     libcpmt:xthrow.obj
 0002:0000d4d0       ??_R3logic_error@std@@8    00000001800404d0     libcpmt:xthrow.obj
 0002:0000d4e8       ??_R2logic_error@std@@8    00000001800404e8     libcpmt:xthrow.obj
 0002:0000d500       ??_R1A@?0A@EA@logic_error@std@@8 0000000180040500     libcpmt:xthrow.obj
 0002:0000d528       ??_R4length_error@std@@6B@ 0000000180040528     libcpmt:xthrow.obj
 0002:0000d550       ??_R3length_error@std@@8   0000000180040550     libcpmt:xthrow.obj
 0002:0000d568       ??_R2length_error@std@@8   0000000180040568     libcpmt:xthrow.obj
 0002:0000d588       ??_R1A@?0A@EA@length_error@std@@8 0000000180040588     libcpmt:xthrow.obj
 0002:0000d5b0       ??_R4type_info@@6B@        00000001800405b0     LIBCMT:std_type_info_static.obj
 0002:0000d5d8       ??_R3type_info@@8          00000001800405d8     LIBCMT:std_type_info_static.obj
 0002:0000d5f0       ??_R2type_info@@8          00000001800405f0     LIBCMT:std_type_info_static.obj
 0002:0000d600       ??_R1A@?0A@EA@type_info@@8 0000000180040600     LIBCMT:std_type_info_static.obj
 0002:0000d628       ??_R4bad_exception@std@@6B@ 0000000180040628     libvcruntime:frame.obj
 0002:0000d650       ??_R3bad_exception@std@@8  0000000180040650     libvcruntime:frame.obj
 0002:0000d668       ??_R2bad_exception@std@@8  0000000180040668     libvcruntime:frame.obj
 0002:0000d680       ??_R1A@?0A@EA@bad_exception@std@@8 0000000180040680     libvcruntime:frame.obj
 0002:0000dab0       __rtc_iaa                  0000000180040ab0     LIBCMT:initsect.obj
 0002:0000dab8       __rtc_izz                  0000000180040ab8     LIBCMT:initsect.obj
 0002:0000dac0       __rtc_taa                  0000000180040ac0     LIBCMT:initsect.obj
 0002:0000dac8       __rtc_tzz                  0000000180040ac8     LIBCMT:initsect.obj
 0002:0000dad0       _tls_start                 0000000180040ad0     LIBCMT:tlssup.obj
 0002:0000dad4       _Init_thread_epoch         0000000180040ad4     LIBCMT:thread_safe_statics.obj
 0002:0000dad8       _tls_end                   0000000180040ad8     LIBCMT:tlssup.obj
 0002:00010080       _CT??_R0?AVbad_alloc@std@@@8??0bad_alloc@std@@QEAA@AEBV01@@Z24 0000000180043080     ConEmuPlugin2800.obj
 0002:000100a8       _CT??_R0?AVexception@std@@@8??0exception@std@@QEAA@AEBV01@@Z24 00000001800430a8     ConEmuPlugin2800.obj
 0002:000100d0       _TI2?AVbad_alloc@std@@     00000001800430d0     ConEmuPlugin2800.obj
 0002:000100f0       _CTA2?AVbad_alloc@std@@    00000001800430f0     ConEmuPlugin2800.obj
 0002:00010108       _TI2?AVbad_alloc@stdext@@  0000000180043108     common-kernel64:CEStr.obj
 0002:00010128       _CTA2?AVbad_alloc@stdext@@ 0000000180043128     common-kernel64:CEStr.obj
 0002:00010140       _CT??_R0?AVbad_alloc@stdext@@@8??0bad_alloc@stdext@@QEAA@AEBV01@@Z16 0000000180043140     common-kernel64:CEStr.obj
 0002:00010168       _CT??_R0?AVexception@stdext@@@8??0exception@stdext@@QEAA@AEBV01@@Z16 0000000180043168     common-kernel64:CEStr.obj
 0002:00010190       _CT??_R0?AVlogic_error@std@@@8??0logic_error@std@@QEAA@AEBV01@@Z24 0000000180043190     libcpmt:xthrow.obj
 0002:000101b8       _TI3?AVlength_error@std@@  00000001800431b8     libcpmt:xthrow.obj
 0002:000101d8       _CTA3?AVlength_error@std@@ 00000001800431d8     libcpmt:xthrow.obj
 0002:000101f8       _CT??_R0?AVlength_error@std@@@8??0length_error@std@@QEAA@AEBV01@@Z24 00000001800431f8     libcpmt:xthrow.obj
 0002:00010220       _TI2?AVbad_function_call@std@@ 0000000180043220     libcpmt:xthrow.obj
 0002:00010240       _CTA2?AVbad_function_call@std@@ 0000000180043240     libcpmt:xthrow.obj
 0002:00010258       _CT??_R0?AVbad_function_call@std@@@8??0bad_function_call@std@@QEAA@AEBV01@@Z24 0000000180043258     libcpmt:xthrow.obj
 0002:00010280       _TI2?AVbad_exception@std@@ 0000000180043280     libvcruntime:frame.obj
 0002:000102a0       _CTA2?AVbad_exception@std@@ 00000001800432a0     libvcruntime:frame.obj
 0002:000102b8       _CT??_R0?AVbad_exception@std@@@8??0bad_exception@std@@QEAA@AEBV01@@Z24 00000001800432b8     libvcruntime:frame.obj
 0002:000105c4       __IMPORT_DESCRIPTOR_VERSION 00000001800435c4     version:VERSION.dll
 0002:000105d8       __IMPORT_DESCRIPTOR_KERNEL32 00000001800435d8     kernel32:KERNEL32.dll
 0002:000105ec       __IMPORT_DESCRIPTOR_USER32 00000001800435ec     user32:USER32.dll
 0002:00010600       __IMPORT_DESCRIPTOR_GDI32  0000000180043600     gdi32:GDI32.dll
 0002:00010614       __IMPORT_DESCRIPTOR_ADVAPI32 0000000180043614     advapi32:ADVAPI32.dll
 0002:00010628       __NULL_IMPORT_DESCRIPTOR   0000000180043628     version:VERSION.dll
 0003:00000000       ?Far3Func@@3PAUExportFunc@@A 0000000180045000     ConEmuPlugin.obj
 0003:00000080       ?StdPalette@?1??GetStdPalette@Far3Color@@SAPEBKXZ@4PAKA 0000000180045080     ConEmuPlugin1900.obj
 0003:000000c0       ?guid_ConEmu@@3U_GUID@@A   00000001800450c0     ConEmuPlugin2800.obj
 0003:000000d0       ?guid_ConEmuPluginItems@@3U_GUID@@A 00000001800450d0     ConEmuPlugin2800.obj
 0003:000000e0       ?guid_ConEmuPluginMenu@@3U_GUID@@A 00000001800450e0     ConEmuPlugin2800.obj
 0003:000000f0       ?guid_ConEmuGuiMacroDlg@@3U_GUID@@A 00000001800450f0     ConEmuPlugin2800.obj
 0003:00000100       ?guid_ConEmuWaitEndSynchro@@3U_GUID@@A 0000000180045100     ConEmuPlugin2800.obj
 0003:00000110       ?guid_ConEmuMsg@@3U_GUID@@A 0000000180045110     ConEmuPlugin2800.obj
 0003:00000120       ?guid_ConEmuInput@@3U_GUID@@A 0000000180045120     ConEmuPlugin2800.obj
 0003:00000130       ?guid_ConEmuMenu@@3U_GUID@@A 0000000180045130     ConEmuPlugin2800.obj
 0003:00000180       ?gFarMode@@3UHookModeFar@@A 0000000180045180     ConEmuPluginBase.obj
 0003:000001b0       ?gnPluginOpenFrom@@3HA     00000001800451b0     ConEmuPluginBase.obj
 0003:000001b4       ?gnReqCommand@@3KA         00000001800451b4     ConEmuPluginBase.obj
 0003:000001b8       ?lastModifiedStateW@@3HA   00000001800451b8     ConEmuPluginBase.obj
 0003:000001c0       ?gpPluginMenu@@3PAUPluginAndMenuCommands@@A 00000001800451c0     ConEmuPluginBase.obj
 0003:00000280       ?g_TerminatedThreadIdx@@3JA 0000000180045280     common-kernel64:WThreads.obj
 0003:00000290       __security_cookie_complement 0000000180045290     LIBCMT:gs_cookie.obj
 0003:00000298       __security_cookie          0000000180045298     LIBCMT:gs_cookie.obj
 0003:000002a0       _Init_global_epoch         00000001800452a0     LIBCMT:thread_safe_statics.obj
 0003:000002a4       __scrt_native_dllmain_reason 00000001800452a4     LIBCMT:utility.obj
 0003:000002a8       __isa_available            00000001800452a8     LIBCMT:cpu_disp.obj
 0003:000002ac       __isa_enabled              00000001800452ac     LIBCMT:cpu_disp.obj
 0003:000002b0       __memcpy_nt_iters          00000001800452b0     LIBCMT:cpu_disp.obj
 0003:000002b8       __memset_nt_iters          00000001800452b8     LIBCMT:cpu_disp.obj
 0003:000002d8       __abort_behavior           00000001800452d8     libucrt:abort.obj
 0003:000002f0       _iob                       00000001800452f0     libucrt:_file.obj
 0003:00000400       __acrt_initial_locale_data 0000000180045400     libucrt:nlsdata.obj
 0003:00000558       __acrt_initial_locale_pointers 0000000180045558     libucrt:nlsdata.obj
 0003:00000568       __acrt_wide_c_locale_string 0000000180045568     libucrt:nlsdata.obj
 0003:00000570       _pwctype                   0000000180045570     libucrt:ctype.obj
 0003:00000580       __acrt_initial_multibyte_data 0000000180045580     libucrt:mbctype.obj
 0003:00000ac0       __globallocalestatus       0000000180045ac0     libucrt:glstatus.obj
 0003:00000ad0       __acrt_lconv_c             0000000180045ad0     libucrt:localeconv.obj
 0003:00000b68       __acrt_lconv_static_decimal 0000000180045b68     libucrt:localeconv.obj
 0003:00000b6c       __acrt_lconv_static_W_decimal 0000000180045b6c     libucrt:localeconv.obj
 0003:00000b70       _lookuptrailbytes          0000000180045b70     libucrt:read.obj
 0003:00000c94       _fltused                   0000000180045c94     LIBCMT:fltused.obj
 0003:00000ca0       ??_R0?AVbad_alloc@std@@@8  0000000180045ca0     ConEmuPlugin2800.obj
 0003:00000cc8       ??_R0?AVexception@std@@@8  0000000180045cc8     ConEmuPlugin2800.obj
 0003:00000cf0       ??_R0?AVbad_alloc@stdext@@@8 0000000180045cf0     common-kernel64:CEStr.obj
 0003:00000d18       ??_R0?AVexception@stdext@@@8 0000000180045d18     common-kernel64:CEStr.obj
 0003:00000d40       ??_R0P6AHPEAX@Z@8          0000000180045d40     common-kernel64:WObjects.obj
 0003:00000d60       ??_R0?AV<lambda_217d18733db987cb8fc0adfd68028951>@@@8 0000000180045d60     common-kernel64:MProcess.obj
 0003:00000da0       ??_R0?AVlogic_error@std@@@8 0000000180045da0     libcpmt:xthrow.obj
 0003:00000dc8       ??_R0?AVlength_error@std@@@8 0000000180045dc8     libcpmt:xthrow.obj
 0003:00000df0       ??_R0?AVbad_function_call@std@@@8 0000000180045df0     libcpmt:xthrow.obj
 0003:00000e20       ??_R0?AVtype_info@@@8      0000000180045e20     LIBCMT:std_type_info_static.obj
 0003:00000e40       ??_R0?AVbad_exception@std@@@8 0000000180045e40     libvcruntime:frame.obj
 0003:00000e70       ??_R0?AVCPluginW1900@@@8   0000000180045e70     ConEmuPlugin1900.obj
 0003:00000e98       ??_R0?AVCPluginBase@@@8    0000000180045e98     ConEmuPlugin1900.obj
 0003:00000ec0       ??_R0?AVCPluginW2800@@@8   0000000180045ec0     ConEmuPlugin2800.obj
 0003:00000ee8       ??_R0?AVCPluginW995@@@8    0000000180045ee8     ConEmuPlugin995.obj
 0003:00000f10       ??_R0?AVCPluginAnsi@@@8    0000000180045f10     ConEmuPluginA.obj
 0003:00000f38       ??_R0?AV?$_Func_base@XPEAX@std@@@8 0000000180045f38     common-kernel64:WObjects.obj
 0003:00000f70       ??_R0?AV?$_Func_impl_no_alloc@P6AHPEAX@ZXPEAX@std@@@8 0000000180045f70     common-kernel64:WObjects.obj
 0003:00000fb0       ??_R0?AVMToolHelpProcess@@@8 0000000180045fb0     common-kernel64:MProcess.obj
 0003:00000fe0       ??_R0?AV?$MToolHelp@UtagPROCESSENTRY32W@@$1?Process32FirstW@@YAHPEAXPEAU1@@Z$1?Process32NextW@@YAH01@Z@@@8 0000000180045fe0     common-kernel64:MProcess.obj
 0003:00001060       ??_R0?AV?$_Func_base@_NAEBUtagPROCESSENTRY32W@@@std@@@8 0000000180046060     common-kernel64:MProcess.obj
 0003:000010b0       ??_R0?AV?$_Func_impl_no_alloc@V<lambda_217d18733db987cb8fc0adfd68028951>@@_NAEBUtagPROCESSENTRY32W@@@std@@@8 00000001800460b0     common-kernel64:MProcess.obj
 0003:00001130       ?ghExtConModule@@3PEAUHINSTANCE__@@EA 0000000180046130     ConEmuInjects.obj
 0003:00001138       ?ghHooksModule@@3PEAUHINSTANCE__@@EA 0000000180046138     ConEmuInjects.obj
 0003:00001140       ?gbHooksModuleLoaded@@3HA  0000000180046140     ConEmuInjects.obj
 0003:00001148       ?SetHookCallbacks@@3P6A_NPEBDPEB_WPEAUHINSTANCE__@@P6AHPEAUHookCallbackArg@@@Z44@ZEA 0000000180046148     ConEmuInjects.obj
 0003:00001150       ?SetLoadLibraryCallback@@3P6AXPEAUHINSTANCE__@@P6AX0@Z1@ZEA 0000000180046150     ConEmuInjects.obj
 0003:00001158       ?SetFarHookMode@@3P6AXPEAUHookModeFar@@@ZEA 0000000180046158     ConEmuInjects.obj
 0003:00001160       ?SetConsoleCallbacks@@3P6A_NPEAUHINSTANCE__@@KPEAP6AHPEAUHookCallbackArg@@@Z@ZEA 0000000180046160     ConEmuInjects.obj
 0003:00001168       ?_OptionsStorage@?1??__local_stdio_printf_options@@9@4_KA 0000000180046168     ConEmuInjects.obj
 0003:00001170       ?InfoW1900@@3PEAUPluginStartupInfo@@EA 0000000180046170     ConEmuPlugin1900.obj
 0003:00001178       ?FSFW1900@@3PEAUFarStandardFunctions@@EA 0000000180046178     ConEmuPlugin1900.obj
 0003:00001180       ?LastColor@?1??Color2FgIndex@Far3Color@@SAXKAEAGPEBK@Z@4KA 0000000180046180     ConEmuPlugin1900.obj
 0003:00001184       ?LastIndex@?1??Color2FgIndex@Far3Color@@SAXKAEAGPEBK@Z@4HA 0000000180046184     ConEmuPlugin1900.obj
 0003:00001188       ?LastColor@?1??Color2BgIndex@Far3Color@@SAXKHAEAGPEBK@Z@4KA 0000000180046188     ConEmuPlugin1900.obj
 0003:0000118c       ?LastIndex@?1??Color2BgIndex@Far3Color@@SAXKHAEAGPEBK@Z@4HA 000000018004618c     ConEmuPlugin1900.obj
 0003:00001448       ?InfoW2800@@3PEAUPluginStartupInfo@@EA 0000000180046448     ConEmuPlugin2800.obj
 0003:00001450       ?FSFW2800@@3PEAUFarStandardFunctions@@EA 0000000180046450     ConEmuPlugin2800.obj
 0003:00001718       ?InfoW995@@3PEAUPluginStartupInfo@@EA 0000000180046718     ConEmuPlugin995.obj
 0003:00001720       ?FSFW995@@3PEAUFarStandardFunctions@@EA 0000000180046720     ConEmuPlugin995.obj
 0003:00001980       ?InfoA@@3PEAUPluginStartupInfo@@EA 0000000180046980     ConEmuPluginA.obj
 0003:00001988       ?FSFA@@3PEAUFarStandardFunctions@@EA 0000000180046988     ConEmuPluginA.obj
 0003:00001ca0       ?gLastMouseReadEvent@@3U_MOUSE_EVENT_RECORD@@A 0000000180046ca0     ConEmuPluginBase.obj
 0003:00001cb0       ?gnDummyMouseEventFromMacro@@3JA 0000000180046cb0     ConEmuPluginBase.obj
 0003:00001cb4       ?gbUngetDummyMouseEvent@@3HA 0000000180046cb4     ConEmuPluginBase.obj
 0003:00001cb8       ?gpPlugin@@3PEAVCPluginBase@@EA 0000000180046cb8     ConEmuPluginBase.obj
 0003:00001cc0       ?gbWasDetached@@3HA        0000000180046cc0     ConEmuPluginBase.obj
 0003:00001cc4       ?gbFarWndVisible@@3HA      0000000180046cc4     ConEmuPluginBase.obj
 0003:00001cc8       ?gsbiDetached@@3U_CONSOLE_SCREEN_BUFFER_INFO@@A 0000000180046cc8     ConEmuPluginBase.obj
 0003:00001cde       ?gbExitFarCalled@@3_NA     0000000180046cde     ConEmuPluginBase.obj
 0003:00001cdf       ?gbSynchroProhibited@@3_NA 0000000180046cdf     ConEmuPluginBase.obj
 0003:00001ce0       ?gnPeekReadCount@@3KA      0000000180046ce0     ConEmuPluginBase.obj
 0003:00001ce4       ?gnInLongOperation@@3JA    0000000180046ce4     ConEmuPluginBase.obj
 0003:00001ce8       ?gdwPreDetachGuiPID@@3KA   0000000180046ce8     ConEmuPluginBase.obj
 0003:00001cec       ?gdwServerPID@@3KA         0000000180046cec     ConEmuPluginBase.obj
 0003:00001cf0       ?gnMainThreadIdInitial@@3KA 0000000180046cf0     ConEmuPluginBase.obj
 0003:00001cf4       ?gnMonitorThreadId@@3KA    0000000180046cf4     ConEmuPluginBase.obj
 0003:00001cf8       ?ghMonitorThread@@3PEAXEA  0000000180046cf8     ConEmuPluginBase.obj
 0003:00001d00       ?ghSetWndSendTabsEvent@@3PEAXEA 0000000180046d00     ConEmuPluginBase.obj
 0003:00001d08       ?gbRequestUpdateTabs@@3HA  0000000180046d08     ConEmuPluginBase.obj
 0003:00001d0c       ?gbClosingModalViewerEditor@@3HA 0000000180046d0c     ConEmuPluginBase.obj
 0003:00001d10       ?gnAllowDummyMouseEvent@@3JA 0000000180046d10     ConEmuPluginBase.obj
 0003:00001d14       ?gnDataSize@@3KA           0000000180046d14     ConEmuPluginBase.obj
 0003:00001d18       ?csData@@3PEAVMSection@@EA 0000000180046d18     ConEmuPluginBase.obj
 0003:00001d20       ?gpData@@3PEAEEA           0000000180046d20     ConEmuPluginBase.obj
 0003:00001d28       ?gpCursor@@3PEAEEA         0000000180046d28     ConEmuPluginBase.obj
 0003:00001d30       ?gpReqCommandData@@3PEAXEA 0000000180046d30     ConEmuPluginBase.obj
 0003:00001d38       ?ghReqCommandEvent@@3PEAXEA 0000000180046d38     ConEmuPluginBase.obj
 0003:00001d40       ?gbReqCommandWaiting@@3HA  0000000180046d40     ConEmuPluginBase.obj
 0003:00001d44       ?gnMsgTabChanged@@3IA      0000000180046d44     ConEmuPluginBase.obj
 0003:00001d48       ?csTabs@@3PEAVMSection@@EA 0000000180046d48     ConEmuPluginBase.obj
 0003:00001d50       ?gbPlugKeyChanged@@3HA     0000000180046d50     ConEmuPluginBase.obj
 0003:00001d54       ?gbNeedPostTabSend@@3HA    0000000180046d54     ConEmuPluginBase.obj
 0003:00001d58       ?ghRegMonitorKey@@3PEAUHKEY__@@EA 0000000180046d58     ConEmuPluginBase.obj
 0003:00001d60       ?ghRegMonitorEvt@@3PEAXEA  0000000180046d60     ConEmuPluginBase.obj
 0003:00001d68       ?ghPluginSemaphore@@3PEAXEA 0000000180046d68     ConEmuPluginBase.obj
 0003:00001d70       ?gsFarLang@@3PA_WA         0000000180046d70     ConEmuPluginBase.obj
 0003:00001df0       ?gbNeedPostEditCheck@@3HA  0000000180046df0     ConEmuPluginBase.obj
 0003:00001df4       ?gbNeedPostReloadFarInfo@@3HA 0000000180046df4     ConEmuPluginBase.obj
 0003:00001df8       ?gbNeedReloadFarDir@@3HA   0000000180046df8     ConEmuPluginBase.obj
 0003:00001dfc       ?gnNeedPostTabSendTick@@3KA 0000000180046dfc     ConEmuPluginBase.obj
 0003:00001e00       ?gpConMap@@3PEAV?$MFileMapping@UCESERVER_CONSOLE_MAPPING_HDR@@@@EA 0000000180046e00     ConEmuPluginBase.obj
 0003:00001e08       ?gbStartedUnderConsole2@@3HA 0000000180046e08     ConEmuPluginBase.obj
 0003:00001e0c       ?gnSelfPID@@3KA            0000000180046e0c     ConEmuPluginBase.obj
 0003:00001e10       ?ghFarInfoMapping@@3PEAXEA 0000000180046e10     ConEmuPluginBase.obj
 0003:00001e18       ?gpFarInfo@@3PEAUCEFAR_INFO_MAPPING@@EA 0000000180046e18     ConEmuPluginBase.obj
 0003:00001e20       ?gpFarInfoMapping@@3PEAUCEFAR_INFO_MAPPING@@EA 0000000180046e20     ConEmuPluginBase.obj
 0003:00001e28       ?ghFarAliveEvent@@3PEAXEA  0000000180046e28     ConEmuPluginBase.obj
 0003:00001e30       ?ghConEmuCtrlPressed@@3PEAXEA 0000000180046e30     ConEmuPluginBase.obj
 0003:00001e38       ?ghConEmuShiftPressed@@3PEAXEA 0000000180046e38     ConEmuPluginBase.obj
 0003:00001e40       ?gbWaitConsoleInputEmpty@@3HA 0000000180046e40     ConEmuPluginBase.obj
 0003:00001e44       ?gbWaitConsoleWrite@@3HA   0000000180046e44     ConEmuPluginBase.obj
 0003:00001e48       ?ghConsoleInputEmpty@@3PEAXEA 0000000180046e48     ConEmuPluginBase.obj
 0003:00001e50       ?ghConsoleWrite@@3PEAXEA   0000000180046e50     ConEmuPluginBase.obj
 0003:00001e58       ?gbInputSynchroPending@@3_NA 0000000180046e58     ConEmuPluginBase.obj
 0003:00001e59       ?gb_DllUniqueWarned@CPluginBase@@1_NA 0000000180046e59     ConEmuPluginBase.obj
 0003:00001e5a       ?gb_DllUniqueChecked@CPluginBase@@1_NA 0000000180046e5a     ConEmuPluginBase.obj
 0003:00001e5b       ?gb_ProtocolWarned@CPluginBase@@1_NA 0000000180046e5b     ConEmuPluginBase.obj
 0003:00001e5c       ?gnMainThreadId@@3KA       0000000180046e5c     ConEmuPluginBase.obj
 0003:00001e60       ?ghPluginModule@@3PEAUHINSTANCE__@@EA 0000000180046e60     ConEmuPluginBase.obj
 0003:00001e68       ?maxTabCount@@3HA          0000000180046e68     ConEmuPluginBase.obj
 0003:00001e6c       ?lastWindowCount@@3HA      0000000180046e6c     ConEmuPluginBase.obj
 0003:00001e70       ?gszDir1@@3PA_WA           0000000180046e70     ConEmuPluginBase.obj
 0003:00002670       ?gszDir2@@3PA_WA           0000000180047670     ConEmuPluginBase.obj
 0003:00002e70       ?gnCurTabCount@@3HA        0000000180047e70     ConEmuPluginBase.obj
 0003:00002e74       ?gbIgnoreUpdateTabs@@3HA   0000000180047e74     ConEmuPluginBase.obj
 0003:00002e78       ?gpCmdRet@@3PEAUCESERVER_REQ@@EA 0000000180047e78     ConEmuPluginBase.obj
 0003:00002e80       ?ghConEmuWndDC@@3PEAUHWND__@@EA 0000000180047e80     ConEmuPluginBase.obj
 0003:00002e88       ?FarHwnd@@3PEAUHWND__@@EA  0000000180047e88     ConEmuPluginBase.obj
 0003:00002e90       ?gFarVersion@@3UFarVersion@@A 0000000180047e90     ConEmuPluginBase.obj
 0003:00002e9c       ?gbForceSendTabs@@3HA      0000000180047e9c     ConEmuPluginBase.obj
 0003:00002ea0       ?gpConMapInfo@@3PEBUCESERVER_CONSOLE_MAPPING_HDR@@EB 0000000180047ea0     ConEmuPluginBase.obj
 0003:00002ea8       ?gpTabs@@3PEAUCESERVER_REQ@@EA 0000000180047ea8     ConEmuPluginBase.obj
 0003:00002eb0       ?gnCurrentWindowType@@3HA  0000000180047eb0     ConEmuPluginBase.obj
 0003:00002eb4       ?gnSynchroCount@@3HA       0000000180047eb4     ConEmuPluginBase.obj
 0003:00002eb8       ?gPanelRegLeft@@3UPanelViewRegInfo@@A 0000000180047eb8     ConEmuPluginBase.obj
 0003:00002ee8       ?gPanelRegRight@@3UPanelViewRegInfo@@A 0000000180047ee8     ConEmuPluginBase.obj
 0003:00002f18       ?TerminalMode@@3HA         0000000180047f18     ConEmuPluginBase.obj
 0003:00002f38       ?csbi@@3U_CONSOLE_SCREEN_BUFFER_INFO@@A 0000000180047f38     LogBrowser.obj
 0003:00002f4e       ?gbShowAttrsOnly@@3_NA     0000000180047f4e     LogBrowser.obj
 0003:00002f50       ?gnPage@@3HA               0000000180047f50     LogBrowser.obj
 0003:00002f58       ?gbBgPluginsAllowed@@3HA   0000000180047f58     PluginBackground.obj
 0003:00002f5c       ?gbNeedBgActivate@@3HA     0000000180047f5c     PluginBackground.obj
 0003:00002f60       ?gpBgPlugin@@3PEAVCPluginBackground@@EA 0000000180047f60     PluginBackground.obj
 0003:00002f70       ?ghServerTerminateEvent@@3PEAXEA 0000000180047f70     PluginSrv.obj
 0003:00002f78       ?gpPlugServer@@3PEAU?$PipeServer@UCESERVER_REQ@@@@EA 0000000180047f78     PluginSrv.obj
 0003:00002f80       ?gszPluginServerPipe@@3PA_WA 0000000180047f80     PluginSrv.obj
 0003:00003188       ?gbForcedServerTermination@@3_NA 0000000180048188     PluginSrv.obj
 0003:00003190       ?g_LastDeletePtr@@3PEAXEA  0000000180048190     common-kernel64:Memory.obj
 0003:000031a8       ?gpLocalSecurity@@3PEAU_SECURITY_ATTRIBUTES@@EA 00000001800481a8     common-kernel64:ConEmuCheck.obj
 0003:000031b0       ?ghWorkingModule@@3UHANDLE2@@A 00000001800481b0     common-kernel64:ConEmuCheck.obj
 0003:000031b8       ?gfGetRealConsoleWindow@@3P6APEAUHWND__@@XZEA 00000001800481b8     common-kernel64:ConEmuCheck.obj
 0003:00003200       ?g_ThreadsIdx@@3JA         0000000180048200     common-kernel64:WThreads.obj
 0003:0000ba18       ?gbInCommonShutdown@@3HA   0000000180050a18     common-kernel64:Common.obj
 0003:0000ba20       ?gNullDesc@@3PEAVMNullDesc@@EA 0000000180050a20     common-kernel64:MSecurity.obj
 0003:0000ba28       ?gfnSearchAppPaths@@3P6A_NPEB_WAEAUCEStr@@_NPEAVCEnvRestorer@@@ZEA 0000000180050a28     common-kernel64:WObjects.obj
 0003:0000ba48       ?hkFunc@@3UHkFunc@@A       0000000180050a48     common-kernel64:HkFunc.obj
 0003:0000ba80       ?gsMapHelper@@3UConsoleSectionHelper@@A 0000000180050a80     common-user64:WConsoleEx.obj
 0003:0000ba90       _tls_index                 0000000180050a90     LIBCMT:tlssup.obj
 0003:0000bae8       __scrt_current_native_startup_state 0000000180050ae8     LIBCMT:utility.obj
 0003:0000baf0       __scrt_native_startup_lock 0000000180050af0     LIBCMT:utility.obj
 0003:0000c0a0       __scrt_debugger_hook_flag  00000001800510a0     LIBCMT:utility_desktop.obj
 0003:0000c0a8       __castguard_check_failure_os_handled_fptr 00000001800510a8     LIBCMT:guard_support.obj
 0003:0000c0b0       ?__type_info_root_node@@3U__type_info_node@@A 00000001800510b0     LIBCMT:tncleanup.obj
 0003:0000c0c0       ?_OptionsStorage@?1??__local_stdio_scanf_options@@9@4_KA 00000001800510c0     LIBCMT:default_local_stdio_options.obj
 0003:0000c0c8       __favor                    00000001800510c8     LIBCMT:cpu_disp.obj
 0003:0000c0d0       ?__WinRTOutOfMemoryExceptionCallback@@3P6APEAXXZEA 00000001800510d0     libvcruntime:ehhelpers.obj
 0003:0000c160       __pPurecall                0000000180051160     libvcruntime:purevirt_data.obj
 0003:0000c198       ?pArgList@UnDecorator@@0PEAVReplicator@@EA 0000000180051198     libvcruntime:undname.obj
 0003:0000c1a0       ?pZNameList@UnDecorator@@0PEAVReplicator@@EA 00000001800511a0     libvcruntime:undname.obj
 0003:0000c1a8       ?pTemplateArgList@UnDecorator@@0PEAVReplicator@@EA 00000001800511a8     libvcruntime:undname.obj
 0003:0000c1b0       ?gName@UnDecorator@@0PEBDEB 00000001800511b0     libvcruntime:undname.obj
 0003:0000c1b8       ?name@UnDecorator@@0PEBDEB 00000001800511b8     libvcruntime:undname.obj
 0003:0000c1c0       ?disableFlags@UnDecorator@@0KA 00000001800511c0     libvcruntime:undname.obj
 0003:0000c1c4       ?fExplicitTemplateParams@UnDecorator@@0_NA 00000001800511c4     libvcruntime:undname.obj
 0003:0000c1c5       ?fGetTemplateArgumentList@UnDecorator@@0_NA 00000001800511c5     libvcruntime:undname.obj
 0003:0000c1c8       ?m_pGetParameter@UnDecorator@@0P6APEADJ@ZEA 00000001800511c8     libvcruntime:undname.obj
 0003:0000c1d0       ?m_CHPENameOffset@UnDecorator@@0KA 00000001800511d0     libvcruntime:undname.obj
 0003:0000c1d4       ?m_recursionLevel@UnDecorator@@0KA 00000001800511d4     libvcruntime:undname.obj
 0003:0000c258       ?c_exit_complete@?1???R<lambda_6e4b09c48022b2350581041d5f6b0c4c>@@QEBA@XZ@4_NA 0000000180051258     libucrt:exit.obj
 0003:0000c368       _environ_table             0000000180051368     libucrt:environment_initialization.obj
 0003:0000c370       _wenviron_table            0000000180051370     libucrt:environment_initialization.obj
 0003:0000c378       __dcrt_initial_wide_environment 0000000180051378     libucrt:environment_initialization.obj
 0003:0000c380       __dcrt_initial_narrow_environment 0000000180051380     libucrt:environment_initialization.obj
 0003:0000c388       __acrt_atexit_table        0000000180051388     libucrt:onexit.obj
 0003:0000c3a0       __acrt_at_quick_exit_table 00000001800513a0     libucrt:onexit.obj
 0003:0000c3c0       _nstream                   00000001800513c0     libucrt:_file.obj
 0003:0000c3c8       __piob                     00000001800513c8     libucrt:_file.obj
 0003:0000c3d8       __acrt_stdout_buffer       00000001800513d8     libucrt:_sftbuf.obj
 0003:0000c3e0       __acrt_stderr_buffer       00000001800513e0     libucrt:_sftbuf.obj
 0003:0000c3e8       __acrt_locale_changed_data 00000001800513e8     libucrt:wsetlocale.obj
 0003:0000c3f0       __acrt_current_locale_data 00000001800513f0     libucrt:nlsdata.obj
 0003:0000c400       __pioinfo                  0000000180051400     libucrt:ioinit.obj
 0003:0000c800       _nhandle                   0000000180051800     libucrt:ioinit.obj
 0003:0000ca48       _mbctype                   0000000180051a48     libucrt:mbctype.obj
 0003:0000ca50       _mbcasemap                 0000000180051a50     libucrt:mbctype.obj
 0003:0000ca58       __acrt_current_multibyte_data 0000000180051a58     libucrt:mbctype.obj
 0003:0000ca68       _pgmptr                    0000000180051a68     libucrt:argv_data.obj
 0003:0000ca70       __argc                     0000000180051a70     libucrt:argv_data.obj
 0003:0000ca78       __argv                     0000000180051a78     libucrt:argv_data.obj
 0003:0000ca80       __wargv                    0000000180051a80     libucrt:argv_data.obj
 0003:0000ca88       _acmdln                    0000000180051a88     libucrt:argv_data.obj
 0003:0000ca90       _wcmdln                    0000000180051a90     libucrt:argv_data.obj
 0003:0000cc50       __acrt_heap                0000000180051c50     libucrt:heap_handle.obj
 0003:0000cc8c       __acrt_lconv_static_null   0000000180051c8c     libucrt:localeconv.obj
 0003:0000cc90       __acrt_lconv_static_W_null 0000000180051c90     libucrt:localeconv.obj
 0003:0000cca4       __fma3_is_available        0000000180051ca4     libucrt:fma3_available.obj
 0003:0000cca8       __use_fma3_lib             0000000180051ca8     libucrt:fma3_available.obj
 0003:0000ccb0       ?g_LastSetConsoleFont@@3UMY_CONSOLE_FONT_INFOEX@@A 0000000180051cb0     common-kernel64:WConsole.obj
 0003:0000cd24       __scrt_ucrt_dll_is_in_use  0000000180051d24     <common>
 0003:0000cd28       __dyn_tls_init_callback    0000000180051d28     <common>

 entry point at        0001:0001c888

 Static symbols

 0000:fffa8000       .debug$S                   0000000180000000     ConEmu.x64.exp
 0000:fffa8000       .debug$S                   0000000180000000     advapi32:ADVAPI32.dll
 0000:fffa8000       .debug$S                   0000000180000000     advapi32:ADVAPI32.dll
 0000:fffa8000       .debug$S                   0000000180000000     advapi32:ADVAPI32.dll
 0000:fffa8000       .debug$S                   0000000180000000     advapi32:ADVAPI32.dll
 0000:fffa8000       .debug$S                   0000000180000000     advapi32:ADVAPI32.dll
 0000:fffa8000       .debug$S                   0000000180000000     advapi32:ADVAPI32.dll
 0000:fffa8000       .debug$S                   0000000180000000     advapi32:ADVAPI32.dll
 0000:fffa8000       .debug$S                   0000000180000000     advapi32:ADVAPI32.dll
 0000:fffa8000       .debug$S                   0000000180000000     advapi32:ADVAPI32.dll
 0000:fffa8000       .debug$S                   0000000180000000     advapi32:ADVAPI32.dll
 0000:fffa8000       .debug$S                   0000000180000000     advapi32:ADVAPI32.dll
 0000:fffa8000       .debug$S                   0000000180000000     gdi32:GDI32.dll
 0000:fffa8000       .debug$S                   0000000180000000     gdi32:GDI32.dll
 0000:fffa8000       .debug$S                   0000000180000000     gdi32:GDI32.dll
 0000:fffa8000       .debug$S                   0000000180000000     gdi32:GDI32.dll
 0000:fffa8000       .debug$S                   0000000180000000     gdi32:GDI32.dll
 0000:fffa8000       .debug$S                   0000000180000000     gdi32:GDI32.dll
 0000:fffa8000       .debug$S                   0000000180000000     gdi32:GDI32.dll
 0000:fffa8000       .debug$S                   0000000180000000     gdi32:GDI32.dll
 0000:fffa8000       .debug$S                   0000000180000000     gdi32:GDI32.dll
 0000:fffa8000       .debug$S                   0000000180000000     gdi32:GDI32.dll
 0000:fffa8000       .debug$S                   0000000180000000     gdi32:GDI32.dll
 0000:fffa8000       .debug$S                   0000000180000000     gdi32:GDI32.dll
 0000:fffa8000       .debug$S                   0000000180000000     gdi32:GDI32.dll
 0000:fffa8000       .debug$S                   0000000180000000     kernel32:KERNEL32.dll
 0000:fffa8000       .debug$S                   0000000180000000     kernel32:KERNEL32.dll
 0000:fffa8000       .debug$S                   0000000180000000     kernel32:KERNEL32.dll
 0000:fffa8000       .debug$S                   0000000180000000     kernel32:KERNEL32.dll
 0000:fffa8000       .debug$S                   0000000180000000     kernel32:KERNEL32.dll
 0000:fffa8000       .debug$S                   0000000180000000     kernel32:KERNEL32.dll
 0000:fffa8000       .debug$S                   0000000180000000     kernel32:KERNEL32.dll
 0000:fffa8000       .debug$S                   0000000180000000     kernel32:KERNEL32.dll
 0000:fffa8000       .debug$S                   0000000180000000     kernel32:KERNEL32.dll
 0000:fffa8000       .debug$S                   0000000180000000     kernel32:KERNEL32.dll
 0000:fffa8000       .debug$S                   0000000180000000     kernel32:KERNEL32.dll
 0000:fffa8000       .debug$S                   0000000180000000     kernel32:KERNEL32.dll
 0000:fffa8000       .debug$S                   0000000180000000     kernel32:KERNEL32.dll
 0000:fffa8000       .debug$S                   0000000180000000     kernel32:KERNEL32.dll
 0000:fffa8000       .debug$S                   0000000180000000     kernel32:KERNEL32.dll
 0000:fffa8000       .debug$S                   0000000180000000     kernel32:KERNEL32.dll
 0000:fffa8000       .debug$S                   0000000180000000     kernel32:KERNEL32.dll
 0000:fffa8000       .debug$S                   0000000180000000     kernel32:KERNEL32.dll
 0000:fffa8000       .debug$S                   0000000180000000     kernel32:KERNEL32.dll
 0000:fffa8000       .debug$S                   0000000180000000     kernel32:KERNEL32.dll
 0000:fffa8000       .debug$S                   0000000180000000     kernel32:KERNEL32.dll
 0000:fffa8000       .debug$S                   0000000180000000     kernel32:KERNEL32.dll
 0000:fffa8000       .debug$S                   0000000180000000     kernel32:KERNEL32.dll
 0000:fffa8000       .debug$S                   0000000180000000     kernel32:KERNEL32.dll
 0000:fffa8000       .debug$S                   0000000180000000     kernel32:KERNEL32.dll
 0000:fffa8000       .debug$S                   0000000180000000     kernel32:KERNEL32.dll
 0000:fffa8000       .debug$S                   0000000180000000     kernel32:KERNEL32.dll
 0000:fffa8000       .debug$S                   0000000180000000     kernel32:KERNEL32.dll
 0000:fffa8000       .debug$S                   0000000180000000     kernel32:KERNEL32.dll
 0000:fffa8000       .debug$S                   0000000180000000     kernel32:KERNEL32.dll
 0000:fffa8000       .debug$S                   0000000180000000     kernel32:KERNEL32.dll
 0000:fffa8000       .debug$S                   0000000180000000     kernel32:KERNEL32.dll
 0000:fffa8000       .debug$S                   0000000180000000     kernel32:KERNEL32.dll
 0000:fffa8000       .debug$S                   0000000180000000     kernel32:KERNEL32.dll
 0000:fffa8000       .debug$S                   0000000180000000     kernel32:KERNEL32.dll
 0000:fffa8000       .debug$S                   0000000180000000     kernel32:KERNEL32.dll
 0000:fffa8000       .debug$S                   0000000180000000     kernel32:KERNEL32.dll
 0000:fffa8000       .debug$S                   0000000180000000     kernel32:KERNEL32.dll
 0000:fffa8000       .debug$S                   0000000180000000     kernel32:KERNEL32.dll
 0000:fffa8000       .debug$S                   0000000180000000     kernel32:KERNEL32.dll
 0000:fffa8000       .debug$S                   0000000180000000     kernel32:KERNEL32.dll
 0000:fffa8000       .debug$S                   0000000180000000     kernel32:KERNEL32.dll
 0000:fffa8000       .debug$S                   0000000180000000     kernel32:KERNEL32.dll
 0000:fffa8000       .debug$S                   0000000180000000     kernel32:KERNEL32.dll
 0000:fffa8000       .debug$S                   0000000180000000     kernel32:KERNEL32.dll
 0000:fffa8000       .debug$S                   0000000180000000     kernel32:KERNEL32.dll
 0000:fffa8000       .debug$S                   0000000180000000     kernel32:KERNEL32.dll
 0000:fffa8000       .debug$S                   0000000180000000     kernel32:KERNEL32.dll
 0000:fffa8000       .debug$S                   0000000180000000     kernel32:KERNEL32.dll
 0000:fffa8000       .debug$S                   0000000180000000     kernel32:KERNEL32.dll
 0000:fffa8000       .debug$S                   0000000180000000     kernel32:KERNEL32.dll
 0000:fffa8000       .debug$S                   0000000180000000     kernel32:KERNEL32.dll
 0000:fffa8000       .debug$S                   0000000180000000     kernel32:KERNEL32.dll
 0000:fffa8000       .debug$S                   0000000180000000     kernel32:KERNEL32.dll
 0000:fffa8000       .debug$S                   0000000180000000     kernel32:KERNEL32.dll
 0000:fffa8000       .debug$S                   0000000180000000     kernel32:KERNEL32.dll
 0000:fffa8000       .debug$S                   0000000180000000     kernel32:KERNEL32.dll
 0000:fffa8000       .debug$S                   0000000180000000     kernel32:KERNEL32.dll
 0000:fffa8000       .debug$S                   0000000180000000     kernel32:KERNEL32.dll
 0000:fffa8000       .debug$S                   0000000180000000     kernel32:KERNEL32.dll
 0000:fffa8000       .debug$S                   0000000180000000     kernel32:KERNEL32.dll
 0000:fffa8000       .debug$S                   0000000180000000     kernel32:KERNEL32.dll
 0000:fffa8000       .debug$S                   0000000180000000     kernel32:KERNEL32.dll
 0000:fffa8000       .debug$S                   0000000180000000     kernel32:KERNEL32.dll
 0000:fffa8000       .debug$S                   0000000180000000     kernel32:KERNEL32.dll
 0000:fffa8000       .debug$S                   0000000180000000     kernel32:KERNEL32.dll
 0000:fffa8000       .debug$S                   0000000180000000     kernel32:KERNEL32.dll
 0000:fffa8000       .debug$S                   0000000180000000     kernel32:KERNEL32.dll
 0000:fffa8000       .debug$S                   0000000180000000     kernel32:KERNEL32.dll
 0000:fffa8000       .debug$S                   0000000180000000     kernel32:KERNEL32.dll
 0000:fffa8000       .debug$S                   0000000180000000     kernel32:KERNEL32.dll
 0000:fffa8000       .debug$S                   0000000180000000     kernel32:KERNEL32.dll
 0000:fffa8000       .debug$S                   0000000180000000     kernel32:KERNEL32.dll
 0000:fffa8000       .debug$S                   0000000180000000     kernel32:KERNEL32.dll
 0000:fffa8000       .debug$S                   0000000180000000     kernel32:KERNEL32.dll
 0000:fffa8000       .debug$S                   0000000180000000     kernel32:KERNEL32.dll
 0000:fffa8000       .debug$S                   0000000180000000     kernel32:KERNEL32.dll
 0000:fffa8000       .debug$S                   0000000180000000     kernel32:KERNEL32.dll
 0000:fffa8000       .debug$S                   0000000180000000     kernel32:KERNEL32.dll
 0000:fffa8000       .debug$S                   0000000180000000     kernel32:KERNEL32.dll
 0000:fffa8000       .debug$S                   0000000180000000     kernel32:KERNEL32.dll
 0000:fffa8000       .debug$S                   0000000180000000     kernel32:KERNEL32.dll
 0000:fffa8000       .debug$S                   0000000180000000     kernel32:KERNEL32.dll
 0000:fffa8000       .debug$S                   0000000180000000     kernel32:KERNEL32.dll
 0000:fffa8000       .debug$S                   0000000180000000     kernel32:KERNEL32.dll
 0000:fffa8000       .debug$S                   0000000180000000     kernel32:KERNEL32.dll
 0000:fffa8000       .debug$S                   0000000180000000     kernel32:KERNEL32.dll
 0000:fffa8000       .debug$S                   0000000180000000     kernel32:KERNEL32.dll
 0000:fffa8000       .debug$S                   0000000180000000     kernel32:KERNEL32.dll
 0000:fffa8000       .debug$S                   0000000180000000     kernel32:KERNEL32.dll
 0000:fffa8000       .debug$S                   0000000180000000     kernel32:KERNEL32.dll
 0000:fffa8000       .debug$S                   0000000180000000     kernel32:KERNEL32.dll
 0000:fffa8000       .debug$S                   0000000180000000     kernel32:KERNEL32.dll
 0000:fffa8000       .debug$S                   0000000180000000     kernel32:KERNEL32.dll
 0000:fffa8000       .debug$S                   0000000180000000     kernel32:KERNEL32.dll
 0000:fffa8000       .debug$S                   0000000180000000     kernel32:KERNEL32.dll
 0000:fffa8000       .debug$S                   0000000180000000     kernel32:KERNEL32.dll
 0000:fffa8000       .debug$S                   0000000180000000     kernel32:KERNEL32.dll
 0000:fffa8000       .debug$S                   0000000180000000     kernel32:KERNEL32.dll
 0000:fffa8000       .debug$S                   0000000180000000     kernel32:KERNEL32.dll
 0000:fffa8000       .debug$S                   0000000180000000     kernel32:KERNEL32.dll
 0000:fffa8000       .debug$S                   0000000180000000     kernel32:KERNEL32.dll
 0000:fffa8000       .debug$S                   0000000180000000     kernel32:KERNEL32.dll
 0000:fffa8000       .debug$S                   0000000180000000     kernel32:KERNEL32.dll
 0000:fffa8000       .debug$S                   0000000180000000     kernel32:KERNEL32.dll
 0000:fffa8000       .debug$S                   0000000180000000     kernel32:KERNEL32.dll
 0000:fffa8000       .debug$S                   0000000180000000     kernel32:KERNEL32.dll
 0000:fffa8000       .debug$S                   0000000180000000     kernel32:KERNEL32.dll
 0000:fffa8000       .debug$S                   0000000180000000     kernel32:KERNEL32.dll
 0000:fffa8000       .debug$S                   0000000180000000     kernel32:KERNEL32.dll
 0000:fffa8000       .debug$S                   0000000180000000     kernel32:KERNEL32.dll
 0000:fffa8000       .debug$S                   0000000180000000     kernel32:KERNEL32.dll
 0000:fffa8000       .debug$S                   0000000180000000     kernel32:KERNEL32.dll
 0000:fffa8000       .debug$S                   0000000180000000     kernel32:KERNEL32.dll
 0000:fffa8000       .debug$S                   0000000180000000     kernel32:KERNEL32.dll
 0000:fffa8000       .debug$S                   0000000180000000     kernel32:KERNEL32.dll
 0000:fffa8000       .debug$S                   0000000180000000     kernel32:KERNEL32.dll
 0000:fffa8000       .debug$S                   0000000180000000     kernel32:KERNEL32.dll
 0000:fffa8000       .debug$S                   0000000180000000     kernel32:KERNEL32.dll
 0000:fffa8000       .debug$S                   0000000180000000     kernel32:KERNEL32.dll
 0000:fffa8000       .debug$S                   0000000180000000     kernel32:KERNEL32.dll
 0000:fffa8000       .debug$S                   0000000180000000     kernel32:KERNEL32.dll
 0000:fffa8000       .debug$S                   0000000180000000     kernel32:KERNEL32.dll
 0000:fffa8000       .debug$S                   0000000180000000     kernel32:KERNEL32.dll
 0000:fffa8000       .debug$S                   0000000180000000     kernel32:KERNEL32.dll
 0000:fffa8000       .debug$S                   0000000180000000     kernel32:KERNEL32.dll
 0000:fffa8000       .debug$S                   0000000180000000     kernel32:KERNEL32.dll
 0000:fffa8000       .debug$S                   0000000180000000     kernel32:KERNEL32.dll
 0000:fffa8000       .debug$S                   0000000180000000     kernel32:KERNEL32.dll
 0000:fffa8000       .debug$S                   0000000180000000     kernel32:KERNEL32.dll
 0000:fffa8000       .debug$S                   0000000180000000     kernel32:KERNEL32.dll
 0000:fffa8000       .debug$S                   0000000180000000     kernel32:KERNEL32.dll
 0000:fffa8000       .debug$S                   0000000180000000     kernel32:KERNEL32.dll
 0000:fffa8000       .debug$S                   0000000180000000     kernel32:KERNEL32.dll
 0000:fffa8000       .debug$S                   0000000180000000     kernel32:KERNEL32.dll
 0000:fffa8000       .debug$S                   0000000180000000     kernel32:KERNEL32.dll
 0000:fffa8000       .debug$S                   0000000180000000     kernel32:KERNEL32.dll
 0000:fffa8000       .debug$S                   0000000180000000     kernel32:KERNEL32.dll
 0000:fffa8000       .debug$S                   0000000180000000     kernel32:KERNEL32.dll
 0000:fffa8000       .debug$S                   0000000180000000     kernel32:KERNEL32.dll
 0000:fffa8000       .debug$S                   0000000180000000     kernel32:KERNEL32.dll
 0000:fffa8000       .debug$S                   0000000180000000     kernel32:KERNEL32.dll
 0000:fffa8000       .debug$S                   0000000180000000     kernel32:KERNEL32.dll
 0000:fffa8000       .debug$S                   0000000180000000     kernel32:KERNEL32.dll
 0000:fffa8000       .debug$S                   0000000180000000     kernel32:KERNEL32.dll
 0000:fffa8000       .debug$S                   0000000180000000     kernel32:KERNEL32.dll
 0000:fffa8000       .debug$S                   0000000180000000     kernel32:KERNEL32.dll
 0000:fffa8000       .debug$S                   0000000180000000     kernel32:KERNEL32.dll
 0000:fffa8000       .debug$S                   0000000180000000     kernel32:KERNEL32.dll
 0000:fffa8000       .debug$S                   0000000180000000     kernel32:KERNEL32.dll
 0000:fffa8000       .debug$S                   0000000180000000     kernel32:KERNEL32.dll
 0000:fffa8000       .debug$S                   0000000180000000     kernel32:KERNEL32.dll
 0000:fffa8000       .debug$S                   0000000180000000     kernel32:KERNEL32.dll
 0000:fffa8000       .debug$S                   0000000180000000     kernel32:KERNEL32.dll
 0000:fffa8000       .debug$S                   0000000180000000     kernel32:KERNEL32.dll
 0000:fffa8000       .debug$S                   0000000180000000     kernel32:KERNEL32.dll
 0000:fffa8000       .debug$S                   0000000180000000     kernel32:KERNEL32.dll
 0000:fffa8000       .debug$S                   0000000180000000     kernel32:KERNEL32.dll
 0000:fffa8000       .debug$S                   0000000180000000     kernel32:KERNEL32.dll
 0000:fffa8000       .debug$S                   0000000180000000     kernel32:KERNEL32.dll
 0000:fffa8000       .debug$S                   0000000180000000     kernel32:KERNEL32.dll
 0000:fffa8000       .debug$S                   0000000180000000     kernel32:KERNEL32.dll
 0000:fffa8000       .debug$S                   0000000180000000     kernel32:KERNEL32.dll
 0000:fffa8000       .debug$S                   0000000180000000     kernel32:KERNEL32.dll
 0000:fffa8000       .debug$S                   0000000180000000     kernel32:KERNEL32.dll
 0000:fffa8000       .debug$S                   0000000180000000     kernel32:KERNEL32.dll
 0000:fffa8000       .debug$S                   0000000180000000     kernel32:KERNEL32.dll
 0000:fffa8000       .debug$S                   0000000180000000     kernel32:KERNEL32.dll
 0000:fffa8000       .debug$S                   0000000180000000     kernel32:KERNEL32.dll
 0000:fffa8000       .debug$S                   0000000180000000     kernel32:KERNEL32.dll
 0000:fffa8000       .debug$S                   0000000180000000     kernel32:KERNEL32.dll
 0000:fffa8000       .debug$S                   0000000180000000     kernel32:KERNEL32.dll
 0000:fffa8000       .debug$S                   0000000180000000     kernel32:KERNEL32.dll
 0000:fffa8000       .debug$S                   0000000180000000     kernel32:KERNEL32.dll
 0000:fffa8000       .debug$S                   0000000180000000     kernel32:KERNEL32.dll
 0000:fffa8000       .debug$S                   0000000180000000     kernel32:KERNEL32.dll
 0000:fffa8000       .debug$S                   0000000180000000     kernel32:KERNEL32.dll
 0000:fffa8000       .debug$S                   0000000180000000     kernel32:KERNEL32.dll
 0000:fffa8000       .debug$S                   0000000180000000     kernel32:KERNEL32.dll
 0000:fffa8000       .debug$S                   0000000180000000     kernel32:KERNEL32.dll
 0000:fffa8000       .debug$S                   0000000180000000     kernel32:KERNEL32.dll
 0000:fffa8000       .debug$S                   0000000180000000     kernel32:KERNEL32.dll
 0000:fffa8000       .debug$S                   0000000180000000     kernel32:KERNEL32.dll
 0000:fffa8000       .debug$S                   0000000180000000     kernel32:KERNEL32.dll
 0000:fffa8000       .debug$S                   0000000180000000     kernel32:KERNEL32.dll
 0000:fffa8000       .debug$S                   0000000180000000     shell32:SHELL32.dll
 0002:fffcd000       .idata$6                   0000000180000000     shell32:SHELL32.dll
 0000:fffa8000       .debug$S                   0000000180000000     user32:USER32.dll
 0000:fffa8000       .debug$S                   0000000180000000     user32:USER32.dll
 0000:fffa8000       .debug$S                   0000000180000000     user32:USER32.dll
 0000:fffa8000       .debug$S                   0000000180000000     user32:USER32.dll
 0000:fffa8000       .debug$S                   0000000180000000     user32:USER32.dll
 0000:fffa8000       .debug$S                   0000000180000000     user32:USER32.dll
 0000:fffa8000       .debug$S                   0000000180000000     user32:USER32.dll
 0000:fffa8000       .debug$S                   0000000180000000     user32:USER32.dll
 0000:fffa8000       .debug$S                   0000000180000000     user32:USER32.dll
 0000:fffa8000       .debug$S                   0000000180000000     user32:USER32.dll
 0000:fffa8000       .debug$S                   0000000180000000     user32:USER32.dll
 0000:fffa8000       .debug$S                   0000000180000000     user32:USER32.dll
 0000:fffa8000       .debug$S                   0000000180000000     user32:USER32.dll
 0000:fffa8000       .debug$S                   0000000180000000     user32:USER32.dll
 0000:fffa8000       .debug$S                   0000000180000000     user32:USER32.dll
 0000:fffa8000       .debug$S                   0000000180000000     user32:USER32.dll
 0000:fffa8000       .debug$S                   0000000180000000     user32:USER32.dll
 0000:fffa8000       .debug$S                   0000000180000000     user32:USER32.dll
 0000:fffa8000       .debug$S                   0000000180000000     user32:USER32.dll
 0000:fffa8000       .debug$S                   0000000180000000     user32:USER32.dll
 0000:fffa8000       .debug$S                   0000000180000000     user32:USER32.dll
 0000:fffa8000       .debug$S                   0000000180000000     user32:USER32.dll
 0000:fffa8000       .debug$S                   0000000180000000     user32:USER32.dll
 0000:fffa8000       .debug$S                   0000000180000000     user32:USER32.dll
 0000:fffa8000       .debug$S                   0000000180000000     user32:USER32.dll
 0000:fffa8000       .debug$S                   0000000180000000     user32:USER32.dll
 0000:fffa8000       .debug$S                   0000000180000000     user32:USER32.dll
 0000:fffa8000       .debug$S                   0000000180000000     user32:USER32.dll
 0000:fffa8000       .debug$S                   0000000180000000     user32:USER32.dll
 0000:fffa8000       .debug$S                   0000000180000000     user32:USER32.dll
 0000:fffa8000       .debug$S                   0000000180000000     user32:USER32.dll
 0000:fffa8000       .debug$S                   0000000180000000     user32:USER32.dll
 0000:fffa8000       .debug$S                   0000000180000000     user32:USER32.dll
 0000:fffa8000       .debug$S                   0000000180000000     user32:USER32.dll
 0000:fffa8000       .debug$S                   0000000180000000     user32:USER32.dll
 0000:fffa8000       .debug$S                   0000000180000000     user32:USER32.dll
 0000:fffa8000       .debug$S                   0000000180000000     user32:USER32.dll
 0000:fffa8000       .debug$S                   0000000180000000     user32:USER32.dll
 0000:fffa8000       .debug$S                   0000000180000000     user32:USER32.dll
 0000:fffa8000       .debug$S                   0000000180000000     user32:USER32.dll
 0000:fffa8000       .debug$S                   0000000180000000     user32:USER32.dll
 0000:fffa8000       .debug$S                   0000000180000000     user32:USER32.dll
 0000:fffa8000       .debug$S                   0000000180000000     version:VERSION.dll
 0000:fffa8000       .debug$S                   0000000180000000     version:VERSION.dll
 0000:fffa8000       .debug$S                   0000000180000000     version:VERSION.dll
 0001:00000000       ??__EgsMapHelper@@YAXXZ    0000000180001000 f   common-user64:WConsoleEx.obj
 0001:000012d4       ?CallGuiMacroDlg@@YA_JPEAXHH0@Z 00000001800022d4 f   ConEmuPlugin1900.obj
 0001:000014dc       ?CallGuiMacroProc@@YAXXZ   00000001800024dc f   ConEmuPlugin1900.obj
 0001:00001cbc       ?GetFarSetting@@YAHPEAX_KPEB_W@Z 0000000180002cbc f   ConEmuPlugin1900.obj
 0001:00003dc0       ?CallGuiMacroDlg@@YA_JPEAX_J10@Z 0000000180004dc0 f   ConEmuPlugin2800.obj
 0001:00003fd4       ?CallGuiMacroProc@@YAXXZ   0000000180004fd4 f   ConEmuPlugin2800.obj
 0001:00004404       ?FreeMacroResult@@YAXPEAXPEAUFarMacroValue@@_K@Z 0000000180005404 f   ConEmuPlugin2800.obj
 0001:00004584       ?GetFarSetting@@YAHPEAX_KPEB_W@Z 0000000180005584 f   ConEmuPlugin2800.obj
 0001:00006358       ?WExists@@YA_JAEBUWindowInfo@@AEBV?$MArray@UWindowInfo@@@@@Z 0000000180007358 f   ConEmuPlugin2800.obj
 0001:000063bc       ?WLoadWindows@@YA_JAEAV?$MArray@UWindowInfo@@@@H@Z 00000001800073bc f   ConEmuPlugin2800.obj
 0001:00006d90       ?CallGuiMacroDlg@@YA_JPEAXHH_J@Z 0000000180007d90 f   ConEmuPlugin995.obj
 0001:00006f78       ?CallGuiMacroProc@@YAXXZ   0000000180007f78 f   ConEmuPlugin995.obj
 0001:0000887c       ?CallGuiMacroDlg@@YA_JPEAXHH_J@Z 000000018000987c f   ConEmuPluginA.obj
 0001:00008af4       ?CallGuiMacroProc@@YAXXZ   0000000180009af4 f   ConEmuPluginA.obj
 0001:0000ca34       ?LoadFarVersion@@YA_NAEAUFarVersion@@AEAY0CAA@_W@Z 000000018000da34 f   ConEmuPluginBase.obj
 0001:0000cbe4       ?LoadModuleVersion@@YA_NPEB_WAEAUtagVS_FIXEDFILEINFO@@PEA_W_K@Z 000000018000dbe4 f   ConEmuPluginBase.obj
 0001:000191e8       initialize_environment     000000018001a1e8 f i libucrt:initialization.obj
 0001:000191e8       initialize_global_state_isolation 000000018001a1e8 f i libucrt:initialization.obj
 0001:000191e8       report_memory_leaks        000000018001a1e8 f i libucrt:initialization.obj
 0001:000191e8       uninitialize_c             000000018001a1e8 f i libucrt:initialization.obj
 0001:000191e8       uninitialize_global_state_isolation 000000018001a1e8 f i libucrt:initialization.obj
 0001:0001c1b0       $$000000                   000000018001d1b0     LIBCMT:amdsecgs.obj
 0001:0001c1f0       $$000000                   000000018001d1f0     LIBCMT:chkstk.obj
 0001:0001c300       ?__scrt_initialize_thread_safe_statics@@YAHXZ 000000018001d300 f   LIBCMT:thread_safe_statics.obj
 0001:0001c3d0       ?__scrt_uninitialize_thread_safe_statics@@YAXXZ 000000018001d3d0 f   LIBCMT:thread_safe_statics.obj
 0001:0001c568       ?dllmain_crt_dispatch@@YAHQEAUHINSTANCE__@@KQEAX@Z 000000018001d568 f   LIBCMT:dll_dllmain.obj
 0001:0001c5b8       ?dllmain_crt_process_attach@@YAHQEAUHINSTANCE__@@QEAX@Z 000000018001d5b8 f   LIBCMT:dll_dllmain.obj
 0001:0001c6d0       ?dllmain_crt_process_detach@@YAH_N@Z 000000018001d6d0 f   LIBCMT:dll_dllmain.obj
 0001:0001c754       ?dllmain_dispatch@@YAHQEAUHINSTANCE__@@KQEAX@Z 000000018001d754 f   LIBCMT:dll_dllmain.obj
 0001:0001ce00       capture_current_context    000000018001de00 f   LIBCMT:gs_report.obj
 0001:0001ce70       capture_previous_context   000000018001de70 f   LIBCMT:gs_report.obj
 0001:0001db30       $$000000                   000000018001eb30     libvcruntime:memcpy.obj
 0001:0001e1d0       $$000000                   000000018001f1d0     libvcruntime:memset.obj
 0001:0001e710       $$000000                   000000018001f710     libvcruntime:memcmp.obj
 0001:0001ef24       ??$BuildCatchObjectHelperInternal@V__FrameHandler4@@@@YAHPEAUEHExceptionRecord@@PEAXPEAUHandlerType4@FH4@@PEBU_s_CatchableType@@@Z 000000018001ff24 f   libvcruntime:frame.obj
 0001:0001f128       ??$BuildCatchObjectInternal@V__FrameHandler4@@@@YAXPEAUEHExceptionRecord@@PEAXPEAUHandlerType4@FH4@@PEBU_s_CatchableType@@@Z 0000000180020128 f   libvcruntime:frame.obj
 0001:0001f1ec       ??$CatchIt@V__FrameHandler4@@@@YAXPEAUEHExceptionRecord@@PEA_KPEAU_CONTEXT@@PEAU_xDISPATCHER_CONTEXT@@PEAUFuncInfo4@FH4@@PEAUHandlerType4@4@PEBU_s_CatchableType@@PEAUTryBlockMapEntry4@4@H1EE@Z 00000001800201ec f   libvcruntime:frame.obj
 0001:0001f2c0       ??$FindHandler@V__FrameHandler4@@@@YAXPEAUEHExceptionRecord@@PEA_KPEAU_CONTEXT@@PEAU_xDISPATCHER_CONTEXT@@PEAUFuncInfo4@FH4@@EH1@Z 00000001800202c0 f   libvcruntime:frame.obj
 0001:0001f7ec       ??$FindHandlerForForeignException@V__FrameHandler4@@@@YAXPEAUEHExceptionRecord@@PEA_KPEAU_CONTEXT@@PEAU_xDISPATCHER_CONTEXT@@PEAUFuncInfo4@FH4@@HH1@Z 00000001800207ec f   libvcruntime:frame.obj
 0001:00020594       ?ExFilterRethrow@@YAHPEAU_EXCEPTION_POINTERS@@PEAUEHExceptionRecord@@PEAH@Z 0000000180021594 f   libvcruntime:frame.obj
 0001:0002061c       ?ExFilterRethrowFH4@@YAHPEAU_EXCEPTION_POINTERS@@PEAUEHExceptionRecord@@HPEAH@Z 000000018002161c f   libvcruntime:frame.obj
 0001:00020934       ?IsInExceptionSpec@@YAEPEAUEHExceptionRecord@@PEBU_s_ESTypeList@@@Z 0000000180021934 f   libvcruntime:frame.obj
 0001:00020a24       ?Is_bad_exception_allowed@@YAEPEBU_s_ESTypeList@@@Z 0000000180021a24 f   libvcruntime:frame.obj
 0001:00020d00       $$000000                   0000000180021d00     libvcruntime:notify.obj
 0001:00020de8       ?try_get_function@@YAPEAXW4function_id@?A0x84e3c32f@@QEBDQEBW4module_id@2@2@Z 0000000180021de8 f   libvcruntime:winapi_downlevel.obj
 0001:000210d0       $$000000                   00000001800220d0     libvcruntime:handlers.obj
 0001:000211d8       ??$common_vsprintf@Vstandard_base@__crt_stdio_output@@D@@YAH_KQEAD0QEBDQEAU__crt_locale_pointers@@1@Z 00000001800221d8 f   libucrt:output.obj
 0001:000213a4       ??$common_vsprintf@Vstandard_base@__crt_stdio_output@@_W@@YAH_KQEA_W0QEB_WQEAU__crt_locale_pointers@@QEAD@Z 00000001800223a4 f   libucrt:output.obj
 0001:00022b68       $LN17                      0000000180023b68     libucrt:output.obj
 0001:000249dc       ??$?RV<lambda_d80eeec6fff315bfe5c115232f3240e3>@@AEAV<lambda_6e4b09c48022b2350581041d5f6b0c4c>@@V<lambda_2358e3775559c9db80273638284d5e45>@@@?$__crt_seh_guarded_call@X@@QEAAX$$QEAV<lambda_d80eeec6fff315bfe5c115232f3240e3>@@AEAV<lambda_6e4b09c48022b2350581041d5f6b0c4c>@@$$QEAV<lambda_2358e3775559c9db80273638284d5e45>@@@Z 00000001800259dc f   libucrt:exit.obj
 0001:00024a14       ??R<lambda_6e4b09c48022b2350581041d5f6b0c4c>@@QEBA@XZ 0000000180025a14 f   libucrt:exit.obj
 0001:00024ad8       ?atexit_exception_filter@@YAHK@Z 0000000180025ad8 f   libucrt:exit.obj
 0001:00024ae4       ?common_exit@@YAXHW4_crt_exit_cleanup_mode@@W4_crt_exit_return_mode@@@Z 0000000180025ae4 f   libucrt:exit.obj
 0001:00024ba0       ?exit_or_terminate_process@@YAXI@Z 0000000180025ba0 f   libucrt:exit.obj
 0001:00024bec       ?try_cor_exit_process@@YAXI@Z 0000000180025bec f   libucrt:exit.obj
 0001:00024c74       ??$parse_command_line@D@@YAXPEADPEAPEAD0PEA_K2@Z 0000000180025c74 f   libucrt:argv_parsing.obj
 0001:0002501c       ??$common_initialize_environment_nolock@D@@YAHXZ 000000018002601c f   libucrt:environment_initialization.obj
 0001:00025088       ??$create_environment@D@@YAQEAPEADQEAD@Z 0000000180026088 f   libucrt:environment_initialization.obj
 0001:00025190       ??$free_environment@D@@YAXQEAPEAD@Z 0000000180026190 f   libucrt:environment_initialization.obj
 0001:00025190       ??$free_environment@_W@@YAXQEAPEA_W@Z 0000000180026190 f   libucrt:environment_initialization.obj
 0001:000251d4       ??$uninitialize_environment_internal@D@@YAXAEAPEAPEAD@Z 00000001800261d4 f   libucrt:environment_initialization.obj
 0001:000251f0       ??$uninitialize_environment_internal@_W@@YAXAEAPEAPEA_W@Z 00000001800261f0 f   libucrt:environment_initialization.obj
 0001:0002524c       ??$?RV<lambda_638799b9deba96c50f710eeac98168cd>@@AEAV<lambda_22ebabd17bc4fa466a2aca6d8deb888d>@@V<lambda_a6f7d7db0129f75315ebf26d50c089f1>@@@?$__crt_seh_guarded_call@H@@QEAAH$$QEAV<lambda_638799b9deba96c50f710eeac98168cd>@@AEAV<lambda_22ebabd17bc4fa466a2aca6d8deb888d>@@$$QEAV<lambda_a6f7d7db0129f75315ebf26d50c089f1>@@@Z 000000018002624c f   libucrt:onexit.obj
 0001:00025288       ??$?RV<lambda_7777bce6b2f8c936911f934f8298dc43>@@AEAV<lambda_f03950bc5685219e0bcd2087efbe011e>@@V<lambda_3883c3dff614d5e0c5f61bb1ac94921c>@@@?$__crt_seh_guarded_call@H@@QEAAH$$QEAV<lambda_7777bce6b2f8c936911f934f8298dc43>@@AEAV<lambda_f03950bc5685219e0bcd2087efbe011e>@@$$QEAV<lambda_3883c3dff614d5e0c5f61bb1ac94921c>@@@Z 0000000180026288 f   libucrt:onexit.obj
 0001:000252c4       ??R<lambda_22ebabd17bc4fa466a2aca6d8deb888d>@@QEBAHXZ 00000001800262c4 f   libucrt:onexit.obj
 0001:00025474       ??R<lambda_f03950bc5685219e0bcd2087efbe011e>@@QEBAHXZ 0000000180026474 f   libucrt:onexit.obj
 0001:00025648       initialize_global_variables 0000000180026648 f   libucrt:initialization.obj
 0001:0002565c       initialize_c               000000018002665c f   libucrt:initialization.obj
 0001:00025680       uninitialize_environment   0000000180026680 f   libucrt:initialization.obj
 0001:00025690       initialize_pointers        0000000180026690 f   libucrt:initialization.obj
 0001:000256d0       uninitialize_vcruntime     00000001800266d0 f   libucrt:initialization.obj
 0001:000256d8       uninitialize_allocated_memory 00000001800266d8 f   libucrt:initialization.obj
 0001:00025718       uninitialize_allocated_io_buffers 0000000180026718 f   libucrt:initialization.obj
 0001:000258f0       $$000000                   00000001800268f0     libucrt:strncmp.obj
 0001:0002606c       ??$?RV<lambda_0ae27a3a962d80f24befdcbee591983d>@@AEAV<lambda_8d0ee55de4b1038c4002e0adecdf1839>@@V<lambda_dc504788e8f1664fe9b84e20bfb512f2>@@@?$__crt_seh_guarded_call@X@@QEAAX$$QEAV<lambda_0ae27a3a962d80f24befdcbee591983d>@@AEAV<lambda_8d0ee55de4b1038c4002e0adecdf1839>@@$$QEAV<lambda_dc504788e8f1664fe9b84e20bfb512f2>@@@Z 000000018002706c f   libucrt:per_thread_data.obj
 0001:000260ac       ??$?RV<lambda_2d41944a1d46af3157314b8a01080d33>@@AEAV<lambda_8f455de75cd7d7f24b4096f044d8b9e6>@@V<lambda_aa500f224e6afead328df44964fe2772>@@@?$__crt_seh_guarded_call@X@@QEAAX$$QEAV<lambda_2d41944a1d46af3157314b8a01080d33>@@AEAV<lambda_8f455de75cd7d7f24b4096f044d8b9e6>@@$$QEAV<lambda_aa500f224e6afead328df44964fe2772>@@@Z 00000001800270ac f   libucrt:per_thread_data.obj
 0001:000260ec       ??$?RV<lambda_aa87e3671a710a21b5dc78c0bdf72e11>@@AEAV<lambda_92619d2358a28f41a33ba319515a20b9>@@V<lambda_6992ecaafeb10aed2b74cb1fae11a551>@@@?$__crt_seh_guarded_call@X@@QEAAX$$QEAV<lambda_aa87e3671a710a21b5dc78c0bdf72e11>@@AEAV<lambda_92619d2358a28f41a33ba319515a20b9>@@$$QEAV<lambda_6992ecaafeb10aed2b74cb1fae11a551>@@@Z 00000001800270ec f   libucrt:per_thread_data.obj
 0001:00026134       ??$?RV<lambda_f2e299630e499de9f9a165e60fcd3db5>@@AEAV<lambda_2ae9d31cdba2644fcbeaf08da7c24588>@@V<lambda_40d01ff24d0e7b3814fdbdcee8eab3c7>@@@?$__crt_seh_guarded_call@X@@QEAAX$$QEAV<lambda_f2e299630e499de9f9a165e60fcd3db5>@@AEAV<lambda_2ae9d31cdba2644fcbeaf08da7c24588>@@$$QEAV<lambda_40d01ff24d0e7b3814fdbdcee8eab3c7>@@@Z 0000000180027134 f   libucrt:per_thread_data.obj
 0001:00026194       ?construct_ptd_array@@YAXQEAU__acrt_ptd@@@Z 0000000180027194 f   libucrt:per_thread_data.obj
 0001:00026264       ?destroy_fls@@YAXPEAX@Z    0000000180027264 f   libucrt:per_thread_data.obj
 0001:00026284       ?destroy_ptd_array@@YAXQEAU__acrt_ptd@@@Z 0000000180027284 f   libucrt:per_thread_data.obj
 0001:0002637c       ?replace_current_thread_locale_nolock@@YAXQEAU__acrt_ptd@@QEAU__crt_locale_data@@@Z 000000018002737c f   libucrt:per_thread_data.obj
 0001:00026738       ?fp_format_a@@YAHQEBNPEAD_KQEAD2H_NIQEAU__crt_locale_pointers@@W4__acrt_rounding_mode@@@Z 0000000180027738 f   libucrt:cvt.obj
 0001:00026ab8       ?fp_format_e@@YAHQEBNQEAD_K12H_NIQEAU__crt_locale_pointers@@W4__acrt_rounding_mode@@@Z 0000000180027ab8 f   libucrt:cvt.obj
 0001:00026ba8       ?fp_format_e_internal@@YAHQEAD_KH_NIQEAU_strflt@@2QEAU__crt_locale_pointers@@@Z 0000000180027ba8 f   libucrt:cvt.obj
 0001:00026d7c       ?fp_format_f_internal@@YAHQEAD_KHQEAU_strflt@@_NQEAU__crt_locale_pointers@@@Z 0000000180027d7c f   libucrt:cvt.obj
 0001:00026ee4       ?fp_format_g@@YAHQEBNQEAD_K12H_NIQEAU__crt_locale_pointers@@@Z 0000000180027ee4 f   libucrt:cvt.obj
 0001:00027024       ?should_round_up@@YA_NQEBN_KFW4__acrt_rounding_mode@@@Z 0000000180028024 f   libucrt:cvt.obj
 0001:00027648       ??$?RV<lambda_410d79af7f07d98d83a3f525b3859a53>@@AEAV<lambda_3e16ef9562a7dcce91392c22ab16ea36>@@V<lambda_38119f0e861e05405d8a144b9b982f0a>@@@?$__crt_seh_guarded_call@X@@QEAAX$$QEAV<lambda_410d79af7f07d98d83a3f525b3859a53>@@AEAV<lambda_3e16ef9562a7dcce91392c22ab16ea36>@@$$QEAV<lambda_38119f0e861e05405d8a144b9b982f0a>@@@Z 0000000180028648 f   libucrt:wsetlocale.obj
 0001:000276f4       ?initialize_inherited_file_handles_nolock@@YAXXZ 00000001800286f4 f   libucrt:ioinit.obj
 0001:000277e4       ?initialize_stdio_handles_nolock@@YAXXZ 00000001800287e4 f   libucrt:ioinit.obj
 0001:00027c7c       ?<lambda_invoker_cdecl>@<lambda_a1ce4c8ae42411fd470c77163914f50e>@@CAHPEBX0@Z 0000000180028c7c f   libucrt:argv_wildcards.obj
 0001:00027f94       ??$common_expand_argv_wildcards@D@@YAHQEAPEADQEAPEAPEAD@Z 0000000180028f94 f   libucrt:argv_wildcards.obj
 0001:000281a0       ??$copy_and_add_argument_to_buffer@D@@YAHQEBD0_KAEAV?$argument_list@D@?A0x5f5c8891@@@Z 00000001800291a0 f   libucrt:argv_wildcards.obj
 0001:00028328       ??$expand_argument_wildcards@D@@YAHQEAD0AEAV?$argument_list@D@?A0x5f5c8891@@@Z 0000000180029328 f   libucrt:argv_wildcards.obj
 0001:00028874       ??$?RV<lambda_efdfa57d1f175319df784efa44bb7b81>@@AEAV<lambda_5f0a4c1567f8adc6734073e5d1e1b35c>@@V<lambda_2e8a7d3640ea6ccb4c2413664c2db6fd>@@@?$__crt_seh_guarded_call@X@@QEAAX$$QEAV<lambda_efdfa57d1f175319df784efa44bb7b81>@@AEAV<lambda_5f0a4c1567f8adc6734073e5d1e1b35c>@@$$QEAV<lambda_2e8a7d3640ea6ccb4c2413664c2db6fd>@@@Z 0000000180029874 f   libucrt:mbctype.obj
 0001:00028a30       ?getSystemCP@@YAHH@Z       0000000180029a30 f   libucrt:mbctype.obj
 0001:00028ab0       ?setSBCS@@YAXPEAU__crt_multibyte_data@@@Z 0000000180029ab0 f   libucrt:mbctype.obj
 0001:00028b40       ?setSBUpLow@@YAXPEAU__crt_multibyte_data@@@Z 0000000180029b40 f   libucrt:mbctype.obj
 0001:00028d24       ?setmbcp_internal@@YAHH_NQEAU__acrt_ptd@@QEAPEAU__crt_multibyte_data@@@Z 0000000180029d24 f   libucrt:mbctype.obj
 0001:00028ee4       ?update_thread_multibyte_data_internal@@YAPEAU__crt_multibyte_data@@QEAU__acrt_ptd@@QEAPEAU1@@Z 0000000180029ee4 f   libucrt:mbctype.obj
 0001:000292d4       ?x_ismbbtype_l@@YAHPEAU__crt_locale_pointers@@IHH@Z 000000018002a2d4 f   libucrt:ismbbyte.obj
 0001:00029630       ?try_get_function@@YAPEAXW4function_id@?A0x391cf84c@@QEBDQEBW4module_id@2@2@Z 000000018002a630 f   libucrt:winapi_thunks.obj
 0001:00029d18       ??$?RV<lambda_450d765d439847d4c735a33c368b5fc0>@@AEAV<lambda_44731a7d0e6d81c3e6aa82d741081786>@@V<lambda_601a2a7da3b7a96e9554ac7215c4b07c>@@@?$__crt_seh_guarded_call@P6AXH@Z@@QEAAP6AXH@Z$$QEAV<lambda_450d765d439847d4c735a33c368b5fc0>@@AEAV<lambda_44731a7d0e6d81c3e6aa82d741081786>@@$$QEAV<lambda_601a2a7da3b7a96e9554ac7215c4b07c>@@@Z 000000018002ad18 f   libucrt:signal.obj
 0001:0002a074       ??$?RV<lambda_842d9ff0dc9ef11c61343bbaebe7f885>@@AEAV<lambda_c5860995281e5c4ce005b3de8f5874ee>@@V<lambda_d90129c13df834fdcbf8d2b88dafcf2d>@@@?$__crt_seh_guarded_call@X@@QEAAX$$QEAV<lambda_842d9ff0dc9ef11c61343bbaebe7f885>@@AEAV<lambda_c5860995281e5c4ce005b3de8f5874ee>@@$$QEAV<lambda_d90129c13df834fdcbf8d2b88dafcf2d>@@@Z 000000018002b074 f   libucrt:fflush.obj
 0001:0002a110       ??$?RV<lambda_886d6c58226a84441f68b9f2b8217b83>@@AEAV<lambda_ab61a845afdef5b7c387490eaf3616ee>@@V<lambda_f7f22ab5edc0698d5f6905b0d3f44752>@@@?$__crt_seh_guarded_call@X@@QEAAX$$QEAV<lambda_886d6c58226a84441f68b9f2b8217b83>@@AEAV<lambda_ab61a845afdef5b7c387490eaf3616ee>@@$$QEAV<lambda_f7f22ab5edc0698d5f6905b0d3f44752>@@@Z 000000018002b110 f   libucrt:fflush.obj
 0001:0002a1f0       ?common_flush_all@@YAH_N@Z 000000018002b1f0 f   libucrt:fflush.obj
 0001:0002c1a0       memcpy_s                   000000018002d1a0 f   libucrt:cfout.obj
 0001:0002c508       ?free_crt_array_internal@@YAXQEAPEBX_K@Z 000000018002d508 f   libucrt:inittime.obj
 0001:0002cfa4       fallbackMethod             000000018002dfa4 f   libucrt:strpbrk.obj
 0001:0002d35c       $LN78                      000000018002e35c     libucrt:strpbrk.obj
 0001:0002d398       $LN77                      000000018002e398     libucrt:strpbrk.obj
 0001:0002d3d8       $LN76                      000000018002e3d8     libucrt:strpbrk.obj
 0001:0002d4b4       ?__acrt_LCMapStringA_stat@@YAHPEAU__crt_locale_pointers@@PEB_WKPEBDHPEADHHH@Z 000000018002e4b4 f   libucrt:lcmapstringa.obj
 0001:0002d864       ?initialize_multibyte@@YAHXZ 000000018002e864 f   libucrt:multibyte_initializer.obj
 0001:0002d9e4       ??$?RV<lambda_a37b2b86f63e897a80ea819b0eb08c01>@@AEAV<lambda_38ce7e780aa69e748d6df282ebc68efe>@@V<lambda_99fb1378e971ab6e7edea83e3a7a83a2>@@@?$__crt_seh_guarded_call@H@@QEAAH$$QEAV<lambda_a37b2b86f63e897a80ea819b0eb08c01>@@AEAV<lambda_38ce7e780aa69e748d6df282ebc68efe>@@$$QEAV<lambda_99fb1378e971ab6e7edea83e3a7a83a2>@@@Z 000000018002e9e4 f   libucrt:commit.obj
 0001:0002db04       ?write_double_translated_ansi_nolock@@YA?AUwrite_result@?A0x17268360@@HQEBDI@Z 000000018002eb04 f   libucrt:write.obj
 0001:0002dff0       ?write_text_ansi_nolock@@YA?AUwrite_result@?A0x17268360@@HQEBDI@Z 000000018002eff0 f   libucrt:write.obj
 0001:0002e0f4       ?write_text_utf16le_nolock@@YA?AUwrite_result@?A0x17268360@@HQEBDI@Z 000000018002f0f4 f   libucrt:write.obj
 0001:0002e210       ?write_text_utf8_nolock@@YA?AUwrite_result@?A0x17268360@@HQEBDI@Z 000000018002f210 f   libucrt:write.obj
 0001:0002eb10       $$000000                   000000018002fb10     libucrt:log10.obj
 0001:0002f3dc       ??$common_lseek_nolock@_J@@YA_JH_JH@Z 00000001800303dc f   libucrt:lseek.obj
 0001:0002f688       common_control87           0000000180030688 f   libucrt:ieee.obj
 0001:0002f948       _call_matherr              0000000180030948 f   libucrt:libm_error.obj
 0001:0002f9b0       _exception_enabled         00000001800309b0 f   libucrt:libm_error.obj
 0001:0002fc40       _log_special_common        0000000180030c40 f   libucrt:log_special.obj
 0001:0002fcd8       ??$?RV<lambda_751a882b2c74d4b022dec766aa51a29a>@@AEAV<lambda_628dfdc04ba53c8bfc02c9951375f3f5>@@V<lambda_f6c7be5f7998530c34de24c7437d6b54>@@@?$__crt_seh_guarded_call@H@@QEAAH$$QEAV<lambda_751a882b2c74d4b022dec766aa51a29a>@@AEAV<lambda_628dfdc04ba53c8bfc02c9951375f3f5>@@$$QEAV<lambda_f6c7be5f7998530c34de24c7437d6b54>@@@Z 0000000180030cd8 f   libucrt:close.obj
 0001:00030000       $$000000                   0000000180031000     libucrt:fpsr.obj
 0001:00030940       $$000000                   0000000180031940     LIBCMT:guard_dispatch.obj
 0001:00030960       $$000000                   0000000180031960     LIBCMT:guard_xfg_dispatch.obj
 0001:00030980       ?dtor$0@?0??RegisterBackground@@YAHPEAURegisterBackgroundArg@@@Z@4HA 0000000180031980 f   ConEmuPlugin.obj
 0001:0003099d       ?catch$0@?0???$_Emplace_reallocate@AEBUWindowInfo@@@?$vector@UWindowInfo@@V?$MArrayAllocator@UWindowInfo@@@@@std@@QEAAPEAUWindowInfo@@QEAU2@AEBU2@@Z@4HA 000000018003199d f   ConEmuPlugin2800.obj
 0001:000309aa       __catch$??$_Emplace_reallocate@AEBUWindowInfo@@@?$vector@UWindowInfo@@V?$MArrayAllocator@UWindowInfo@@@@@std@@QEAAPEAUWindowInfo@@QEAU2@AEBU2@@Z$0 00000001800319aa f   ConEmuPlugin2800.obj
 0001:000309ce       ?dtor$0@?0??SetWindow@CPluginW2800@@UEAAXH@Z@4HA 00000001800319ce f   ConEmuPlugin2800.obj
 0001:000309da       ?dtor$0@?0??UpdateConEmuTabsApi@CPluginW2800@@UEAA_NH@Z@4HA 00000001800319da f   ConEmuPlugin2800.obj
 0001:000309fa       ?dtor$1@?0??UpdateConEmuTabsApi@CPluginW2800@@UEAA_NH@Z@4HA 00000001800319fa f   ConEmuPlugin2800.obj
 0001:00030a06       ?catch$0@?0??insert@?$vector@UWindowInfo@@V?$MArrayAllocator@UWindowInfo@@@@@std@@QEAA?AV?$_Vector_iterator@V?$_Vector_val@U?$_Simple_types@UWindowInfo@@@std@@@std@@@2@V?$_Vector_const_iterator@V?$_Vector_val@U?$_Simple_types@UWindowInfo@@@std@@@std@@@2@_KAEBUWindowInfo@@@Z@4HA 0000000180031a06 f   ConEmuPlugin2800.obj
 0001:00030a13       __catch$?insert@?$vector@UWindowInfo@@V?$MArrayAllocator@UWindowInfo@@@@@std@@QEAA?AV?$_Vector_iterator@V?$_Vector_val@U?$_Simple_types@UWindowInfo@@@std@@@std@@@2@V?$_Vector_const_iterator@V?$_Vector_val@U?$_Simple_types@UWindowInfo@@@std@@@std@@@2@_KAEBUWindowInfo@@@Z$0 0000000180031a13 f   ConEmuPlugin2800.obj
 0001:00030a3c       ?dtor$0@?0???0CPluginW995@@QEAA@XZ@4HA 0000000180031a3c f   ConEmuPlugin995.obj
 0001:00030a3c       ?dtor$0@?0???0CPluginAnsi@@QEAA@XZ@4HA 0000000180031a3c f   ConEmuPluginA.obj
 0001:00030a48       ?dtor$0@?0??CheckConEmuDetached@CPluginBase@@SAXXZ@4HA 0000000180031a48 f   ConEmuPluginBase.obj
 0001:00030a54       ?dtor$0@?0??CreateTabs@CPluginBase@@SA_NH@Z@4HA 0000000180031a54 f   ConEmuPluginBase.obj
 0001:00030a54       ?dtor$0@?0??IsCurrentTabModal@CPluginBase@@QEAA_NXZ@4HA 0000000180031a54 f   ConEmuPluginBase.obj
 0001:00030a54       ?dtor$0@?0??SendTabs@CPluginBase@@SAXH_N@Z@4HA 0000000180031a54 f   ConEmuPluginBase.obj
 0001:00030a60       ?dtor$0@?0??DllCheckUnique@CPluginBase@@KA_N_N@Z@4HA 0000000180031a60 f   ConEmuPluginBase.obj
 0001:00030a60       ?dtor$0@?0??ShowProtocolWarning@CPluginBase@@KAXXZ@4HA 0000000180031a60 f   ConEmuPluginBase.obj
 0001:00030a6c       ?dtor$1@?0??DllCheckUnique@CPluginBase@@KA_N_N@Z@4HA 0000000180031a6c f   ConEmuPluginBase.obj
 0001:00030a78       ?dtor$0@?0??DllMain_ProcessAttach@CPluginBase@@KAXPEAUHINSTANCE__@@@Z@4HA 0000000180031a78 f   ConEmuPluginBase.obj
 0001:00030a78       ?dtor$1@?0??DllMain_ProcessAttach@CPluginBase@@KAXPEAUHINSTANCE__@@@Z@4HA 0000000180031a78 f   ConEmuPluginBase.obj
 0001:00030a78       ?dtor$0@?0???0CPluginBackground@@QEAA@XZ@4HA 0000000180031a78 f   PluginBackground.obj
 0001:00030a95       ?dtor$0@?0??MonitorThreadProcW@CPluginBase@@SAKPEAX@Z@4HA 0000000180031a95 f   ConEmuPluginBase.obj
 0001:00030a95       ?dtor$0@?0??RegisterSubplugin@CPluginBackground@@QEAAHPEAURegisterBackgroundArg@@@Z@4HA 0000000180031a95 f   PluginBackground.obj
 0001:00030aa1       ?dtor$0@?0??Plugin@@YAPEAVCPluginBase@@XZ@4HA 0000000180031aa1 f   ConEmuPluginBase.obj
 0001:00030abe       ?dtor$1@?0??Plugin@@YAPEAVCPluginBase@@XZ@4HA 0000000180031abe f   ConEmuPluginBase.obj
 0001:00030abe       ?dtor$2@?0??Plugin@@YAPEAVCPluginBase@@XZ@4HA 0000000180031abe f   ConEmuPluginBase.obj
 0001:00030abe       ?dtor$3@?0??Plugin@@YAPEAVCPluginBase@@XZ@4HA 0000000180031abe f   ConEmuPluginBase.obj
 0001:00030adb       ?dtor$0@?0??ProcessCommand@CPluginBase@@QEAA_NKHPEAXPEAPEAUCESERVER_REQ@@_N@Z@4HA 0000000180031adb f   ConEmuPluginBase.obj
 0001:00030ae7       ?dtor$0@?0??RunExternalProgram@CPluginBase@@QEAA_NPEA_W@Z@4HA 0000000180031ae7 f   ConEmuPluginBase.obj
 0001:00030af3       ?dtor$1@?0??RunExternalProgram@CPluginBase@@QEAA_NPEA_W@Z@4HA 0000000180031af3 f   ConEmuPluginBase.obj
 0001:00030aff       ?dtor$2@?0??RunExternalProgram@CPluginBase@@QEAA_NPEA_W@Z@4HA 0000000180031aff f   ConEmuPluginBase.obj
 0001:00030b0b       ?dtor$0@?0??RunExternalProgramW@CPluginBase@@SA_NPEA_W0_N@Z@4HA 0000000180031b0b f   ConEmuPluginBase.obj
 0001:00030b17       ?dtor$1@?0??RunExternalProgramW@CPluginBase@@SA_NPEA_W0_N@Z@4HA 0000000180031b17 f   ConEmuPluginBase.obj
 0001:00030b23       ?dtor$0@?0??UpdateConEmuTabs@CPluginBase@@QEAA_N_N@Z@4HA 0000000180031b23 f   ConEmuPluginBase.obj
 0001:00030b2f       ?dtor$0@?0??cmd_OpenEditorLine@CPluginBase@@QEAA_NPEAUCESERVER_REQ_FAREDITOR@@@Z@4HA 0000000180031b2f f   ConEmuPluginBase.obj
 0001:00030b3b       ?filt$0@?0??GetTo@?$MFileMapping@UPanelViewSetMapping@@@@QEAA_NPEAUPanelViewSetMapping@@H@Z@4HA 0000000180031b3b f   PluginBackground.obj
 0001:00030b5e       ?dtor$0@?0??LoadThSet@CPluginBackground@@IEAAHH@Z@4HA 0000000180031b5e f   PluginBackground.obj
 0001:00030b6a       ?dtor$0@?0??UpdateBackground@CPluginBackground@@IEAAXXZ@4HA 0000000180031b6a f   PluginBackground.obj
 0001:00030b76       ?dtor$0@?0??PlugServerCommand@@YAHPEAXPEAUCESERVER_REQ@@AEAPEAU1@AEAK3_J@Z@4HA 0000000180031b76 f   PluginSrv.obj
 0001:00030b82       ?dtor$1@?0??PlugServerCommand@@YAHPEAXPEAUCESERVER_REQ@@AEAPEAU1@AEAK3_J@Z@4HA 0000000180031b82 f   PluginSrv.obj
 0001:00030b8e       ?dtor$0@?0??FindConEmuBaseDir@@YAHAEAY0BAF@_W0PEAUHINSTANCE__@@@Z@4HA 0000000180031b8e f   common-user64:ConEmuCheckEx.obj
 0001:00030b9a       ?dtor$1@?0??FindConEmuBaseDir@@YAHAEAY0BAF@_W0PEAUHINSTANCE__@@@Z@4HA 0000000180031b9a f   common-user64:ConEmuCheckEx.obj
 0001:00030ba6       ?dtor$0@?0??SearchAppPaths@@YA_NPEB_WAEAUCEStr@@_NPEAVCEnvRestorer@@@Z@4HA 0000000180031ba6 f   common-user64:WFiles.obj
 0001:00030bb2       ?fin$0@?0??dllmain_crt_process_attach@@YAHQEAUHINSTANCE__@@QEAX@Z@4HA 0000000180031bb2 f   LIBCMT:dll_dllmain.obj
 0001:00030bc9       ?fin$0@?0??dllmain_crt_process_detach@@YAH_N@Z@4HA 0000000180031bc9 f   LIBCMT:dll_dllmain.obj
 0001:00030be2       ?fin$1@?0??dllmain_crt_process_detach@@YAH_N@Z@4HA 0000000180031be2 f   LIBCMT:dll_dllmain.obj
 0001:00030bf6       ?filt$0@?0??dllmain_dispatch@@YAHQEAUHINSTANCE__@@KQEAX@Z@4HA 0000000180031bf6 f   LIBCMT:dll_dllmain.obj
 0001:00030c2c       __scrt_is_nonwritable_in_current_image$filt$0 0000000180031c2c f   LIBCMT:utility.obj
 0001:00030c44       ?filt$0@?0???$_CallSETranslator@V__FrameHandler4@@@@YAHPEAUEHExceptionRecord@@PEA_KPEAU_CONTEXT@@PEAU_xDISPATCHER_CONTEXT@@PEAUFuncInfo4@FH4@@K1H@Z@4HA 0000000180031c44 f   libvcruntime:risctrnsctrl.obj
 0001:00030ce3       __DestructExceptionObject$filt$0 0000000180031ce3 f   libvcruntime:ehhelpers.obj
 0001:00030d79       ?filt$0@?0??CxxCallCatchBlock@__FrameHandler4@@SAPEAXPEAU_EXCEPTION_RECORD@@@Z@4HA 0000000180031d79 f   libvcruntime:frame.obj
 0001:00030da8       ?fin$1@?0??CxxCallCatchBlock@__FrameHandler4@@SAPEAXPEAU_EXCEPTION_RECORD@@@Z@4HA 0000000180031da8 f   libvcruntime:frame.obj
 0001:00030e2b       ?filt$0@?0??FrameUnwindToState@__FrameHandler4@@SAXPEA_KPEAU_xDISPATCHER_CONTEXT@@PEAUFuncInfo4@FH4@@H@Z@4HA 0000000180031e2b f   libvcruntime:frame.obj
 0001:00030e41       ?fin$1@?0??FrameUnwindToState@__FrameHandler4@@SAXPEA_KPEAU_xDISPATCHER_CONTEXT@@PEAUFuncInfo4@FH4@@H@Z@4HA 0000000180031e41 f   libvcruntime:frame.obj
 0001:00030e64       ?fin$0@?0???$?RV<lambda_0ae27a3a962d80f24befdcbee591983d>@@AEAV<lambda_8d0ee55de4b1038c4002e0adecdf1839>@@V<lambda_dc504788e8f1664fe9b84e20bfb512f2>@@@?$__crt_seh_guarded_call@X@@QEAAX$$QEAV<lambda_0ae27a3a962d80f24befdcbee591983d>@@AEAV<lambda_8d0ee55de4b1038c4002e0adecdf1839>@@$$QEAV<lambda_dc504788e8f1664fe9b84e20bfb512f2>@@@Z@4HA 0000000180031e64 f   libucrt:per_thread_data.obj
 0001:00030e64       ?fin$0@?0???$?RV<lambda_2d41944a1d46af3157314b8a01080d33>@@AEAV<lambda_8f455de75cd7d7f24b4096f044d8b9e6>@@V<lambda_aa500f224e6afead328df44964fe2772>@@@?$__crt_seh_guarded_call@X@@QEAAX$$QEAV<lambda_2d41944a1d46af3157314b8a01080d33>@@AEAV<lambda_8f455de75cd7d7f24b4096f044d8b9e6>@@$$QEAV<lambda_aa500f224e6afead328df44964fe2772>@@@Z@4HA 0000000180031e64 f   libucrt:per_thread_data.obj
 0001:00030e64       ?fin$0@?0???$?RV<lambda_aa87e3671a710a21b5dc78c0bdf72e11>@@AEAV<lambda_92619d2358a28f41a33ba319515a20b9>@@V<lambda_6992ecaafeb10aed2b74cb1fae11a551>@@@?$__crt_seh_guarded_call@X@@QEAAX$$QEAV<lambda_aa87e3671a710a21b5dc78c0bdf72e11>@@AEAV<lambda_92619d2358a28f41a33ba319515a20b9>@@$$QEAV<lambda_6992ecaafeb10aed2b74cb1fae11a551>@@@Z@4HA 0000000180031e64 f   libucrt:per_thread_data.obj
 0001:00030e64       ?fin$0@?0???$?RV<lambda_f2e299630e499de9f9a165e60fcd3db5>@@AEAV<lambda_2ae9d31cdba2644fcbeaf08da7c24588>@@V<lambda_40d01ff24d0e7b3814fdbdcee8eab3c7>@@@?$__crt_seh_guarded_call@X@@QEAAX$$QEAV<lambda_f2e299630e499de9f9a165e60fcd3db5>@@AEAV<lambda_2ae9d31cdba2644fcbeaf08da7c24588>@@$$QEAV<lambda_40d01ff24d0e7b3814fdbdcee8eab3c7>@@@Z@4HA 0000000180031e64 f   libucrt:per_thread_data.obj
 0001:00030e64       ?fin$0@?0???$?RV<lambda_efdfa57d1f175319df784efa44bb7b81>@@AEAV<lambda_5f0a4c1567f8adc6734073e5d1e1b35c>@@V<lambda_2e8a7d3640ea6ccb4c2413664c2db6fd>@@@?$__crt_seh_guarded_call@X@@QEAAX$$QEAV<lambda_efdfa57d1f175319df784efa44bb7b81>@@AEAV<lambda_5f0a4c1567f8adc6734073e5d1e1b35c>@@$$QEAV<lambda_2e8a7d3640ea6ccb4c2413664c2db6fd>@@@Z@4HA 0000000180031e64 f   libucrt:mbctype.obj
 0001:00030e64       ?fin$0@?0???$?RV<lambda_450d765d439847d4c735a33c368b5fc0>@@AEAV<lambda_44731a7d0e6d81c3e6aa82d741081786>@@V<lambda_601a2a7da3b7a96e9554ac7215c4b07c>@@@?$__crt_seh_guarded_call@P6AXH@Z@@QEAAP6AXH@Z$$QEAV<lambda_450d765d439847d4c735a33c368b5fc0>@@AEAV<lambda_44731a7d0e6d81c3e6aa82d741081786>@@$$QEAV<lambda_601a2a7da3b7a96e9554ac7215c4b07c>@@@Z@4HA 0000000180031e64 f   libucrt:signal.obj
 0001:00030e64       ?fin$0@?0???$?RV<lambda_d80eeec6fff315bfe5c115232f3240e3>@@AEAV<lambda_6e4b09c48022b2350581041d5f6b0c4c>@@V<lambda_2358e3775559c9db80273638284d5e45>@@@?$__crt_seh_guarded_call@X@@QEAAX$$QEAV<lambda_d80eeec6fff315bfe5c115232f3240e3>@@AEAV<lambda_6e4b09c48022b2350581041d5f6b0c4c>@@$$QEAV<lambda_2358e3775559c9db80273638284d5e45>@@@Z@4HA 0000000180031e64 f   libucrt:exit.obj
 0001:00030e64       ?fin$0@?0???$?RV<lambda_638799b9deba96c50f710eeac98168cd>@@AEAV<lambda_22ebabd17bc4fa466a2aca6d8deb888d>@@V<lambda_a6f7d7db0129f75315ebf26d50c089f1>@@@?$__crt_seh_guarded_call@H@@QEAAH$$QEAV<lambda_638799b9deba96c50f710eeac98168cd>@@AEAV<lambda_22ebabd17bc4fa466a2aca6d8deb888d>@@$$QEAV<lambda_a6f7d7db0129f75315ebf26d50c089f1>@@@Z@4HA 0000000180031e64 f   libucrt:onexit.obj
 0001:00030e64       ?fin$0@?0???$?RV<lambda_7777bce6b2f8c936911f934f8298dc43>@@AEAV<lambda_f03950bc5685219e0bcd2087efbe011e>@@V<lambda_3883c3dff614d5e0c5f61bb1ac94921c>@@@?$__crt_seh_guarded_call@H@@QEAAH$$QEAV<lambda_7777bce6b2f8c936911f934f8298dc43>@@AEAV<lambda_f03950bc5685219e0bcd2087efbe011e>@@$$QEAV<lambda_3883c3dff614d5e0c5f61bb1ac94921c>@@@Z@4HA 0000000180031e64 f   libucrt:onexit.obj
 0001:00030e7e       ?filt$0@?0???R<lambda_6e4b09c48022b2350581041d5f6b0c4c>@@QEBA@XZ@4HA 0000000180031e7e f   libucrt:exit.obj
 0001:00030e99       ?fin$0@?0???$?RV<lambda_410d79af7f07d98d83a3f525b3859a53>@@AEAV<lambda_3e16ef9562a7dcce91392c22ab16ea36>@@V<lambda_38119f0e861e05405d8a144b9b982f0a>@@@?$__crt_seh_guarded_call@X@@QEAAX$$QEAV<lambda_410d79af7f07d98d83a3f525b3859a53>@@AEAV<lambda_3e16ef9562a7dcce91392c22ab16ea36>@@$$QEAV<lambda_38119f0e861e05405d8a144b9b982f0a>@@@Z@4HA 0000000180031e99 f   libucrt:wsetlocale.obj
 0001:00030eb3       __acrt_initialize_lowio$fin$0 0000000180031eb3 f   libucrt:ioinit.obj
 0001:00030eb3       __acrt_lowio_ensure_fh_exists$fin$0 0000000180031eb3 f   libucrt:osfinfo.obj
 0001:00030ecc       ?fin$0@?0??update_thread_multibyte_data_internal@@YAPEAU__crt_multibyte_data@@QEAU__acrt_ptd@@QEAPEAU1@@Z@4HA 0000000180031ecc f   libucrt:mbctype.obj
 0001:00030ee5       _query_new_handler$fin$0   0000000180031ee5 f   libucrt:new_handler.obj
 0001:00030efb       raise$fin$0                0000000180031efb f   libucrt:signal.obj
 0001:00030f1c       ?fin$0@?0???$?RV<lambda_842d9ff0dc9ef11c61343bbaebe7f885>@@AEAV<lambda_c5860995281e5c4ce005b3de8f5874ee>@@V<lambda_d90129c13df834fdcbf8d2b88dafcf2d>@@@?$__crt_seh_guarded_call@X@@QEAAX$$QEAV<lambda_842d9ff0dc9ef11c61343bbaebe7f885>@@AEAV<lambda_c5860995281e5c4ce005b3de8f5874ee>@@$$QEAV<lambda_d90129c13df834fdcbf8d2b88dafcf2d>@@@Z@4HA 0000000180031f1c f   libucrt:fflush.obj
 0001:00030f37       ?fin$0@?0???$?RV<lambda_886d6c58226a84441f68b9f2b8217b83>@@AEAV<lambda_ab61a845afdef5b7c387490eaf3616ee>@@V<lambda_f7f22ab5edc0698d5f6905b0d3f44752>@@@?$__crt_seh_guarded_call@X@@QEAAX$$QEAV<lambda_886d6c58226a84441f68b9f2b8217b83>@@AEAV<lambda_ab61a845afdef5b7c387490eaf3616ee>@@$$QEAV<lambda_f7f22ab5edc0698d5f6905b0d3f44752>@@@Z@4HA 0000000180031f37 f   libucrt:fflush.obj
 0001:00030f54       __acrt_update_thread_locale_data$fin$0 0000000180031f54 f   libucrt:locale_refcounting.obj
 0001:00030f6d       _fcloseall$fin$0           0000000180031f6d f   libucrt:closeall.obj
 0001:00030f86       ?fin$0@?0???$?RV<lambda_751a882b2c74d4b022dec766aa51a29a>@@AEAV<lambda_628dfdc04ba53c8bfc02c9951375f3f5>@@V<lambda_f6c7be5f7998530c34de24c7437d6b54>@@@?$__crt_seh_guarded_call@H@@QEAAH$$QEAV<lambda_751a882b2c74d4b022dec766aa51a29a>@@AEAV<lambda_628dfdc04ba53c8bfc02c9951375f3f5>@@$$QEAV<lambda_f6c7be5f7998530c34de24c7437d6b54>@@@Z@4HA 0000000180031f86 f   libucrt:close.obj
 0001:00030f86       ?fin$0@?0???$?RV<lambda_a37b2b86f63e897a80ea819b0eb08c01>@@AEAV<lambda_38ce7e780aa69e748d6df282ebc68efe>@@V<lambda_99fb1378e971ab6e7edea83e3a7a83a2>@@@?$__crt_seh_guarded_call@H@@QEAAH$$QEAV<lambda_a37b2b86f63e897a80ea819b0eb08c01>@@AEAV<lambda_38ce7e780aa69e748d6df282ebc68efe>@@$$QEAV<lambda_99fb1378e971ab6e7edea83e3a7a83a2>@@@Z@4HA 0000000180031f86 f   libucrt:commit.obj
 0001:00030fa0       _write$fin$0               0000000180031fa0 f   libucrt:write.obj
 0001:00030fb7       fclose$fin$0               0000000180031fb7 f   libucrt:fclose.obj
 0001:00030fcf       _ctrlfp$filt$0             0000000180031fcf f   libucrt:fpctrl.obj
 0001:00030fcf       common_control87$filt$0    0000000180031fcf f   libucrt:ieee.obj
 0001:00031000       _IsNonwritableInCurrentImage$filt$0 0000000180032000 f   LIBCMT:pesect.obj
 0001:00031020       ??__FgsMapHelper@@YAXXZ    0000000180032020 f   common-user64:WConsoleEx.obj
 0002:00000690       ?gsMapHelper$initializer$@@3P6AXXZEA 0000000180033690     common-user64:WConsoleEx.obj
 0002:000006a8       ?__scrt_initialize_tss_var@@3P6AHXZEA 00000001800336a8     LIBCMT:thread_safe_statics.obj
 0002:00003e50       ?ILLEGAL_CHARACTERS@?A0x002384b0@@3QB_WB 0000000180036e50     common-kernel64:CmdLine.obj
 0002:00003e60       ?SPECIAL_CMD_CHARACTERS@?A0x002384b0@@3QB_WB 0000000180036e60     common-kernel64:CmdLine.obj
 0002:00004018       ?ignore@std@@3U_Ignore@1@B 0000000180037018     common-kernel64:WObjects.obj
 0002:00004640       GS_ExceptionPointers       0000000180037640     LIBCMT:gs_report.obj
 0002:00004670       ?ExceptionTemplate@?1??UnwindNestedFrames@__FrameHandler4@@SAXPEA_KPEAUEHExceptionRecord@@PEAU_CONTEXT@@0PEAXPEAUFuncInfo4@FH4@@HHPEAUHandlerType4@6@PEAU_xDISPATCHER_CONTEXT@@E@Z@4U_EXCEPTION_RECORD@@B 0000000180037670     libvcruntime:risctrnsctrl.obj
 0002:00004740       ?tokenTable@@3QBUStringLiteral@@B 0000000180037740     libvcruntime:undname.obj
 0002:00004840       ?nameTable@@3QBUStringLiteral@@B 0000000180037840     libvcruntime:undname.obj
 0002:00004d70       ?rttiTable@@3QBUStringLiteral@@B 0000000180037d70     libvcruntime:undname.obj
 0002:00004dc0       ?IndirectionName@@3QBUStringLiteral@@B 0000000180037dc0     libvcruntime:undname.obj
 0002:00004e20       ?PrefixName@@3QBUStringLiteral@@B 0000000180037e20     libvcruntime:undname.obj
 0002:000054f8       ?module_names@?A0x84e3c32f@@3QBQEB_WB 00000001800384f8     libvcruntime:winapi_downlevel.obj
 0002:000055b8       ?candidate_modules@?1??try_get_FlsAlloc@@YAP6AKP6AXPEAX@Z@ZXZ@4QBW4module_id@?A0x84e3c32f@@B 00000001800385b8     libvcruntime:winapi_downlevel.obj
 0002:000055d0       ?candidate_modules@?1??try_get_FlsFree@@YAP6AHK@ZXZ@4QBW4module_id@?A0x84e3c32f@@B 00000001800385d0     libvcruntime:winapi_downlevel.obj
 0002:000055e0       ?candidate_modules@?1??try_get_FlsGetValue@@YAP6APEAXK@ZXZ@4QBW4module_id@?A0x84e3c32f@@B 00000001800385e0     libvcruntime:winapi_downlevel.obj
 0002:000055f8       ?candidate_modules@?1??try_get_FlsSetValue@@YAP6AHKPEAX@ZXZ@4QBW4module_id@?A0x84e3c32f@@B 00000001800385f8     libvcruntime:winapi_downlevel.obj
 0002:00005610       ?candidate_modules@?1??try_get_InitializeCriticalSectionEx@@YAP6AHPEAU_RTL_CRITICAL_SECTION@@KK@ZXZ@4QBW4module_id@?A0x84e3c32f@@B 0000000180038610     libvcruntime:winapi_downlevel.obj
 0002:00005a60       ?errtable@@3QBUerrentry@?A0x31fdb9ec@@B 0000000180038a60     libucrt:errno.obj
 0002:00005cd0       __acrt_initializers        0000000180038cd0     libucrt:initialization.obj
 0002:00005dd0       ?strings@?1??fp_format_nan_or_infinity@@YAHW4__acrt_fp_class@@_NPEAD_K1@Z@4QAY03QEBDA 0000000180038dd0     libucrt:cvt.obj
 0002:00006d38       ?_mb_locale_names@@3QBQEB_WB 0000000180039d38     libucrt:mbctype.obj
 0002:00006da0       ?module_names@?A0x391cf84c@@3QBQEB_WB 0000000180039da0     libucrt:winapi_thunks.obj
 0002:000072a8       ?candidate_modules@?1??try_get_AreFileApisANSI@@YAP6AHXZXZ@4QBW4module_id@?A0x391cf84c@@B 000000018003a2a8     libucrt:winapi_thunks.obj
 0002:000072c0       ?candidate_modules@?1??try_get_FlsAlloc@@YAP6AKP6AXPEAX@Z@ZXZ@4QBW4module_id@?A0x391cf84c@@B 000000018003a2c0     libucrt:winapi_thunks.obj
 0002:000072c8       ?candidate_modules@?1??try_get_FlsFree@@YAP6AHK@ZXZ@4QBW4module_id@?A0x391cf84c@@B 000000018003a2c8     libucrt:winapi_thunks.obj
 0002:000072d0       ?candidate_modules@?1??try_get_FlsGetValue@@YAP6APEAXK@ZXZ@4QBW4module_id@?A0x391cf84c@@B 000000018003a2d0     libucrt:winapi_thunks.obj
 0002:000072d8       ?candidate_modules@?1??try_get_FlsSetValue@@YAP6AHKPEAX@ZXZ@4QBW4module_id@?A0x391cf84c@@B 000000018003a2d8     libucrt:winapi_thunks.obj
 0002:000072e0       ?candidate_modules@?1??try_get_InitializeCriticalSectionEx@@YAP6AHPEAU_RTL_CRITICAL_SECTION@@KK@ZXZ@4QBW4module_id@?A0x391cf84c@@B 000000018003a2e0     libucrt:winapi_thunks.obj
 0002:000072e8       ?candidate_modules@?1??try_get_LCMapStringEx@@YAP6AHPEB_WK0HPEA_WHPEAU_nlsversioninfo@@PEAX_J@ZXZ@4QBW4module_id@?A0x391cf84c@@B 000000018003a2e8     libucrt:winapi_thunks.obj
 0002:00007300       ?candidate_modules@?1??try_get_LocaleNameToLCID@@YAP6AKPEB_WK@ZXZ@4QBW4module_id@?A0x391cf84c@@B 000000018003a300     libucrt:winapi_thunks.obj
 0002:0000731c       ?candidate_modules@?1??try_get_AppPolicyGetProcessTerminationMethod@@YAP6AJPEAXPEAW4AppPolicyProcessTerminationMethod@@@ZXZ@4QBW4module_id@?A0x391cf84c@@B 000000018003a31c     libucrt:winapi_thunks.obj
 0002:00007d50       ?LcidToLocaleNameTable@?A0x881e4c05@@3QBULcidToLocaleName@1@B 000000018003ad50     libucrt:lcidtoname_downlevel.obj
 0002:000097a0       ?LocaleNameToIndexTable@?A0x881e4c05@@3QBULocaleNameIndex@1@B 000000018003c7a0     libucrt:lcidtoname_downlevel.obj
 0002:0000b040       __real_ninf                000000018003e040     libucrt:log10.obj
 0002:0000b050       __real_inf                 000000018003e050     libucrt:log10.obj
 0002:0000b060       __real_neg_qnan            000000018003e060     libucrt:log10.obj
 0002:0000b070       __real_qnanbit             000000018003e070     libucrt:log10.obj
 0002:0000b080       __int_1023                 000000018003e080     libucrt:log10.obj
 0002:0000b090       __mask_001                 000000018003e090     libucrt:log10.obj
 0002:0000b0a0       __mask_mant                000000018003e0a0     libucrt:log10.obj
 0002:0000b0b0       __mask_mant_top8           000000018003e0b0     libucrt:log10.obj
 0002:0000b0c0       __mask_mant9               000000018003e0c0     libucrt:log10.obj
 0002:0000b0d0       __real_log10_e             000000018003e0d0     libucrt:log10.obj
 0002:0000b0e0       __real_log10_e_lead        000000018003e0e0     libucrt:log10.obj
 0002:0000b0f0       __real_log10_e_tail        000000018003e0f0     libucrt:log10.obj
 0002:0000b100       __real_log10_2_lead        000000018003e100     libucrt:log10.obj
 0002:0000b110       __real_log10_2_tail        000000018003e110     libucrt:log10.obj
 0002:0000b120       __real_two                 000000018003e120     libucrt:log10.obj
 0002:0000b130       __real_one                 000000018003e130     libucrt:log10.obj
 0002:0000b140       __real_half                000000018003e140     libucrt:log10.obj
 0002:0000b150       __mask_100                 000000018003e150     libucrt:log10.obj
 0002:0000b160       __real_1_over_512          000000018003e160     libucrt:log10.obj
 0002:0000b170       __real_1_over_2            000000018003e170     libucrt:log10.obj
 0002:0000b180       __real_1_over_3            000000018003e180     libucrt:log10.obj
 0002:0000b190       __real_1_over_4            000000018003e190     libucrt:log10.obj
 0002:0000b1a0       __real_1_over_5            000000018003e1a0     libucrt:log10.obj
 0002:0000b1b0       __real_1_over_6            000000018003e1b0     libucrt:log10.obj
 0002:0000b1c0       __real_neg_1023            000000018003e1c0     libucrt:log10.obj
 0002:0000b1d0       __mask_2045                000000018003e1d0     libucrt:log10.obj
 0002:0000b1e0       __real_threshold           000000018003e1e0     libucrt:log10.obj
 0002:0000b1f0       __real_near_one_lt         000000018003e1f0     libucrt:log10.obj
 0002:0000b200       __real_near_one_gt         000000018003e200     libucrt:log10.obj
 0002:0000b210       __real_min_norm            000000018003e210     libucrt:log10.obj
 0002:0000b220       __real_notsign             000000018003e220     libucrt:log10.obj
 0002:0000b230       __real_ca1                 000000018003e230     libucrt:log10.obj
 0002:0000b240       __real_ca2                 000000018003e240     libucrt:log10.obj
 0002:0000b250       __real_ca3                 000000018003e250     libucrt:log10.obj
 0002:0000b260       __real_ca4                 000000018003e260     libucrt:log10.obj
 0002:0000b270       __mask_lower               000000018003e270     libucrt:log10.obj
 0002:0000b280       __flag_x_zero              000000018003e280     libucrt:log10.obj
 0002:0000b284       __flag_x_neg               000000018003e284     libucrt:log10.obj
 0002:0000b288       __flag_x_nan               000000018003e288     libucrt:log10.obj
 0002:0000cae0       __real@433fffffffffffff    000000018003fae0     libucrt:fpsr.obj
 0002:0000cae8       __real@c33fffffffffffff    000000018003fae8     libucrt:fpsr.obj
 0002:0000dae0       $unwind$?StringCchVPrintfW@@YAJPEA_W_KPEB_WPEAD@Z 0000000180040ae0     ConEmuInjects.obj
 0002:0000dae0       $unwind$?WaitOverlapped@?$PipeServer@UCESERVER_REQ@@@@IEAAHPEAUPipeInst@1@PEAK@Z 0000000180040ae0     PluginSrv.obj
 0002:0000dae0       $unwind$??$create_environment@D@@YAQEAPEADQEAD@Z 0000000180040ae0     libucrt:environment_initialization.obj
 0002:0000daf8       $unwind$?StartupHooks@@YA_NPEAUHINSTANCE__@@@Z 0000000180040af8     ConEmuInjects.obj
 0002:0000db14       $unwind$?StartupConsoleHooks@@YAXXZ 0000000180040b14     ConEmuInjects.obj
 0002:0000db14       $unwind$?ExitFAR@@YAXXZ    0000000180040b14     ConEmuPlugin.obj
 0002:0000db14       $unwind$?ExitFARW3@@YAXPEAX@Z 0000000180040b14     ConEmuPlugin.obj
 0002:0000db14       $unwind$ExitFARW           0000000180040b14     ConEmuPlugin.obj
 0002:0000db14       $unwind$?ShowMessage@CPluginW995@@UEAAHPEB_WH_N@Z 0000000180040b14     ConEmuPlugin995.obj
 0002:0000db14       $unwind$strtol             0000000180040b14     libucrt:strtox.obj
 0002:0000db14       $unwind$wcstol             0000000180040b14     libucrt:strtox.obj
 0002:0000db14       $unwind$_invalid_parameter_noinfo 0000000180040b14     libucrt:invalid_parameter.obj
 0002:0000db14       $unwind$_log10_special     0000000180040b14     libucrt:log_special.obj
 0002:0000db14       $unwind$?_Doraise@bad_alloc@stdext@@MEBAXXZ 0000000180040b14     common-kernel64:CEStr.obj
 0002:0000db1c       $unwind$?ShutdownHooks@@YAXXZ 0000000180040b1c     ConEmuInjects.obj
 0002:0000db1c       $unwind$?OnMainThreadActivated@CPluginBase@@QEAAXXZ 0000000180040b1c     ConEmuPluginBase.obj
 0002:0000db1c       $unwind$?UpdateBackground_Exec@CPluginBackground@@KAXPEAURegisterBackgroundArg@@PEAUPaintBackgroundArg@@@Z 0000000180040b1c     PluginBackground.obj
 0002:0000db28       $unwind$??$swprintf_c@$0EA@@@YAHAEAY0EA@_WPEB_WZZ 0000000180040b28     ConEmuInjects.obj
 0002:0000db28       $unwind$??$swprintf_c@$0IA@@@YAHAEAY0IA@_WPEB_WZZ 0000000180040b28     ConEmuInjects.obj
 0002:0000db28       $unwind$??$swprintf_c@$0PP@@@YAHAEAY0PP@_WPEB_WZZ 0000000180040b28     ConEmuInjects.obj
 0002:0000db28       $unwind$??$swprintf_c@$0BAE@@@YAHAEAY0BAE@_WPEB_WZZ 0000000180040b28     ConEmuPluginBase.obj
 0002:0000db28       $unwind$??$swprintf_c@$0DAM@@@YAHAEAY0DAM@_WPEB_WZZ 0000000180040b28     ConEmuPluginBase.obj
 0002:0000db28       $unwind$??$swprintf_c@$0EAA@@@YAHAEAY0EAA@_WPEB_WZZ 0000000180040b28     ConEmuPluginBase.obj
 0002:0000db28       $unwind$??$swprintf_c@$0MI@@@YAHAEAY0MI@_WPEB_WZZ 0000000180040b28     ConEmuPluginBase.obj
 0002:0000db28       $unwind$??$swprintf_c@$09@@YAHAEAY09_WPEB_WZZ 0000000180040b28     PluginSrv.obj
 0002:0000db28       $unwind$??$sprintf_c@$0CI@@@YAHAEAY0CI@DPEBDZZ 0000000180040b28     common-kernel64:WThreads.obj
 0002:0000db28       $unwind$??$swprintf_c@$0FA@@@YAHAEAY0FA@_WPEB_WZZ 0000000180040b28     common-user64:EmergencyShow.obj
 0002:0000db30       $unwind$?OpenPlugin@@YAPEAXH_J@Z 0000000180040b30     ConEmuPlugin.obj
 0002:0000db30       $unwind$OpenPluginW        0000000180040b30     ConEmuPlugin.obj
 0002:0000db30       $unwind$ProcessSynchroEventW 0000000180040b30     ConEmuPlugin.obj
 0002:0000db30       $unwind$??_GCPluginW1900@@UEAAPEAXI@Z 0000000180040b30     ConEmuPlugin1900.obj
 0002:0000db30       $unwind$?Open@CPluginW1900@@UEAAPEAXPEBX@Z 0000000180040b30     ConEmuPlugin1900.obj
 0002:0000db30       $unwind$??_GCPluginW2800@@UEAAPEAXI@Z 0000000180040b30     ConEmuPlugin2800.obj
 0002:0000db30       $unwind$??_Gbad_alloc@std@@UEAAPEAXI@Z 0000000180040b30     ConEmuPlugin2800.obj
 0002:0000db30       $unwind$??_Gexception@std@@UEAAPEAXI@Z 0000000180040b30     ConEmuPlugin2800.obj
 0002:0000db30       $unwind$??_GCPluginW995@@UEAAPEAXI@Z 0000000180040b30     ConEmuPlugin995.obj
 0002:0000db30       $unwind$?LoadFarSettings@CPluginW995@@UEAAXPEAUCEFarInterfaceSettings@@PEAUCEFarPanelSettings@@@Z 0000000180040b30     ConEmuPlugin995.obj
 0002:0000db30       $unwind$??_GCPluginAnsi@@UEAAPEAXI@Z 0000000180040b30     ConEmuPluginA.obj
 0002:0000db30       $unwind$?GetPluginInfoPtr@CPluginAnsi@@UEAAXPEAX@Z 0000000180040b30     ConEmuPluginA.obj
 0002:0000db30       $unwind$?LoadFarSettings@CPluginAnsi@@UEAAXPEAUCEFarInterfaceSettings@@PEAUCEFarPanelSettings@@@Z 0000000180040b30     ConEmuPluginA.obj
 0002:0000db30       $unwind$?OutDataAlloc@CPluginBase@@SA_NK@Z 0000000180040b30     ConEmuPluginBase.obj
 0002:0000db30       $unwind$?ProcessCommandLine@CPluginBase@@QEAA_NPEA_W@Z 0000000180040b30     ConEmuPluginBase.obj
 0002:0000db30       $unwind$?ProcessSynchroEvent@CPluginBase@@QEAAHHPEAX@Z 0000000180040b30     ConEmuPluginBase.obj
 0002:0000db30       $unwind$?StopThread@CPluginBase@@QEAAX_N@Z 0000000180040b30     ConEmuPluginBase.obj
 0002:0000db30       $unwind$?cmd_GuiChanged@CPluginBase@@QEAAXPEAX@Z 0000000180040b30     ConEmuPluginBase.obj
 0002:0000db30       $unwind$?IsParmChanged@CPluginBackground@@IEAA_NPEAUPaintBackgroundArg@@0@Z 0000000180040b30     PluginBackground.obj
 0002:0000db30       $unwind$?_PipeServerThread@?$PipeServer@UCESERVER_REQ@@@@KAKPEAX@Z 0000000180040b30     PluginSrv.obj
 0002:0000db30       $unwind$_RTC_Initialize    0000000180040b30     LIBCMT:initsect.obj
 0002:0000db30       $unwind$_RTC_Terminate     0000000180040b30     LIBCMT:initsect.obj
 0002:0000db30       $unwind$?__scrt_initialize_thread_safe_statics@@YAHXZ 0000000180040b30     LIBCMT:thread_safe_statics.obj
 0002:0000db30       $unwind$??_Gbad_function_call@std@@UEAAPEAXI@Z 0000000180040b30     libcpmt:xthrow.obj
 0002:0000db30       $unwind$??_Glength_error@std@@UEAAPEAXI@Z 0000000180040b30     libcpmt:xthrow.obj
 0002:0000db30       $unwind$??_Glogic_error@std@@UEAAPEAXI@Z 0000000180040b30     libcpmt:xthrow.obj
 0002:0000db30       $unwind$__FrameUnwindFilter 0000000180040b30     libvcruntime:ehhelpers.obj
 0002:0000db30       $unwind$??_Gbad_exception@std@@UEAAPEAXI@Z 0000000180040b30     libvcruntime:frame.obj
 0002:0000db30       $unwind$?ExFilterRethrowFH4@@YAHPEAU_EXCEPTION_POINTERS@@PEAUEHExceptionRecord@@HPEAH@Z 0000000180040b30     libvcruntime:frame.obj
 0002:0000db30       $unwind$_FindAndUnlinkFrame 0000000180040b30     libvcruntime:risctrnsctrl.obj
 0002:0000db30       $unwind$__vcrt_FlsSetValue 0000000180040b30     libvcruntime:winapi_downlevel.obj
 0002:0000db30       $unwind$??$common_initialize_environment_nolock@D@@YAHXZ 0000000180040b30     libucrt:environment_initialization.obj
 0002:0000db30       $unwind$_realloc_base      0000000180040b30     libucrt:realloc_base.obj
 0002:0000db30       $unwind$?replace_current_thread_locale_nolock@@YAXQEAU__acrt_ptd@@QEAU__crt_locale_data@@@Z 0000000180040b30     libucrt:per_thread_data.obj
 0002:0000db30       $unwind$__acrt_execute_uninitializers 0000000180040b30     libucrt:shared_initialization.obj
 0002:0000db30       $unwind$__acrt_FlsSetValue 0000000180040b30     libucrt:winapi_thunks.obj
 0002:0000db30       $unwind$__acrt_LocaleNameToLCID 0000000180040b30     libucrt:winapi_thunks.obj
 0002:0000db30       $unwind$_updatetlocinfoEx_nolock 0000000180040b30     libucrt:locale_refcounting.obj
 0002:0000db30       $unwind$_close_nolock      0000000180040b30     libucrt:close.obj
 0002:0000db30       $unwind$__acrt_uninitialize_lowio 0000000180040b30     libucrt:ioinit.obj
 0002:0000db30       $unwind$__acrt_errno_map_os_error 0000000180040b30     libucrt:errno.obj
 0002:0000db30       $unwind$_initterm_e        0000000180040b30     libucrt:initterm.obj
 0002:0000db30       $unwind$_fclose_nolock     0000000180040b30     libucrt:fclose.obj
 0002:0000db30       $unwind$?type_case_n@?$output_processor@DV?$string_output_adapter@D@__crt_stdio_output@@V?$standard_base@DV?$string_output_adapter@D@__crt_stdio_output@@@2@@__crt_stdio_output@@AEAA_NXZ 0000000180040b30     libucrt:output.obj
 0002:0000db30       $unwind$?type_case_n@?$output_processor@_WV?$string_output_adapter@_W@__crt_stdio_output@@V?$standard_base@_WV?$string_output_adapter@_W@__crt_stdio_output@@@2@@__crt_stdio_output@@AEAA_NXZ 0000000180040b30     libucrt:output.obj
 0002:0000db30       $unwind$strncpy_s          0000000180040b30     libucrt:strncpy_s.obj
 0002:0000db30       $unwind$?PointToName@@YAPEB_WPEB_W@Z 0000000180040b30     common-kernel64:CmdLine.obj
 0002:0000db30       $unwind$?isConsoleClass@@YA_NPEB_W@Z 0000000180040b30     common-kernel64:ConEmuCheck.obj
 0002:0000db30       $unwind$?myGetConsoleWindow@@YAPEAUHWND__@@XZ 0000000180040b30     common-kernel64:ConEmuCheck.obj
 0002:0000db30       $unwind$??0?$MToolHelp@UtagPROCESSENTRY32W@@$1?Process32FirstW@@YAHPEAXPEAU1@@Z$1?Process32NextW@@YAH01@Z@@QEAA@KK@Z 0000000180040b30     common-kernel64:MProcess.obj
 0002:0000db30       $unwind$??_G?$MToolHelp@UtagPROCESSENTRY32W@@$1?Process32FirstW@@YAHPEAXPEAU1@@Z$1?Process32NextW@@YAH01@Z@@UEAAPEAXI@Z 0000000180040b30     common-kernel64:MProcess.obj
 0002:0000db30       $unwind$??_GMToolHelpProcess@@UEAAPEAXI@Z 0000000180040b30     common-kernel64:MProcess.obj
 0002:0000db30       $unwind$?Next@?$MToolHelp@UtagPROCESSENTRY32W@@$1?Process32FirstW@@YAHPEAXPEAU1@@Z$1?Process32NextW@@YAH01@Z@@QEAA_NAEAUtagPROCESSENTRY32W@@@Z 0000000180040b30     common-kernel64:MProcess.obj
 0002:0000db30       $unwind$?getNext@?$MToolHelp@UtagPROCESSENTRY32W@@$1?Process32FirstW@@YAHPEAXPEAU1@@Z$1?Process32NextW@@YAH01@Z@@IEAA_NXZ 0000000180040b30     common-kernel64:MProcess.obj
 0002:0000db30       $unwind$??0MSection@@QEAA@XZ 0000000180040b30     common-kernel64:MSection.obj
 0002:0000db30       $unwind$??1MSection@@QEAA@XZ 0000000180040b30     common-kernel64:MSection.obj
 0002:0000db30       $unwind$?Unlock@MSection@@IEAAXH@Z 0000000180040b30     common-kernel64:MSection.obj
 0002:0000db30       $unwind$??_GMNullDesc@@QEAAPEAXI@Z 0000000180040b30     common-kernel64:MSecurity.obj
 0002:0000db30       $unwind$??4?$function@$$A6AXPEAX@Z@std@@QEAAAEAV01@$$QEAV01@@Z 0000000180040b30     common-kernel64:WObjects.obj
 0002:0000db3c       $unwind$?GetFarHWND2@@YAPEAUHWND__@@H@Z 0000000180040b3c     ConEmuPlugin.obj
 0002:0000db3c       $unwind$?GetPluginInfo@@YAXPEAX@Z 0000000180040b3c     ConEmuPlugin.obj
 0002:0000db3c       $unwind$?GetPluginInfoW@@YAXPEAX@Z 0000000180040b3c     ConEmuPlugin.obj
 0002:0000db3c       $unwind$?IsConsoleActive@@YAHXZ 0000000180040b3c     ConEmuPlugin.obj
 0002:0000db3c       $unwind$?OpenW@@YAPEAXPEBX@Z 0000000180040b3c     ConEmuPlugin.obj
 0002:0000db3c       $unwind$?ProcessEditorEvent@@YAHHPEAX@Z 0000000180040b3c     ConEmuPlugin.obj
 0002:0000db3c       $unwind$?ProcessEditorEventW3@@YA_JPEAX@Z 0000000180040b3c     ConEmuPlugin.obj
 0002:0000db3c       $unwind$?ProcessEditorInput@@YAHPEBU_INPUT_RECORD@@@Z 0000000180040b3c     ConEmuPlugin.obj
 0002:0000db3c       $unwind$?ProcessSynchroEventW3@@YA_JPEAX@Z 0000000180040b3c     ConEmuPlugin.obj
 0002:0000db3c       $unwind$?ProcessViewerEvent@@YAHHPEAX@Z 0000000180040b3c     ConEmuPlugin.obj
 0002:0000db3c       $unwind$?ProcessViewerEventW3@@YA_JPEAX@Z 0000000180040b3c     ConEmuPlugin.obj
 0002:0000db3c       $unwind$?SetStartupInfo@@YAXPEAX@Z 0000000180040b3c     ConEmuPlugin.obj
 0002:0000db3c       $unwind$ProcessEditorEventW 0000000180040b3c     ConEmuPlugin.obj
 0002:0000db3c       $unwind$ProcessEditorInputW 0000000180040b3c     ConEmuPlugin.obj
 0002:0000db3c       $unwind$ProcessViewerEventW 0000000180040b3c     ConEmuPlugin.obj
 0002:0000db3c       $unwind$SetStartupInfoW    0000000180040b3c     ConEmuPlugin.obj
 0002:0000db3c       $unwind$?GetFarRect@CPluginW1900@@UEAA_NAEAU_SMALL_RECT@@@Z 0000000180040b3c     ConEmuPlugin1900.obj
 0002:0000db3c       $unwind$?GetPluginInfoPtr@CPluginW1900@@UEAAXPEAX@Z 0000000180040b3c     ConEmuPlugin1900.obj
 0002:0000db3c       $unwind$?ProcessSynchroEventPtr@CPluginW1900@@UEAAHPEAX@Z 0000000180040b3c     ConEmuPlugin1900.obj
 0002:0000db3c       $unwind$??0bad_alloc@std@@QEAA@AEBV01@@Z 0000000180040b3c     ConEmuPlugin2800.obj
 0002:0000db3c       $unwind$??0exception@std@@QEAA@AEBV01@@Z 0000000180040b3c     ConEmuPlugin2800.obj
 0002:0000db3c       $unwind$?GetFarRect@CPluginW2800@@UEAA_NAEAU_SMALL_RECT@@@Z 0000000180040b3c     ConEmuPlugin2800.obj
 0002:0000db3c       $unwind$?GetPluginInfoPtr@CPluginW2800@@UEAAXPEAX@Z 0000000180040b3c     ConEmuPlugin2800.obj
 0002:0000db3c       $unwind$?ProcessSynchroEventPtr@CPluginW2800@@UEAAHPEAX@Z 0000000180040b3c     ConEmuPlugin2800.obj
 0002:0000db3c       $unwind$?push_back@?$MArray@UWindowInfo@@@@QEAA_JAEBUWindowInfo@@@Z 0000000180040b3c     ConEmuPlugin2800.obj
 0002:0000db3c       $unwind$?GetFarRect@CPluginW995@@UEAA_NAEAU_SMALL_RECT@@@Z 0000000180040b3c     ConEmuPlugin995.obj
 0002:0000db3c       $unwind$?GetPluginInfoPtr@CPluginW995@@UEAAXPEAX@Z 0000000180040b3c     ConEmuPlugin995.obj
 0002:0000db3c       $unwind$?PanelControlApi@CPluginW995@@UEAA_JPEAXH_J0@Z 0000000180040b3c     ConEmuPlugin995.obj
 0002:0000db3c       $unwind$??_GCPluginBase@@UEAAPEAXI@Z 0000000180040b3c     ConEmuPluginBase.obj
 0002:0000db3c       $unwind$?BackgroundMacroError@CPluginBase@@SAKPEAX@Z 0000000180040b3c     ConEmuPluginBase.obj
 0002:0000db3c       $unwind$?CheckBufferEnabled@CPluginBase@@QEAA_NXZ 0000000180040b3c     ConEmuPluginBase.obj
 0002:0000db3c       $unwind$?CloseMap@?$MFileMapping@UCESERVER_CONSOLE_MAPPING_HDR@@@@QEAAXXZ 0000000180040b3c     ConEmuPluginBase.obj
 0002:0000db3c       $unwind$?DllMain_ProcessDetach@CPluginBase@@KAXXZ 0000000180040b3c     ConEmuPluginBase.obj
 0002:0000db3c       $unwind$?ExecuteSynchro@CPluginBase@@QEAAXXZ 0000000180040b3c     ConEmuPluginBase.obj
 0002:0000db3c       $unwind$?ExitFarCommon@CPluginBase@@QEAAX_N@Z 0000000180040b3c     ConEmuPluginBase.obj
 0002:0000db3c       $unwind$?OnConsolePeekInput@CPluginBase@@SAHPEAUHookCallbackArg@@@Z 0000000180040b3c     ConEmuPluginBase.obj
 0002:0000db3c       $unwind$?OnConsoleReadInputWork@CPluginBase@@SAHPEAUHookCallbackArg@@@Z 0000000180040b3c     ConEmuPluginBase.obj
 0002:0000db3c       $unwind$?OnShellExecuteExW_Except@CPluginBase@@SAHPEAUHookCallbackArg@@@Z 0000000180040b3c     ConEmuPluginBase.obj
 0002:0000db3c       $unwind$?ReloadFarInfoApi@CPluginBase@@IEAA_NXZ 0000000180040b3c     ConEmuPluginBase.obj
 0002:0000db3c       $unwind$?SwitchTabCommand@CPluginBase@@QEAAXW4PluginMenuCommands@@@Z 0000000180040b3c     ConEmuPluginBase.obj
 0002:0000db3c       $unwind$?isMacroActive@CPluginBase@@QEAA_NAEAH@Z 0000000180040b3c     ConEmuPluginBase.obj
 0002:0000db3c       $unwind$?pcc_Disabled@CPluginBase@@SA_NW4PluginMenuCommands@@@Z 0000000180040b3c     ConEmuPluginBase.obj
 0002:0000db3c       $unwind$?pcc_Selected@CPluginBase@@SA_NW4PluginMenuCommands@@@Z 0000000180040b3c     ConEmuPluginBase.obj
 0002:0000db3c       $unwind$?CloseMap@?$MFileMapping@UPanelViewSetMapping@@@@QEAAXXZ 0000000180040b3c     PluginBackground.obj
 0002:0000db3c       $unwind$?MonitorBackground@CPluginBackground@@QEAAXXZ 0000000180040b3c     PluginBackground.obj
 0002:0000db3c       $unwind$?OnMainThreadActivated@CPluginBackground@@QEAAXHH@Z 0000000180040b3c     PluginBackground.obj
 0002:0000db3c       $unwind$?PlugServerStop@@YAX_N@Z 0000000180040b3c     PluginSrv.obj
 0002:0000db3c       $unwind$__raise_securityfailure 0000000180040b3c     LIBCMT:gs_report.obj
 0002:0000db3c       $unwind$??_Gtype_info@@UEAAPEAXI@Z 0000000180040b3c     LIBCMT:std_type_info_static.obj
 0002:0000db3c       $unwind$_Init_thread_footer 0000000180040b3c     LIBCMT:thread_safe_statics.obj
 0002:0000db3c       $unwind$_Init_thread_header 0000000180040b3c     LIBCMT:thread_safe_statics.obj
 0002:0000db3c       $unwind$_Init_thread_wait  0000000180040b3c     LIBCMT:thread_safe_statics.obj
 0002:0000db3c       $unwind$__scrt_initialize_crt 0000000180040b3c     LIBCMT:utility.obj
 0002:0000db3c       $unwind$__scrt_initialize_onexit_tables 0000000180040b3c     LIBCMT:utility.obj
 0002:0000db3c       $unwind$__scrt_release_startup_lock 0000000180040b3c     LIBCMT:utility.obj
 0002:0000db3c       $unwind$__scrt_uninitialize_crt 0000000180040b3c     LIBCMT:utility.obj
 0002:0000db3c       $unwind$_onexit            0000000180040b3c     LIBCMT:utility.obj
 0002:0000db3c       $unwind$??0bad_function_call@std@@QEAA@AEBV01@@Z 0000000180040b3c     libcpmt:xthrow.obj
 0002:0000db3c       $unwind$??0length_error@std@@QEAA@AEBV01@@Z 0000000180040b3c     libcpmt:xthrow.obj
 0002:0000db3c       $unwind$??0logic_error@std@@QEAA@AEBV01@@Z 0000000180040b3c     libcpmt:xthrow.obj
 0002:0000db3c       $unwind$_IsExceptionObjectToBeDestroyed 0000000180040b3c     libvcruntime:ehhelpers.obj
 0002:0000db3c       $unwind$??0HandlerMap4@FH4@@QEAA@PEBUTryBlockMapEntry4@1@_KH@Z 0000000180040b3c     libvcruntime:frame.obj
 0002:0000db3c       $unwind$??0bad_exception@std@@QEAA@AEBV01@@Z 0000000180040b3c     libvcruntime:frame.obj
 0002:0000db3c       $unwind$?ExFilterRethrow@@YAHPEAU_EXCEPTION_POINTERS@@PEAUEHExceptionRecord@@PEAH@Z 0000000180040b3c     libvcruntime:frame.obj
 0002:0000db3c       $unwind$__vcrt_uninitialize_locks 0000000180040b3c     libvcruntime:locks.obj
 0002:0000db3c       $unwind$__vcrt_freeptd     0000000180040b3c     libvcruntime:per_thread_data.obj
 0002:0000db3c       $unwind$_CreateFrameInfo   0000000180040b3c     libvcruntime:risctrnsctrl.obj
 0002:0000db3c       $unwind$_SetImageBase      0000000180040b3c     libvcruntime:risctrnsctrl.obj
 0002:0000db3c       $unwind$_SetThrowImageBase 0000000180040b3c     libvcruntime:risctrnsctrl.obj
 0002:0000db3c       $unwind$__std_exception_destroy 0000000180040b3c     libvcruntime:std_exception.obj
 0002:0000db3c       $unwind$__std_type_info_destroy_list 0000000180040b3c     libvcruntime:std_type_info.obj
 0002:0000db3c       $unwind$__vcrt_FlsAlloc    0000000180040b3c     libvcruntime:winapi_downlevel.obj
 0002:0000db3c       $unwind$__vcrt_FlsFree     0000000180040b3c     libvcruntime:winapi_downlevel.obj
 0002:0000db3c       $unwind$__vcrt_FlsGetValue 0000000180040b3c     libvcruntime:winapi_downlevel.obj
 0002:0000db3c       $unwind$_calloc_base       0000000180040b3c     libucrt:calloc_base.obj
 0002:0000db3c       $unwind$_malloc_base       0000000180040b3c     libucrt:malloc_base.obj
 0002:0000db3c       $unwind$_callnewh          0000000180040b3c     libucrt:new_handler.obj
 0002:0000db3c       $unwind$initialize_pointers 0000000180040b3c     libucrt:initialization.obj
 0002:0000db3c       $unwind$uninitialize_allocated_memory 0000000180040b3c     libucrt:initialization.obj
 0002:0000db3c       $unwind$__acrt_initialize_locks 0000000180040b3c     libucrt:locks.obj
 0002:0000db3c       $unwind$__acrt_uninitialize_locks 0000000180040b3c     libucrt:locks.obj
 0002:0000db3c       $unwind$__acrt_freeptd     0000000180040b3c     libucrt:per_thread_data.obj
 0002:0000db3c       $unwind$__acrt_getptd_head 0000000180040b3c     libucrt:per_thread_data.obj
 0002:0000db3c       $unwind$__acrt_get_process_end_policy 0000000180040b3c     libucrt:win_policies.obj
 0002:0000db3c       $unwind$__acrt_AppPolicyGetProcessTerminationMethodInternal 0000000180040b3c     libucrt:winapi_thunks.obj
 0002:0000db3c       $unwind$__acrt_FlsAlloc    0000000180040b3c     libucrt:winapi_thunks.obj
 0002:0000db3c       $unwind$__acrt_FlsFree     0000000180040b3c     libucrt:winapi_thunks.obj
 0002:0000db3c       $unwind$__acrt_FlsGetValue 0000000180040b3c     libucrt:winapi_thunks.obj
 0002:0000db3c       $unwind$__acrt_uninitialize_winapi_thunks 0000000180040b3c     libucrt:winapi_thunks.obj
 0002:0000db3c       $unwind$__acrt_update_locale_info 0000000180040b3c     libucrt:locale_update.obj
 0002:0000db3c       $unwind$__acrt_update_multibyte_info 0000000180040b3c     libucrt:locale_update.obj
 0002:0000db3c       $unwind$__acrt_allocate_buffer_for_argv 0000000180040b3c     libucrt:argv_parsing.obj
 0002:0000db3c       $unwind$?exit_or_terminate_process@@YAXI@Z 0000000180040b3c     libucrt:exit.obj
 0002:0000db3c       $unwind$?try_cor_exit_process@@YAXI@Z 0000000180040b3c     libucrt:exit.obj
 0002:0000db3c       $unwind$__acrt_uninitialize_stdio 0000000180040b3c     libucrt:_file.obj
 0002:0000db3c       $unwind$__acrt_stdio_free_buffer_nolock 0000000180040b3c     libucrt:_freebuf.obj
 0002:0000db3c       $unwind$_fflush_nolock     0000000180040b3c     libucrt:fflush.obj
 0002:0000db3c       $unwind$?state_case_normal@?$output_processor@DV?$string_output_adapter@D@__crt_stdio_output@@V?$standard_base@DV?$string_output_adapter@D@__crt_stdio_output@@@2@@__crt_stdio_output@@AEAA_NXZ 0000000180040b3c     libucrt:output.obj
 0002:0000db3c       $unwind$?type_case_s@?$output_processor@DV?$string_output_adapter@D@__crt_stdio_output@@V?$standard_base@DV?$string_output_adapter@D@__crt_stdio_output@@@2@@__crt_stdio_output@@AEAA_NXZ 0000000180040b3c     libucrt:output.obj
 0002:0000db3c       $unwind$strcpy_s           0000000180040b3c     libucrt:strcpy_s.obj
 0002:0000db3c       $unwind$_clrfp             0000000180040b3c     libucrt:fpctrl.obj
 0002:0000db3c       $unwind$_set_statfp        0000000180040b3c     libucrt:fpctrl.obj
 0002:0000db3c       $unwind$_clearfp           0000000180040b3c     libucrt:ieee.obj
 0002:0000db3c       $unwind$_controlfp_s       0000000180040b3c     libucrt:contrlfp.obj
 0002:0000db3c       $unwind$fegetenv           0000000180040b3c     libucrt:fegetenv.obj
 0002:0000db3c       $unwind$feholdexcept       0000000180040b3c     libucrt:feholdexcept.obj
 0002:0000db3c       $unwind$fesetenv           0000000180040b3c     libucrt:fesetenv.obj
 0002:0000db3c       $unwind$??0CEStr@@QEAA@$$QEAPEA_W@Z 0000000180040b3c     common-kernel64:CEStr.obj
 0002:0000db3c       $unwind$??4CEStr@@QEAAAEAU0@PEB_W@Z 0000000180040b3c     common-kernel64:CEStr.obj
 0002:0000db3c       $unwind$??_Gbad_alloc@stdext@@UEAAPEAXI@Z 0000000180040b3c     common-kernel64:CEStr.obj
 0002:0000db3c       $unwind$??_Gexception@stdext@@UEAAPEAXI@Z 0000000180040b3c     common-kernel64:CEStr.obj
 0002:0000db3c       $unwind$?GetMaxCount@CEStr@@QEAA_JXZ 0000000180040b3c     common-kernel64:CEStr.obj
 0002:0000db3c       $unwind$?IsEnvBlockVariableValid@@YA_NPEB_W@Z 0000000180040b3c     common-kernel64:Common.obj
 0002:0000db3c       $unwind$?CloseMap@?$MFileMapping@UConEmuGuiMapping@@@@QEAAXXZ 0000000180040b3c     common-kernel64:ConEmuCheck.obj
 0002:0000db3c       $unwind$??1CEnvStrings@@QEAA@XZ 0000000180040b3c     common-kernel64:EnvVar.obj
 0002:0000db3c       $unwind$?Clear@CEnvRestorer@@QEAAXXZ 0000000180040b3c     common-kernel64:EnvVar.obj
 0002:0000db3c       $unwind$?SavePathVar@CEnvRestorer@@QEAAXPEB_W@Z 0000000180040b3c     common-kernel64:EnvVar.obj
 0002:0000db3c       $unwind$?Free@MModule@@QEAAXXZ 0000000180040b3c     common-kernel64:MModule.obj
 0002:0000db3c       $unwind$??0MSectionThread@@QEAA@PEAVMSection@@@Z 0000000180040b3c     common-kernel64:MSection.obj
 0002:0000db3c       $unwind$??1MSectionLock@@QEAA@XZ 0000000180040b3c     common-kernel64:MSection.obj
 0002:0000db3c       $unwind$?Lock@MSectionLock@@QEAAHPEAVMSection@@HK@Z 0000000180040b3c     common-kernel64:MSection.obj
 0002:0000db3c       $unwind$?Unlock@MSectionLock@@QEAAXXZ 0000000180040b3c     common-kernel64:MSection.obj
 0002:0000db3c       $unwind$??0MSectionSimple@@QEAA@_N@Z 0000000180040b3c     common-kernel64:MSectionSimple.obj
 0002:0000db3c       $unwind$??1MSectionSimple@@QEAA@XZ 0000000180040b3c     common-kernel64:MSectionSimple.obj
 0002:0000db3c       $unwind$?Close@MSectionSimple@@QEAAXXZ 0000000180040b3c     common-kernel64:MSectionSimple.obj
 0002:0000db3c       $unwind$?Init@MSectionSimple@@QEAAXXZ 0000000180040b3c     common-kernel64:MSectionSimple.obj
 0002:0000db3c       $unwind$?TryEnter@MSectionSimple@@QEAA_NXZ 0000000180040b3c     common-kernel64:MSectionSimple.obj
 0002:0000db3c       $unwind$?LoadAdvApi@MNullDesc@@IEAAHXZ 0000000180040b3c     common-kernel64:MSecurity.obj
 0002:0000db3c       $unwind$?GetAllMonitorsWorkspace@@YA?AUtagRECT@@XZ 0000000180040b3c     common-user64:Monitors.obj
 0002:0000db3c       $unwind$?SetConEmuEnvVarChild@@YAXPEAUHWND__@@0@Z 0000000180040b3c     common-user64:SetEnvVar.obj
 0002:0000db44       $unwind$?RegisterPanelView@@YAHPEAUPanelViewInit@@@Z 0000000180040b44     ConEmuPlugin.obj
 0002:0000db60       $unwind$?RegisterBackground@@YAHPEAURegisterBackgroundArg@@@Z 0000000180040b60     ConEmuPlugin.obj
 0002:0000db70       $cppxdata$?RegisterBackground@@YAHPEAURegisterBackgroundArg@@@Z 0000000180040b70     ConEmuPlugin.obj
 0002:0000db79       $stateUnwindMap$?RegisterBackground@@YAHPEAURegisterBackgroundArg@@@Z 0000000180040b79     ConEmuPlugin.obj
 0002:0000db7f       $ip2state$?RegisterBackground@@YAHPEAURegisterBackgroundArg@@@Z 0000000180040b7f     ConEmuPlugin.obj
 0002:0000db84       $unwind$?dtor$0@?0??RegisterBackground@@YAHPEAURegisterBackgroundArg@@@Z@4HA 0000000180040b84     ConEmuPlugin.obj
 0002:0000db84       $unwind$?dtor$0@?0??UpdateConEmuTabsApi@CPluginW2800@@UEAA_NH@Z@4HA 0000000180040b84     ConEmuPlugin2800.obj
 0002:0000db84       $unwind$?dtor$0@?0??DllMain_ProcessAttach@CPluginBase@@KAXPEAUHINSTANCE__@@@Z@4HA 0000000180040b84     ConEmuPluginBase.obj
 0002:0000db84       $unwind$?dtor$0@?0??Plugin@@YAPEAVCPluginBase@@XZ@4HA 0000000180040b84     ConEmuPluginBase.obj
 0002:0000db84       $unwind$?dtor$1@?0??DllMain_ProcessAttach@CPluginBase@@KAXPEAUHINSTANCE__@@@Z@4HA 0000000180040b84     ConEmuPluginBase.obj
 0002:0000db84       $unwind$?dtor$1@?0??Plugin@@YAPEAVCPluginBase@@XZ@4HA 0000000180040b84     ConEmuPluginBase.obj
 0002:0000db84       $unwind$?dtor$2@?0??Plugin@@YAPEAVCPluginBase@@XZ@4HA 0000000180040b84     ConEmuPluginBase.obj
 0002:0000db84       $unwind$?dtor$3@?0??Plugin@@YAPEAVCPluginBase@@XZ@4HA 0000000180040b84     ConEmuPluginBase.obj
 0002:0000db84       $unwind$?dtor$0@?0???0CPluginBackground@@QEAA@XZ@4HA 0000000180040b84     PluginBackground.obj
 0002:0000db84       $unwind$?filt$0@?0??GetTo@?$MFileMapping@UPanelViewSetMapping@@@@QEAA_NPEAUPanelViewSetMapping@@H@Z@4HA 0000000180040b84     PluginBackground.obj
 0002:0000db84       $unwind$?fin$0@?0??dllmain_crt_process_attach@@YAHQEAUHINSTANCE__@@QEAX@Z@4HA 0000000180040b84     LIBCMT:dll_dllmain.obj
 0002:0000db84       $unwind$?fin$0@?0??dllmain_crt_process_detach@@YAH_N@Z@4HA 0000000180040b84     LIBCMT:dll_dllmain.obj
 0002:0000db84       $unwind$?fin$1@?0??dllmain_crt_process_detach@@YAH_N@Z@4HA 0000000180040b84     LIBCMT:dll_dllmain.obj
 0002:0000db84       $unwind$_IsNonwritableInCurrentImage$filt$0 0000000180040b84     LIBCMT:pesect.obj
 0002:0000db84       $unwind$?filt$0@?0??CxxCallCatchBlock@__FrameHandler4@@SAPEAXPEAU_EXCEPTION_RECORD@@@Z@4HA 0000000180040b84     libvcruntime:frame.obj
 0002:0000db84       $unwind$_query_new_handler$fin$0 0000000180040b84     libucrt:new_handler.obj
 0002:0000db84       $unwind$?fin$0@?0???$?RV<lambda_0ae27a3a962d80f24befdcbee591983d>@@AEAV<lambda_8d0ee55de4b1038c4002e0adecdf1839>@@V<lambda_dc504788e8f1664fe9b84e20bfb512f2>@@@?$__crt_seh_guarded_call@X@@QEAAX$$QEAV<lambda_0ae27a3a962d80f24befdcbee591983d>@@AEAV<lambda_8d0ee55de4b1038c4002e0adecdf1839>@@$$QEAV<lambda_dc504788e8f1664fe9b84e20bfb512f2>@@@Z@4HA 0000000180040b84     libucrt:per_thread_data.obj
 0002:0000db84       $unwind$?fin$0@?0???$?RV<lambda_2d41944a1d46af3157314b8a01080d33>@@AEAV<lambda_8f455de75cd7d7f24b4096f044d8b9e6>@@V<lambda_aa500f224e6afead328df44964fe2772>@@@?$__crt_seh_guarded_call@X@@QEAAX$$QEAV<lambda_2d41944a1d46af3157314b8a01080d33>@@AEAV<lambda_8f455de75cd7d7f24b4096f044d8b9e6>@@$$QEAV<lambda_aa500f224e6afead328df44964fe2772>@@@Z@4HA 0000000180040b84     libucrt:per_thread_data.obj
 0002:0000db84       $unwind$?fin$0@?0???$?RV<lambda_aa87e3671a710a21b5dc78c0bdf72e11>@@AEAV<lambda_92619d2358a28f41a33ba319515a20b9>@@V<lambda_6992ecaafeb10aed2b74cb1fae11a551>@@@?$__crt_seh_guarded_call@X@@QEAAX$$QEAV<lambda_aa87e3671a710a21b5dc78c0bdf72e11>@@AEAV<lambda_92619d2358a28f41a33ba319515a20b9>@@$$QEAV<lambda_6992ecaafeb10aed2b74cb1fae11a551>@@@Z@4HA 0000000180040b84     libucrt:per_thread_data.obj
 0002:0000db84       $unwind$?fin$0@?0???$?RV<lambda_f2e299630e499de9f9a165e60fcd3db5>@@AEAV<lambda_2ae9d31cdba2644fcbeaf08da7c24588>@@V<lambda_40d01ff24d0e7b3814fdbdcee8eab3c7>@@@?$__crt_seh_guarded_call@X@@QEAAX$$QEAV<lambda_f2e299630e499de9f9a165e60fcd3db5>@@AEAV<lambda_2ae9d31cdba2644fcbeaf08da7c24588>@@$$QEAV<lambda_40d01ff24d0e7b3814fdbdcee8eab3c7>@@@Z@4HA 0000000180040b84     libucrt:per_thread_data.obj
 0002:0000db84       $unwind$__acrt_update_thread_locale_data$fin$0 0000000180040b84     libucrt:locale_refcounting.obj
 0002:0000db84       $unwind$?fin$0@?0???$?RV<lambda_410d79af7f07d98d83a3f525b3859a53>@@AEAV<lambda_3e16ef9562a7dcce91392c22ab16ea36>@@V<lambda_38119f0e861e05405d8a144b9b982f0a>@@@?$__crt_seh_guarded_call@X@@QEAAX$$QEAV<lambda_410d79af7f07d98d83a3f525b3859a53>@@AEAV<lambda_3e16ef9562a7dcce91392c22ab16ea36>@@$$QEAV<lambda_38119f0e861e05405d8a144b9b982f0a>@@@Z@4HA 0000000180040b84     libucrt:wsetlocale.obj
 0002:0000db84       $unwind$?fin$0@?0???$?RV<lambda_751a882b2c74d4b022dec766aa51a29a>@@AEAV<lambda_628dfdc04ba53c8bfc02c9951375f3f5>@@V<lambda_f6c7be5f7998530c34de24c7437d6b54>@@@?$__crt_seh_guarded_call@H@@QEAAH$$QEAV<lambda_751a882b2c74d4b022dec766aa51a29a>@@AEAV<lambda_628dfdc04ba53c8bfc02c9951375f3f5>@@$$QEAV<lambda_f6c7be5f7998530c34de24c7437d6b54>@@@Z@4HA 0000000180040b84     libucrt:close.obj
 0002:0000db84       $unwind$?fin$0@?0???$?RV<lambda_a37b2b86f63e897a80ea819b0eb08c01>@@AEAV<lambda_38ce7e780aa69e748d6df282ebc68efe>@@V<lambda_99fb1378e971ab6e7edea83e3a7a83a2>@@@?$__crt_seh_guarded_call@H@@QEAAH$$QEAV<lambda_a37b2b86f63e897a80ea819b0eb08c01>@@AEAV<lambda_38ce7e780aa69e748d6df282ebc68efe>@@$$QEAV<lambda_99fb1378e971ab6e7edea83e3a7a83a2>@@@Z@4HA 0000000180040b84     libucrt:commit.obj
 0002:0000db84       $unwind$__acrt_initialize_lowio$fin$0 0000000180040b84     libucrt:ioinit.obj
 0002:0000db84       $unwind$__acrt_lowio_ensure_fh_exists$fin$0 0000000180040b84     libucrt:osfinfo.obj
 0002:0000db84       $unwind$_write$fin$0       0000000180040b84     libucrt:write.obj
 0002:0000db84       $unwind$?fin$0@?0???$?RV<lambda_efdfa57d1f175319df784efa44bb7b81>@@AEAV<lambda_5f0a4c1567f8adc6734073e5d1e1b35c>@@V<lambda_2e8a7d3640ea6ccb4c2413664c2db6fd>@@@?$__crt_seh_guarded_call@X@@QEAAX$$QEAV<lambda_efdfa57d1f175319df784efa44bb7b81>@@AEAV<lambda_5f0a4c1567f8adc6734073e5d1e1b35c>@@$$QEAV<lambda_2e8a7d3640ea6ccb4c2413664c2db6fd>@@@Z@4HA 0000000180040b84     libucrt:mbctype.obj
 0002:0000db84       $unwind$?fin$0@?0??update_thread_multibyte_data_internal@@YAPEAU__crt_multibyte_data@@QEAU__acrt_ptd@@QEAPEAU1@@Z@4HA 0000000180040b84     libucrt:mbctype.obj
 0002:0000db84       $unwind$?fin$0@?0???$?RV<lambda_450d765d439847d4c735a33c368b5fc0>@@AEAV<lambda_44731a7d0e6d81c3e6aa82d741081786>@@V<lambda_601a2a7da3b7a96e9554ac7215c4b07c>@@@?$__crt_seh_guarded_call@P6AXH@Z@@QEAAP6AXH@Z$$QEAV<lambda_450d765d439847d4c735a33c368b5fc0>@@AEAV<lambda_44731a7d0e6d81c3e6aa82d741081786>@@$$QEAV<lambda_601a2a7da3b7a96e9554ac7215c4b07c>@@@Z@4HA 0000000180040b84     libucrt:signal.obj
 0002:0000db84       $unwind$raise$fin$0        0000000180040b84     libucrt:signal.obj
 0002:0000db84       $unwind$?filt$0@?0???R<lambda_6e4b09c48022b2350581041d5f6b0c4c>@@QEBA@XZ@4HA 0000000180040b84     libucrt:exit.obj
 0002:0000db84       $unwind$?fin$0@?0???$?RV<lambda_d80eeec6fff315bfe5c115232f3240e3>@@AEAV<lambda_6e4b09c48022b2350581041d5f6b0c4c>@@V<lambda_2358e3775559c9db80273638284d5e45>@@@?$__crt_seh_guarded_call@X@@QEAAX$$QEAV<lambda_d80eeec6fff315bfe5c115232f3240e3>@@AEAV<lambda_6e4b09c48022b2350581041d5f6b0c4c>@@$$QEAV<lambda_2358e3775559c9db80273638284d5e45>@@@Z@4HA 0000000180040b84     libucrt:exit.obj
 0002:0000db84       $unwind$?fin$0@?0???$?RV<lambda_638799b9deba96c50f710eeac98168cd>@@AEAV<lambda_22ebabd17bc4fa466a2aca6d8deb888d>@@V<lambda_a6f7d7db0129f75315ebf26d50c089f1>@@@?$__crt_seh_guarded_call@H@@QEAAH$$QEAV<lambda_638799b9deba96c50f710eeac98168cd>@@AEAV<lambda_22ebabd17bc4fa466a2aca6d8deb888d>@@$$QEAV<lambda_a6f7d7db0129f75315ebf26d50c089f1>@@@Z@4HA 0000000180040b84     libucrt:onexit.obj
 0002:0000db84       $unwind$?fin$0@?0???$?RV<lambda_7777bce6b2f8c936911f934f8298dc43>@@AEAV<lambda_f03950bc5685219e0bcd2087efbe011e>@@V<lambda_3883c3dff614d5e0c5f61bb1ac94921c>@@@?$__crt_seh_guarded_call@H@@QEAAH$$QEAV<lambda_7777bce6b2f8c936911f934f8298dc43>@@AEAV<lambda_f03950bc5685219e0bcd2087efbe011e>@@$$QEAV<lambda_3883c3dff614d5e0c5f61bb1ac94921c>@@@Z@4HA 0000000180040b84     libucrt:onexit.obj
 0002:0000db84       $unwind$_fcloseall$fin$0   0000000180040b84     libucrt:closeall.obj
 0002:0000db84       $unwind$fclose$fin$0       0000000180040b84     libucrt:fclose.obj
 0002:0000db84       $unwind$?fin$0@?0???$?RV<lambda_842d9ff0dc9ef11c61343bbaebe7f885>@@AEAV<lambda_c5860995281e5c4ce005b3de8f5874ee>@@V<lambda_d90129c13df834fdcbf8d2b88dafcf2d>@@@?$__crt_seh_guarded_call@X@@QEAAX$$QEAV<lambda_842d9ff0dc9ef11c61343bbaebe7f885>@@AEAV<lambda_c5860995281e5c4ce005b3de8f5874ee>@@$$QEAV<lambda_d90129c13df834fdcbf8d2b88dafcf2d>@@@Z@4HA 0000000180040b84     libucrt:fflush.obj
 0002:0000db84       $unwind$?fin$0@?0???$?RV<lambda_886d6c58226a84441f68b9f2b8217b83>@@AEAV<lambda_ab61a845afdef5b7c387490eaf3616ee>@@V<lambda_f7f22ab5edc0698d5f6905b0d3f44752>@@@?$__crt_seh_guarded_call@X@@QEAAX$$QEAV<lambda_886d6c58226a84441f68b9f2b8217b83>@@AEAV<lambda_ab61a845afdef5b7c387490eaf3616ee>@@$$QEAV<lambda_f7f22ab5edc0698d5f6905b0d3f44752>@@@Z@4HA 0000000180040b84     libucrt:fflush.obj
 0002:0000db84       $unwind$_ctrlfp$filt$0     0000000180040b84     libucrt:fpctrl.obj
 0002:0000db84       $unwind$common_control87$filt$0 0000000180040b84     libucrt:ieee.obj
 0002:0000db8c       $unwind$?SyncExecute@@YAHPEAUHINSTANCE__@@P6AX_J@Z1@Z 0000000180040b8c     ConEmuPlugin.obj
 0002:0000db94       $unwind$?ActivateConsole@@YAHXZ 0000000180040b94     ConEmuPlugin.obj
 0002:0000dba8       $unwind$?GetMinFarVersion@@YAHXZ 0000000180040ba8     ConEmuPlugin.obj
 0002:0000dba8       $unwind$DllMain            0000000180040ba8     ConEmuPlugin.obj
 0002:0000dba8       $unwind$?CheckPanelExist@CPluginW1900@@UEAA_NXZ 0000000180040ba8     ConEmuPlugin1900.obj
 0002:0000dba8       $unwind$?ExecuteSynchroApi@CPluginW1900@@UEAA_NXZ 0000000180040ba8     ConEmuPlugin1900.obj
 0002:0000dba8       $unwind$?GetActiveWindowType@CPluginW1900@@UEAAHXZ 0000000180040ba8     ConEmuPlugin1900.obj
 0002:0000dba8       $unwind$?IsMacroActive@CPluginW1900@@UEAA_NXZ 0000000180040ba8     ConEmuPlugin1900.obj
 0002:0000dba8       $unwind$?ProcessEditorInputPtr@CPluginW1900@@UEAAHPEBX@Z 0000000180040ba8     ConEmuPlugin1900.obj
 0002:0000dba8       $unwind$?RedrawAll@CPluginW1900@@UEAAXXZ 0000000180040ba8     ConEmuPlugin1900.obj
 0002:0000dba8       $unwind$?SetWindow@CPluginW1900@@UEAAXH@Z 0000000180040ba8     ConEmuPlugin1900.obj
 0002:0000dba8       $unwind$?ShowUserScreen@CPluginW1900@@UEAAX_N@Z 0000000180040ba8     ConEmuPlugin1900.obj
 0002:0000dba8       $unwind$?CheckPanelExist@CPluginW2800@@UEAA_NXZ 0000000180040ba8     ConEmuPlugin2800.obj
 0002:0000dba8       $unwind$?ExecuteSynchroApi@CPluginW2800@@UEAA_NXZ 0000000180040ba8     ConEmuPlugin2800.obj
 0002:0000dba8       $unwind$?GetActiveWindowType@CPluginW2800@@UEAAHXZ 0000000180040ba8     ConEmuPlugin2800.obj
 0002:0000dba8       $unwind$?IsMacroActive@CPluginW2800@@UEAA_NXZ 0000000180040ba8     ConEmuPlugin2800.obj
 0002:0000dba8       $unwind$?ProcessEditorInputPtr@CPluginW2800@@UEAAHPEBX@Z 0000000180040ba8     ConEmuPlugin2800.obj
 0002:0000dba8       $unwind$?RedrawAll@CPluginW2800@@UEAAXXZ 0000000180040ba8     ConEmuPlugin2800.obj
 0002:0000dba8       $unwind$?ShowUserScreen@CPluginW2800@@UEAAX_N@Z 0000000180040ba8     ConEmuPlugin2800.obj
 0002:0000dba8       $unwind$?_Xlength@?$vector@UWindowInfo@@V?$MArrayAllocator@UWindowInfo@@@@@std@@CAXXZ 0000000180040ba8     ConEmuPlugin2800.obj
 0002:0000dba8       $unwind$?deallocate@?$MArrayAllocator@UWindowInfo@@@@QEAAXPEAUWindowInfo@@_K@Z 0000000180040ba8     ConEmuPlugin2800.obj
 0002:0000dba8       $unwind$?CheckPanelExist@CPluginW995@@UEAA_NXZ 0000000180040ba8     ConEmuPlugin995.obj
 0002:0000dba8       $unwind$?ExecuteSynchroApi@CPluginW995@@UEAA_NXZ 0000000180040ba8     ConEmuPlugin995.obj
 0002:0000dba8       $unwind$?ProcessEditorInputPtr@CPluginW995@@UEAAHPEBX@Z 0000000180040ba8     ConEmuPlugin995.obj
 0002:0000dba8       $unwind$?RedrawAll@CPluginW995@@UEAAXXZ 0000000180040ba8     ConEmuPlugin995.obj
 0002:0000dba8       $unwind$?SetWindow@CPluginW995@@UEAAXH@Z 0000000180040ba8     ConEmuPlugin995.obj
 0002:0000dba8       $unwind$?ShowUserScreen@CPluginW995@@UEAAX_N@Z 0000000180040ba8     ConEmuPlugin995.obj
 0002:0000dba8       $unwind$?StopWaitEndSynchro@CPluginW995@@UEAAXXZ 0000000180040ba8     ConEmuPlugin995.obj
 0002:0000dba8       $unwind$?CheckPanelExist@CPluginAnsi@@UEAA_NXZ 0000000180040ba8     ConEmuPluginA.obj
 0002:0000dba8       $unwind$?ExitFar@CPluginAnsi@@UEAAXXZ 0000000180040ba8     ConEmuPluginA.obj
 0002:0000dba8       $unwind$?PanelControlApi@CPluginAnsi@@UEAA_JPEAXH_J0@Z 0000000180040ba8     ConEmuPluginA.obj
 0002:0000dba8       $unwind$?RedrawAll@CPluginAnsi@@UEAAXXZ 0000000180040ba8     ConEmuPluginA.obj
 0002:0000dba8       $unwind$?SetWindow@CPluginAnsi@@UEAAXH@Z 0000000180040ba8     ConEmuPluginA.obj
 0002:0000dba8       $unwind$?ShowUserScreen@CPluginAnsi@@UEAAX_N@Z 0000000180040ba8     ConEmuPluginA.obj
 0002:0000dba8       $unwind$??1?$MFileMapping@UCESERVER_CONSOLE_MAPPING_HDR@@@@QEAA@XZ 0000000180040ba8     ConEmuPluginBase.obj
 0002:0000dba8       $unwind$?CloseMapHeader@CPluginBase@@SAXXZ 0000000180040ba8     ConEmuPluginBase.obj
 0002:0000dba8       $unwind$?EmergencyShow@CPluginBase@@KAXXZ 0000000180040ba8     ConEmuPluginBase.obj
 0002:0000dba8       $unwind$?OnConsolePeekInputPost@CPluginBase@@SAHPEAUHookCallbackArg@@@Z 0000000180040ba8     ConEmuPluginBase.obj
 0002:0000dba8       $unwind$?OnConsoleWasAttached@CPluginBase@@SAHPEAUHookCallbackArg@@@Z 0000000180040ba8     ConEmuPluginBase.obj
 0002:0000dba8       $unwind$?OnCurDirChanged@CPluginBase@@SAXXZ 0000000180040ba8     ConEmuPluginBase.obj
 0002:0000dba8       $unwind$?OnGetNumberOfConsoleInputEventsPost@CPluginBase@@SAHPEAUHookCallbackArg@@@Z 0000000180040ba8     ConEmuPluginBase.obj
 0002:0000dba8       $unwind$?TouchReadPeekConsoleInputs@CPluginBase@@SAXH@Z 0000000180040ba8     ConEmuPluginBase.obj
 0002:0000dba8       $unwind$??1?$MFileMapping@UPanelViewSetMapping@@@@QEAA@XZ 0000000180040ba8     PluginBackground.obj
 0002:0000dba8       $unwind$?cmd_FarSetChanged@@YAXPEAUFAR_REQ_FARSETCHANGED@@@Z 0000000180040ba8     PluginSrv.obj
 0002:0000dba8       $unwind$__scrt_initialize_default_local_stdio_options 0000000180040ba8     LIBCMT:default_local_stdio_options.obj
 0002:0000dba8       $unwind$?dllmain_crt_dispatch@@YAHQEAUHINSTANCE__@@KQEAX@Z 0000000180040ba8     LIBCMT:dll_dllmain.obj
 0002:0000dba8       $unwind$__report_rangecheckfailure 0000000180040ba8     LIBCMT:gs_report.obj
 0002:0000dba8       $unwind$__GSHandlerCheck   0000000180040ba8     LIBCMT:gshandler.obj
 0002:0000dba8       $unwind$?__scrt_uninitialize_thread_safe_statics@@YAXXZ 0000000180040ba8     LIBCMT:thread_safe_statics.obj
 0002:0000dba8       $unwind$_Init_thread_notify 0000000180040ba8     LIBCMT:thread_safe_statics.obj
 0002:0000dba8       $unwind$__scrt_acquire_startup_lock 0000000180040ba8     LIBCMT:utility.obj
 0002:0000dba8       $unwind$__scrt_dllmain_after_initialize_c 0000000180040ba8     LIBCMT:utility.obj
 0002:0000dba8       $unwind$__scrt_dllmain_before_initialize_c 0000000180040ba8     LIBCMT:utility.obj
 0002:0000dba8       $unwind$__scrt_dllmain_crt_thread_attach 0000000180040ba8     LIBCMT:utility.obj
 0002:0000dba8       $unwind$__scrt_dllmain_crt_thread_detach 0000000180040ba8     LIBCMT:utility.obj
 0002:0000dba8       $unwind$__scrt_dllmain_uninitialize_c 0000000180040ba8     LIBCMT:utility.obj
 0002:0000dba8       $unwind$__scrt_dllmain_uninitialize_critical 0000000180040ba8     LIBCMT:utility.obj
 0002:0000dba8       $unwind$atexit             0000000180040ba8     LIBCMT:utility.obj
 0002:0000dba8       $unwind$__std_terminate    0000000180040ba8     libvcruntime:ehhelpers.obj
 0002:0000dba8       $unwind$__vcrt_initialize  0000000180040ba8     libvcruntime:initialization.obj
 0002:0000dba8       $unwind$__vcrt_thread_attach 0000000180040ba8     libvcruntime:initialization.obj
 0002:0000dba8       $unwind$__vcrt_thread_detach 0000000180040ba8     libvcruntime:initialization.obj
 0002:0000dba8       $unwind$__vcrt_uninitialize 0000000180040ba8     libvcruntime:initialization.obj
 0002:0000dba8       $unwind$__vcrt_uninitialize_critical 0000000180040ba8     libvcruntime:initialization.obj
 0002:0000dba8       $unwind$__vcrt_initialize_locks 0000000180040ba8     libvcruntime:locks.obj
 0002:0000dba8       $unwind$__vcrt_freefls     0000000180040ba8     libvcruntime:per_thread_data.obj
 0002:0000dba8       $unwind$__vcrt_getptd      0000000180040ba8     libvcruntime:per_thread_data.obj
 0002:0000dba8       $unwind$__vcrt_initialize_ptd 0000000180040ba8     libvcruntime:per_thread_data.obj
 0002:0000dba8       $unwind$__vcrt_uninitialize_ptd 0000000180040ba8     libvcruntime:per_thread_data.obj
 0002:0000dba8       $unwind$_purecall          0000000180040ba8     libvcruntime:purevirt.obj
 0002:0000dba8       $unwind$?FrameUnwindToEmptyState@__FrameHandler4@@SAXPEA_KPEAU_xDISPATCHER_CONTEXT@@PEAUFuncInfo4@FH4@@@Z 0000000180040ba8     libvcruntime:risctrnsctrl.obj
 0002:0000dba8       $unwind$_GetImageBase      0000000180040ba8     libvcruntime:risctrnsctrl.obj
 0002:0000dba8       $unwind$_GetThrowImageBase 0000000180040ba8     libvcruntime:risctrnsctrl.obj
 0002:0000dba8       $unwind$__dcrt_terminate_console_output 0000000180040ba8     libucrt:initcon.obj
 0002:0000dba8       $unwind$??$uninitialize_environment_internal@D@@YAXAEAPEAPEAD@Z 0000000180040ba8     libucrt:environment_initialization.obj
 0002:0000dba8       $unwind$??$uninitialize_environment_internal@_W@@YAXAEAPEAPEA_W@Z 0000000180040ba8     libucrt:environment_initialization.obj
 0002:0000dba8       $unwind$__dcrt_uninitialize_environments_nolock 0000000180040ba8     libucrt:environment_initialization.obj
 0002:0000dba8       $unwind$?__c32rtomb_utf8@__crt_mbstring@@YA_KPEAD_UPEAU_Mbstatet@@@Z 0000000180040ba8     libucrt:c32rtomb.obj
 0002:0000dba8       $unwind$__acrt_initialize_heap 0000000180040ba8     libucrt:heap_handle.obj
 0002:0000dba8       $unwind$_msize_base        0000000180040ba8     libucrt:msize.obj
 0002:0000dba8       $unwind$?initialize_multibyte@@YAHXZ 0000000180040ba8     libucrt:multibyte_initializer.obj
 0002:0000dba8       $unwind$__acrt_thread_attach 0000000180040ba8     libucrt:initialization.obj
 0002:0000dba8       $unwind$__acrt_thread_detach 0000000180040ba8     libucrt:initialization.obj
 0002:0000dba8       $unwind$__acrt_uninitialize 0000000180040ba8     libucrt:initialization.obj
 0002:0000dba8       $unwind$__acrt_uninitialize_critical 0000000180040ba8     libucrt:initialization.obj
 0002:0000dba8       $unwind$initialize_c       0000000180040ba8     libucrt:initialization.obj
 0002:0000dba8       $unwind$uninitialize_allocated_io_buffers 0000000180040ba8     libucrt:initialization.obj
 0002:0000dba8       $unwind$uninitialize_environment 0000000180040ba8     libucrt:initialization.obj
 0002:0000dba8       $unwind$__acrt_initialize_ptd 0000000180040ba8     libucrt:per_thread_data.obj
 0002:0000dba8       $unwind$__acrt_uninitialize_ptd 0000000180040ba8     libucrt:per_thread_data.obj
 0002:0000dba8       $unwind$__acrt_AreFileApisANSI 0000000180040ba8     libucrt:winapi_thunks.obj
 0002:0000dba8       $unwind$__pctype_func      0000000180040ba8     libucrt:ctype.obj
 0002:0000dba8       $unwind$__acrt_release_locale_ref 0000000180040ba8     libucrt:locale_refcounting.obj
 0002:0000dba8       $unwind$_isatty            0000000180040ba8     libucrt:isatty.obj
 0002:0000dba8       $unwind$_get_osfhandle     0000000180040ba8     libucrt:osfinfo.obj
 0002:0000dba8       $unwind$__acrt_initialize_multibyte 0000000180040ba8     libucrt:mbctype.obj
 0002:0000dba8       $unwind$__acrt_update_thread_multibyte_data 0000000180040ba8     libucrt:mbctype.obj
 0002:0000dba8       $unwind$__doserrno         0000000180040ba8     libucrt:errno.obj
 0002:0000dba8       $unwind$_errno             0000000180040ba8     libucrt:errno.obj
 0002:0000dba8       $unwind$_invoke_watson     0000000180040ba8     libucrt:invalid_parameter.obj
 0002:0000dba8       $unwind$abort              0000000180040ba8     libucrt:abort.obj
 0002:0000dba8       $unwind$__acrt_initialize_command_line 0000000180040ba8     libucrt:argv_data.obj
 0002:0000dba8       $unwind$_fileno            0000000180040ba8     libucrt:fileno.obj
 0002:0000dba8       $unwind$?state_case_normal_tchar@?$output_processor@DV?$string_output_adapter@D@__crt_stdio_output@@V?$standard_base@DV?$string_output_adapter@D@__crt_stdio_output@@@2@@__crt_stdio_output@@AEAA_ND@Z 0000000180040ba8     libucrt:output.obj
 0002:0000dba8       $unwind$?state_case_size@?$output_processor@DV?$string_output_adapter@D@__crt_stdio_output@@V?$standard_base@DV?$string_output_adapter@D@__crt_stdio_output@@@2@@__crt_stdio_output@@AEAA_NXZ 0000000180040ba8     libucrt:output.obj
 0002:0000dba8       $unwind$?state_case_size@?$output_processor@_WV?$string_output_adapter@_W@__crt_stdio_output@@V?$standard_base@_WV?$string_output_adapter@_W@__crt_stdio_output@@@2@@__crt_stdio_output@@AEAA_NXZ 0000000180040ba8     libucrt:output.obj
 0002:0000dba8       $unwind$_statfp            0000000180040ba8     libucrt:fpctrl.obj
 0002:0000dba8       $unwind$fegetround         0000000180040ba8     libucrt:fegetround.obj
 0002:0000dba8       $unwind$_set_errno_from_matherr 0000000180040ba8     libucrt:fpexcept.obj
 0002:0000dba8       $unwind$?Release@CEStr@@QEAAXXZ 0000000180040ba8     common-kernel64:CEStr.obj
 0002:0000dba8       $unwind$?PointToExt@@YAPEB_WPEB_W@Z 0000000180040ba8     common-kernel64:CmdLine.obj
 0002:0000dba8       $unwind$?ExecuteFreeResult@@YAXAEAPEAUCESERVER_REQ@@@Z 0000000180040ba8     common-kernel64:ConEmuCheck.obj
 0002:0000dba8       $unwind$?_Delete_this@?$_Func_impl_no_alloc@V<lambda_217d18733db987cb8fc0adfd68028951>@@_NAEBUtagPROCESSENTRY32W@@@std@@EEAAX_N@Z 0000000180040ba8     common-kernel64:MProcess.obj
 0002:0000dba8       $unwind$?_Xlength@?$vector@UtagPROCESSENTRY32W@@V?$MArrayAllocator@UtagPROCESSENTRY32W@@@@@std@@CAXXZ 0000000180040ba8     common-kernel64:MProcess.obj
 0002:0000dba8       $unwind$?LocalSecurity@@YAPEAU_SECURITY_ATTRIBUTES@@XZ 0000000180040ba8     common-kernel64:MSecurity.obj
 0002:0000dba8       $unwind$?ShutdownSecurity@@YAXXZ 0000000180040ba8     common-kernel64:MSecurity.obj
 0002:0000dba8       $unwind$??2@YAPEAX_K@Z     0000000180040ba8     common-kernel64:Memory.obj
 0002:0000dba8       $unwind$?HeapDeinitialize@@YAXXZ 0000000180040ba8     common-kernel64:Memory.obj
 0002:0000dba8       $unwind$?HeapInitialize@@YA_NXZ 0000000180040ba8     common-kernel64:Memory.obj
 0002:0000dba8       $unwind$?xf_calloc@@YAPEAX_K0@Z 0000000180040ba8     common-kernel64:Memory.obj
 0002:0000dba8       $unwind$?xf_free@@YAXPEAX@Z 0000000180040ba8     common-kernel64:Memory.obj
 0002:0000dba8       $unwind$?xf_malloc@@YAPEAX_K@Z 0000000180040ba8     common-kernel64:Memory.obj
 0002:0000dba8       $unwind$?IsWin6@@YA_NXZ    0000000180040ba8     common-kernel64:WObjects.obj
 0002:0000dba8       $unwind$?IsWin7@@YA_NXZ    0000000180040ba8     common-kernel64:WObjects.obj
 0002:0000dba8       $unwind$?_Delete_this@?$_Func_impl_no_alloc@P6AHPEAX@ZXPEAX@std@@EEAAX_N@Z 0000000180040ba8     common-kernel64:WObjects.obj
 0002:0000dba8       $unwind$??1?$MFileMapping@UConEmuGuiMapping@@@@QEAA@XZ 0000000180040ba8     common-user64:ConEmuCheckEx.obj
 0002:0000dba8       $unwind$??__FgsMapHelper@@YAXXZ 0000000180040ba8     common-user64:WConsoleEx.obj
 0002:0000dba8       $unwind$?apiShowWindow@@YA_NPEAUHWND__@@H@Z 0000000180040ba8     common-user64:WUser.obj
 0002:0000dba8       $unwind$?apiShowWindowAsync@@YA_NPEAUHWND__@@H@Z 0000000180040ba8     common-user64:WUser.obj
 0002:0000dbb0       $unwind$?SetupExportsFar3@@YAXXZ 0000000180040bb0     ConEmuPlugin.obj
 0002:0000dbb0       $unwind$?StopPipeServer@?$PipeServer@UCESERVER_REQ@@@@QEAAX_NAEA_N@Z 0000000180040bb0     PluginSrv.obj
 0002:0000dbcc       $unwind$?Color2FgIndex@Far3Color@@SAXKAEAGPEBK@Z 0000000180040bcc     ConEmuPlugin1900.obj
 0002:0000dbcc       $unwind$?StringCchCatW@@YAJPEA_W_KPEB_W@Z 0000000180040bcc     ConEmuPluginBase.obj
 0002:0000dbcc       $unwind$??$type_case_integer_parse_into_buffer@I@?$output_processor@DV?$string_output_adapter@D@__crt_stdio_output@@V?$standard_base@DV?$string_output_adapter@D@__crt_stdio_output@@@2@@__crt_stdio_output@@AEAAXII_N@Z 0000000180040bcc     libucrt:output.obj
 0002:0000dbcc       $unwind$??$type_case_integer_parse_into_buffer@I@?$output_processor@_WV?$string_output_adapter@_W@__crt_stdio_output@@V?$standard_base@_WV?$string_output_adapter@_W@__crt_stdio_output@@@2@@__crt_stdio_output@@AEAAXII_N@Z 0000000180040bcc     libucrt:output.obj
 0002:0000dbcc       $unwind$??$type_case_integer_parse_into_buffer@_K@?$output_processor@DV?$string_output_adapter@D@__crt_stdio_output@@V?$standard_base@DV?$string_output_adapter@D@__crt_stdio_output@@@2@@__crt_stdio_output@@AEAAX_KI_N@Z 0000000180040bcc     libucrt:output.obj
 0002:0000dbcc       $unwind$??$type_case_integer_parse_into_buffer@_K@?$output_processor@_WV?$string_output_adapter@_W@__crt_stdio_output@@V?$standard_base@_WV?$string_output_adapter@_W@__crt_stdio_output@@@2@@__crt_stdio_output@@AEAAX_KI_N@Z 0000000180040bcc     libucrt:output.obj
 0002:0000dbd4       $unwind$?Color2BgIndex@Far3Color@@SAXKHAEAGPEBK@Z 0000000180040bd4     ConEmuPlugin1900.obj
 0002:0000dbd4       $unwind$?SetDcPanelRect@CPluginBackground@@IEAAXPEAUtagRECT@@PEAUBkPanelInfo@@PEAUPaintBackgroundArg@@@Z 0000000180040bd4     PluginBackground.obj
 0002:0000dbe0       $unwind$?FarColor_3_2@@YAEAEBUFarColor@@_N@Z 0000000180040be0     ConEmuPlugin1900.obj
 0002:0000dbf4       $unwind$??0CPluginW1900@@QEAA@XZ 0000000180040bf4     ConEmuPlugin1900.obj
 0002:0000dbf4       $unwind$??0CPluginW2800@@QEAA@XZ 0000000180040bf4     ConEmuPlugin2800.obj
 0002:0000dc04       $unwind$?ExitFar@CPluginW1900@@UEAAXXZ 0000000180040c04     ConEmuPlugin1900.obj
 0002:0000dc04       $unwind$?ExitFar@CPluginW2800@@UEAAXXZ 0000000180040c04     ConEmuPlugin2800.obj
 0002:0000dc04       $unwind$?ExitFar@CPluginW995@@UEAAXXZ 0000000180040c04     ConEmuPlugin995.obj
 0002:0000dc04       $unwind$??0length_error@std@@QEAA@PEBD@Z 0000000180040c04     libcpmt:xthrow.obj
 0002:0000dc04       $unwind$?__mbrtowc_utf8@__crt_mbstring@@YA_KPEA_WPEBD_KPEAU_Mbstatet@@@Z 0000000180040c04     libucrt:mbrtowc.obj
 0002:0000dc04       $unwind$?type_case_c_tchar@?$output_processor@DV?$string_output_adapter@D@__crt_stdio_output@@V?$standard_base@DV?$string_output_adapter@D@__crt_stdio_output@@@2@@__crt_stdio_output@@AEAA_ND@Z 0000000180040c04     libucrt:output.obj
 0002:0000dc0c       $unwind$?GetEditorModifiedState@CPluginW1900@@UEAAKXZ 0000000180040c0c     ConEmuPlugin1900.obj
 0002:0000dc0c       $unwind$?GetEditorModifiedState@CPluginAnsi@@UEAAKXZ 0000000180040c0c     ConEmuPluginA.obj
 0002:0000dc1c       $unwind$?GetMsg@CPluginW1900@@UEAAPEB_WHPEA_W_K@Z 0000000180040c1c     ConEmuPlugin1900.obj
 0002:0000dc1c       $unwind$?LoadFarColors@CPluginW1900@@UEAAXAEAY0BAA@E@Z 0000000180040c1c     ConEmuPlugin1900.obj
 0002:0000dc1c       $unwind$?GetMsg@CPluginW2800@@UEAAPEB_WHPEA_W_K@Z 0000000180040c1c     ConEmuPlugin2800.obj
 0002:0000dc1c       $unwind$?LoadFarColors@CPluginW2800@@UEAAXAEAY0BAA@E@Z 0000000180040c1c     ConEmuPlugin2800.obj
 0002:0000dc1c       $unwind$?Open@CPluginW2800@@UEAAPEAXPEBX@Z 0000000180040c1c     ConEmuPlugin2800.obj
 0002:0000dc1c       $unwind$?GetMsg@CPluginW995@@UEAAPEB_WHPEA_W_K@Z 0000000180040c1c     ConEmuPlugin995.obj
 0002:0000dc1c       $unwind$??0MWow64Disable@@QEAA@XZ 0000000180040c1c     ConEmuPluginBase.obj
 0002:0000dc1c       $unwind$?FillLoadedParm@CPluginBase@@SAXPEAUConEmuLoadedArg@@PEAUHINSTANCE__@@H@Z 0000000180040c1c     ConEmuPluginBase.obj
 0002:0000dc1c       $unwind$?OutDataRealloc@CPluginBase@@SA_NK@Z 0000000180040c1c     ConEmuPluginBase.obj
 0002:0000dc1c       $unwind$?OutDataWrite@CPluginBase@@SA_NPEAXK@Z 0000000180040c1c     ConEmuPluginBase.obj
 0002:0000dc1c       $unwind$?ProcessEditorViewerEvent@CPluginBase@@QEAAHHH@Z 0000000180040c1c     ConEmuPluginBase.obj
 0002:0000dc1c       $unwind$?SetRootRegKey@CPluginBase@@IEAAXPEA_W@Z 0000000180040c1c     ConEmuPluginBase.obj
 0002:0000dc1c       $unwind$?ToOem@CPluginBase@@SAPEADPEB_W@Z 0000000180040c1c     ConEmuPluginBase.obj
 0002:0000dc1c       $unwind$?cmd_SetWindow@CPluginBase@@QEAA_NPEAX_N@Z 0000000180040c1c     ConEmuPluginBase.obj
 0002:0000dc1c       $unwind$?CheckPanelFolders@CPluginBackground@@IEAAXH@Z 0000000180040c1c     PluginBackground.obj
 0002:0000dc1c       $unwind$?ReallocItems@CPluginBackground@@IEAAXH@Z 0000000180040c1c     PluginBackground.obj
 0002:0000dc1c       $unwind$_DllMainCRTStartup 0000000180040c1c     LIBCMT:dll_dllmain.obj
 0002:0000dc1c       $unwind$__vcrt_getptd_noexit 0000000180040c1c     libvcruntime:per_thread_data.obj
 0002:0000dc1c       $unwind$__vcrt_InitializeCriticalSectionEx 0000000180040c1c     libvcruntime:winapi_downlevel.obj
 0002:0000dc1c       $unwind$memcpy_s           0000000180040c1c     libucrt:cfout.obj
 0002:0000dc1c       $unwind$__acrt_getptd      0000000180040c1c     libucrt:per_thread_data.obj
 0002:0000dc1c       $unwind$__acrt_getptd_noexit 0000000180040c1c     libucrt:per_thread_data.obj
 0002:0000dc1c       $unwind$__acrt_execute_initializers 0000000180040c1c     libucrt:shared_initialization.obj
 0002:0000dc1c       $unwind$__acrt_InitializeCriticalSectionEx 0000000180040c1c     libucrt:winapi_thunks.obj
 0002:0000dc1c       $unwind$?free_crt_array_internal@@YAXQEAPEBX_K@Z 0000000180040c1c     libucrt:inittime.obj
 0002:0000dc1c       $unwind$??$common_lseek_nolock@_J@@YA_JH_JH@Z 0000000180040c1c     libucrt:lseek.obj
 0002:0000dc1c       $unwind$__acrt_stdio_flush_nolock 0000000180040c1c     libucrt:fflush.obj
 0002:0000dc1c       $unwind$??0_LocaleUpdate@@QEAA@QEAU__crt_locale_pointers@@@Z 0000000180040c1c     libucrt:output.obj
 0002:0000dc1c       $unwind$?type_case_Z@?$output_processor@_WV?$string_output_adapter@_W@__crt_stdio_output@@V?$standard_base@_WV?$string_output_adapter@_W@__crt_stdio_output@@@2@@__crt_stdio_output@@AEAA_NXZ 0000000180040c1c     libucrt:output.obj
 0002:0000dc1c       $unwind$?type_case_s@?$output_processor@_WV?$string_output_adapter@_W@__crt_stdio_output@@V?$standard_base@_WV?$string_output_adapter@_W@__crt_stdio_output@@@2@@__crt_stdio_output@@AEAA_NXZ 0000000180040c1c     libucrt:output.obj
 0002:0000dc1c       $unwind$_exception_enabled 0000000180040c1c     libucrt:libm_error.obj
 0002:0000dc1c       $unwind$?AttachInt@CEStr@@AEAAPEB_WAEAPEA_W@Z 0000000180040c1c     common-kernel64:CEStr.obj
 0002:0000dc1c       $unwind$?Unquote@@YAPEB_WPEA_W_N@Z 0000000180040c1c     common-kernel64:CmdLine.obj
 0002:0000dc1c       $unwind$?IsEnvBlockVariableValid@@YA_NPEB_WAEAPEB_W@Z 0000000180040c1c     common-kernel64:Common.obj
 0002:0000dc1c       $unwind$?apiGetCurrentConsoleFontEx@@YAHPEAXHPEAUMY_CONSOLE_FONT_INFOEX@@@Z 0000000180040c1c     common-kernel64:WConsole.obj
 0002:0000dc1c       $unwind$?apiSetCurrentConsoleFontEx@@YAHPEAXHPEAUMY_CONSOLE_FONT_INFOEX@@@Z 0000000180040c1c     common-kernel64:WConsole.obj
 0002:0000dc1c       $unwind$??0MHandle@@QEAA@PEAXV?$function@$$A6AXPEAX@Z@std@@@Z 0000000180040c1c     common-kernel64:WObjects.obj
 0002:0000dc1c       $unwind$?SetHandle@MHandle@@QEAA_NPEAXV?$function@$$A6AXPEAX@Z@std@@@Z 0000000180040c1c     common-kernel64:WObjects.obj
 0002:0000dc2c       $unwind$?GetPanelInfo@CPluginW1900@@UEAA_NKPEAUCEPanelInfo@@@Z 0000000180040c2c     ConEmuPlugin1900.obj
 0002:0000dc2c       $unwind$?GetPanelInfo@CPluginW2800@@UEAA_NKPEAUCEPanelInfo@@@Z 0000000180040c2c     ConEmuPlugin2800.obj
 0002:0000dc4c       $unwind$?GetPanelItemInfo@CPluginW1900@@UEAA_NAEBUCEPanelInfo@@_N_JAEAU_WIN32_FIND_DATAW@@PEAPEA_W@Z 0000000180040c4c     ConEmuPlugin1900.obj
 0002:0000dc60       $unwind$?GetPanelDir@CPluginW1900@@UEAAPEA_WKPEA_WH@Z 0000000180040c60     ConEmuPlugin1900.obj
 0002:0000dc60       $unwind$?GetPanelDir@CPluginW2800@@UEAAPEA_WKPEA_WH@Z 0000000180040c60     ConEmuPlugin2800.obj
 0002:0000dc80       $unwind$?InputBox@CPluginW1900@@UEAA_NPEB_W000AEAPEA_W@Z 0000000180040c80     ConEmuPlugin1900.obj
 0002:0000dc80       $unwind$?InputBox@CPluginW2800@@UEAA_NPEB_W000AEAPEA_W@Z 0000000180040c80     ConEmuPlugin2800.obj
 0002:0000dc80       $unwind$?IsWinVerOrHigher@@YA_NG@Z 0000000180040c80     common-kernel64:WObjects.obj
 0002:0000dc94       $unwind$?LoadFarSettings@CPluginW1900@@UEAAXPEAUCEFarInterfaceSettings@@PEAUCEFarPanelSettings@@@Z 0000000180040c94     ConEmuPlugin1900.obj
 0002:0000dc94       $unwind$?LoadFarSettings@CPluginW2800@@UEAAXPEAUCEFarInterfaceSettings@@PEAUCEFarPanelSettings@@@Z 0000000180040c94     ConEmuPlugin2800.obj
 0002:0000dca8       $unwind$?OpenEditor@CPluginW1900@@UEAA_NPEB_W_N11HH@Z 0000000180040ca8     ConEmuPlugin1900.obj
 0002:0000dca8       $unwind$?OpenEditor@CPluginW2800@@UEAA_NPEB_W_N11HH@Z 0000000180040ca8     ConEmuPlugin2800.obj
 0002:0000dca8       $unwind$?OpenEditor@CPluginW995@@UEAA_NPEB_W_N11HH@Z 0000000180040ca8     ConEmuPlugin995.obj
 0002:0000dcb8       $unwind$?PanelControlApi@CPluginW1900@@UEAA_JPEAXH_J0@Z 0000000180040cb8     ConEmuPlugin1900.obj
 0002:0000dcb8       $unwind$?PanelControlApi@CPluginW2800@@UEAA_JPEAXH_J0@Z 0000000180040cb8     ConEmuPlugin2800.obj
 0002:0000dcb8       $unwind$__GSHandlerCheckCommon 0000000180040cb8     LIBCMT:gshandler.obj
 0002:0000dcc0       $unwind$?PostMacroApi@CPluginW1900@@UEAAXPEB_WPEAU_INPUT_RECORD@@_N@Z 0000000180040cc0     ConEmuPlugin1900.obj
 0002:0000dce4       $unwind$?SetStartupInfoPtr@CPluginW1900@@UEAAXPEAX@Z 0000000180040ce4     ConEmuPlugin1900.obj
 0002:0000dce4       $unwind$?SetStartupInfoPtr@CPluginW2800@@UEAAXPEAX@Z 0000000180040ce4     ConEmuPlugin2800.obj
 0002:0000dd00       $unwind$?ShowMessage@CPluginW1900@@UEAAHPEB_WH_N@Z 0000000180040d00     ConEmuPlugin1900.obj
 0002:0000dd00       $unwind$?ShowMessage@CPluginW2800@@UEAAHPEB_WH_N@Z 0000000180040d00     ConEmuPlugin2800.obj
 0002:0000dd00       $unwind$?ToOem@CPluginBase@@SAXPEB_WPEAD_J@Z 0000000180040d00     ConEmuPluginBase.obj
 0002:0000dd00       $unwind$?_Xbad_function_call@std@@YAXXZ 0000000180040d00     libcpmt:xthrow.obj
 0002:0000dd00       $unwind$?_Xlength_error@std@@YAXPEBD@Z 0000000180040d00     libcpmt:xthrow.obj
 0002:0000dd00       $unwind$_raise_exc         0000000180040d00     libucrt:fpexcept.obj
 0002:0000dd08       $unwind$?ShowPluginMenu@CPluginW1900@@UEAAHPEAUConEmuPluginMenuItem@@HH@Z 0000000180040d08     ConEmuPlugin1900.obj
 0002:0000dd08       $unwind$?ShowPluginMenu@CPluginW2800@@UEAAHPEAUConEmuPluginMenuItem@@HH@Z 0000000180040d08     ConEmuPlugin2800.obj
 0002:0000dd20       $unwind$?UpdateConEmuTabsApi@CPluginW1900@@UEAA_NH@Z 0000000180040d20     ConEmuPlugin1900.obj
 0002:0000dd48       $unwind$?GetFarSetting@@YAHPEAX_KPEB_W@Z 0000000180040d48     ConEmuPlugin1900.obj
 0002:0000dd48       $unwind$?GetFarSetting@@YAHPEAX_KPEB_W@Z 0000000180040d48     ConEmuPlugin2800.obj
 0002:0000dd48       $unwind$_call_matherr      0000000180040d48     libucrt:libm_error.obj
 0002:0000dd50       $unwind$?CallGuiMacroDlg@@YA_JPEAXHH0@Z 0000000180040d50     ConEmuPlugin1900.obj
 0002:0000dd70       $unwind$?CallGuiMacroProc@@YAXXZ 0000000180040d70     ConEmuPlugin1900.obj
 0002:0000dd8c       $unwind$GetGlobalInfoW     0000000180040d8c     ConEmuPlugin2800.obj
 0002:0000dd94       $unwind$?GetEditorModifiedState@CPluginW2800@@UEAAKXZ 0000000180040d94     ConEmuPlugin2800.obj
 0002:0000dda4       $unwind$?GetPanelItemInfo@CPluginW2800@@UEAA_NAEBUCEPanelInfo@@_N_JAEAU_WIN32_FIND_DATAW@@PEAPEA_W@Z 0000000180040da4     ConEmuPlugin2800.obj
 0002:0000ddbc       $unwind$?PostMacroApi@CPluginW2800@@UEAAXPEB_WPEAU_INPUT_RECORD@@_N@Z 0000000180040dbc     ConEmuPlugin2800.obj
 0002:0000dde0       $unwind$?SetWindow@CPluginW2800@@UEAAXH@Z 0000000180040de0     ConEmuPlugin2800.obj
 0002:0000ddf8       $cppxdata$?SetWindow@CPluginW2800@@UEAAXH@Z 0000000180040df8     ConEmuPlugin2800.obj
 0002:0000de01       $stateUnwindMap$?SetWindow@CPluginW2800@@UEAAXH@Z 0000000180040e01     ConEmuPlugin2800.obj
 0002:0000de0d       $ip2state$?SetWindow@CPluginW2800@@UEAAXH@Z 0000000180040e0d     ConEmuPlugin2800.obj
 0002:0000de18       $unwind$?UpdateConEmuTabsApi@CPluginW2800@@UEAA_NH@Z 0000000180040e18     ConEmuPlugin2800.obj
 0002:0000de68       $cppxdata$?UpdateConEmuTabsApi@CPluginW2800@@UEAA_NH@Z 0000000180040e68     ConEmuPlugin2800.obj
 0002:0000de71       $stateUnwindMap$?UpdateConEmuTabsApi@CPluginW2800@@UEAA_NH@Z 0000000180040e71     ConEmuPlugin2800.obj
 0002:0000de83       $ip2state$?UpdateConEmuTabsApi@CPluginW2800@@UEAA_NH@Z 0000000180040e83     ConEmuPlugin2800.obj
 0002:0000de94       $unwind$?insert@?$vector@UWindowInfo@@V?$MArrayAllocator@UWindowInfo@@@@@std@@QEAA?AV?$_Vector_iterator@V?$_Vector_val@U?$_Simple_types@UWindowInfo@@@std@@@std@@@2@V?$_Vector_const_iterator@V?$_Vector_val@U?$_Simple_types@UWindowInfo@@@std@@@std@@@2@_KAEBUWindowInfo@@@Z 0000000180040e94     ConEmuPlugin2800.obj
 0002:0000deb4       $cppxdata$?insert@?$vector@UWindowInfo@@V?$MArrayAllocator@UWindowInfo@@@@@std@@QEAA?AV?$_Vector_iterator@V?$_Vector_val@U?$_Simple_types@UWindowInfo@@@std@@@std@@@2@V?$_Vector_const_iterator@V?$_Vector_val@U?$_Simple_types@UWindowInfo@@@std@@@std@@@2@_KAEBUWindowInfo@@@Z 0000000180040eb4     ConEmuPlugin2800.obj
 0002:0000dec1       $stateUnwindMap$??$_Emplace_reallocate@AEBUWindowInfo@@@?$vector@UWindowInfo@@V?$MArrayAllocator@UWindowInfo@@@@@std@@QEAAPEAUWindowInfo@@QEAU2@AEBU2@@Z 0000000180040ec1     ConEmuPlugin2800.obj
 0002:0000dec1       $stateUnwindMap$?insert@?$vector@UWindowInfo@@V?$MArrayAllocator@UWindowInfo@@@@@std@@QEAA?AV?$_Vector_iterator@V?$_Vector_val@U?$_Simple_types@UWindowInfo@@@std@@@std@@@2@V?$_Vector_const_iterator@V?$_Vector_val@U?$_Simple_types@UWindowInfo@@@std@@@std@@@2@_KAEBUWindowInfo@@@Z 0000000180040ec1     ConEmuPlugin2800.obj
 0002:0000dec4       $tryMap$?insert@?$vector@UWindowInfo@@V?$MArrayAllocator@UWindowInfo@@@@@std@@QEAA?AV?$_Vector_iterator@V?$_Vector_val@U?$_Simple_types@UWindowInfo@@@std@@@std@@@2@V?$_Vector_const_iterator@V?$_Vector_val@U?$_Simple_types@UWindowInfo@@@std@@@std@@@2@_KAEBUWindowInfo@@@Z 0000000180040ec4     ConEmuPlugin2800.obj
 0002:0000decc       $handlerMap$?insert@?$vector@UWindowInfo@@V?$MArrayAllocator@UWindowInfo@@@@@std@@QEAA?AV?$_Vector_iterator@V?$_Vector_val@U?$_Simple_types@UWindowInfo@@@std@@@std@@@2@V?$_Vector_const_iterator@V?$_Vector_val@U?$_Simple_types@UWindowInfo@@@std@@@std@@@2@_KAEBUWindowInfo@@@Z 0000000180040ecc     ConEmuPlugin2800.obj
 0002:0000ded3       $ip2state$?insert@?$vector@UWindowInfo@@V?$MArrayAllocator@UWindowInfo@@@@@std@@QEAA?AV?$_Vector_iterator@V?$_Vector_val@U?$_Simple_types@UWindowInfo@@@std@@@std@@@2@V?$_Vector_const_iterator@V?$_Vector_val@U?$_Simple_types@UWindowInfo@@@std@@@std@@@2@_KAEBUWindowInfo@@@Z 0000000180040ed3     ConEmuPlugin2800.obj
 0002:0000ded8       $unwind$?catch$0@?0???$_Emplace_reallocate@AEBUWindowInfo@@@?$vector@UWindowInfo@@V?$MArrayAllocator@UWindowInfo@@@@@std@@QEAAPEAUWindowInfo@@QEAU2@AEBU2@@Z@4HA 0000000180040ed8     ConEmuPlugin2800.obj
 0002:0000ded8       $unwind$?catch$0@?0??insert@?$vector@UWindowInfo@@V?$MArrayAllocator@UWindowInfo@@@@@std@@QEAA?AV?$_Vector_iterator@V?$_Vector_val@U?$_Simple_types@UWindowInfo@@@std@@@std@@@2@V?$_Vector_const_iterator@V?$_Vector_val@U?$_Simple_types@UWindowInfo@@@std@@@std@@@2@_KAEBUWindowInfo@@@Z@4HA 0000000180040ed8     ConEmuPlugin2800.obj
 0002:0000dee0       $unwind$?insert@?$MArray@UWindowInfo@@@@QEAA_J_JAEBUWindowInfo@@0@Z 0000000180040ee0     ConEmuPlugin2800.obj
 0002:0000dee0       $unwind$_mbsdec_l          0000000180040ee0     libucrt:mbsdec.obj
 0002:0000deec       $unwind$?erase@?$MArray@UWindowInfo@@@@QEAAX_J0@Z 0000000180040eec     ConEmuPlugin2800.obj
 0002:0000defc       $unwind$??1?$MArray@UWindowInfo@@@@QEAA@XZ 0000000180040efc     ConEmuPlugin2800.obj
 0002:0000df0c       $cppxdata$??1?$MArray@UWindowInfo@@@@QEAA@XZ 0000000180040f0c     ConEmuPlugin2800.obj
 0002:0000df15       $stateUnwindMap$??1?$MArray@UWindowInfo@@@@QEAA@XZ 0000000180040f15     ConEmuPlugin2800.obj
 0002:0000df1b       $ip2state$??1?$MArray@UWindowInfo@@@@QEAA@XZ 0000000180040f1b     ConEmuPlugin2800.obj
 0002:0000df20       $unwind$?WLoadWindows@@YA_JAEAV?$MArray@UWindowInfo@@@@H@Z 0000000180040f20     ConEmuPlugin2800.obj
 0002:0000df38       $unwind$?CallGuiMacroDlg@@YA_JPEAX_J10@Z 0000000180040f38     ConEmuPlugin2800.obj
 0002:0000df58       $unwind$?CallGuiMacroProc@@YAXXZ 0000000180040f58     ConEmuPlugin2800.obj
 0002:0000df7c       $unwind$??$_Emplace_reallocate@AEBUWindowInfo@@@?$vector@UWindowInfo@@V?$MArrayAllocator@UWindowInfo@@@@@std@@QEAAPEAUWindowInfo@@QEAU2@AEBU2@@Z 0000000180040f7c     ConEmuPlugin2800.obj
 0002:0000df98       $cppxdata$??$_Emplace_reallocate@AEBUWindowInfo@@@?$vector@UWindowInfo@@V?$MArrayAllocator@UWindowInfo@@@@@std@@QEAAPEAUWindowInfo@@QEAU2@AEBU2@@Z 0000000180040f98     ConEmuPlugin2800.obj
 0002:0000dfa5       $tryMap$??$_Emplace_reallocate@AEBUWindowInfo@@@?$vector@UWindowInfo@@V?$MArrayAllocator@UWindowInfo@@@@@std@@QEAAPEAUWindowInfo@@QEAU2@AEBU2@@Z 0000000180040fa5     ConEmuPlugin2800.obj
 0002:0000dfad       $handlerMap$??$_Emplace_reallocate@AEBUWindowInfo@@@?$vector@UWindowInfo@@V?$MArrayAllocator@UWindowInfo@@@@@std@@QEAAPEAUWindowInfo@@QEAU2@AEBU2@@Z 0000000180040fad     ConEmuPlugin2800.obj
 0002:0000dfb4       $ip2state$??$_Emplace_reallocate@AEBUWindowInfo@@@?$vector@UWindowInfo@@V?$MArrayAllocator@UWindowInfo@@@@@std@@QEAAPEAUWindowInfo@@QEAU2@AEBU2@@Z 0000000180040fb4     ConEmuPlugin2800.obj
 0002:0000dfb8       $unwind$??0CPluginW995@@QEAA@XZ 0000000180040fb8     ConEmuPlugin995.obj
 0002:0000dfd4       $cppxdata$??0CPluginW995@@QEAA@XZ 0000000180040fd4     ConEmuPlugin995.obj
 0002:0000dfdd       $stateUnwindMap$??0CPluginW995@@QEAA@XZ 0000000180040fdd     ConEmuPlugin995.obj
 0002:0000dfdd       $stateUnwindMap$??0CPluginAnsi@@QEAA@XZ 0000000180040fdd     ConEmuPluginA.obj
 0002:0000dfe4       $ip2state$??0CPluginW995@@QEAA@XZ 0000000180040fe4     ConEmuPlugin995.obj
 0002:0000dfec       $unwind$?GetActiveWindowType@CPluginW995@@UEAAHXZ 0000000180040fec     ConEmuPlugin995.obj
 0002:0000dfec       $unwind$?GetMacroArea@CPluginW995@@UEAAHXZ 0000000180040fec     ConEmuPlugin995.obj
 0002:0000dfec       $unwind$?IsMacroActive@CPluginW995@@UEAA_NXZ 0000000180040fec     ConEmuPlugin995.obj
 0002:0000dfec       $unwind$?PostMacroApi@CPluginW995@@UEAAXPEB_WPEAU_INPUT_RECORD@@_N@Z 0000000180040fec     ConEmuPlugin995.obj
 0002:0000dfec       $unwind$?IsMacroActive@CPluginAnsi@@UEAA_NXZ 0000000180040fec     ConEmuPluginA.obj
 0002:0000dfec       $unwind$fallbackMethod     0000000180040fec     libucrt:strpbrk.obj
 0002:0000dffc       $unwind$?GetEditorModifiedState@CPluginW995@@UEAAKXZ 0000000180040ffc     ConEmuPlugin995.obj
 0002:0000e00c       $unwind$?GetPanelInfo@CPluginW995@@UEAA_NKPEAUCEPanelInfo@@@Z 000000018004100c     ConEmuPlugin995.obj
 0002:0000e028       $unwind$?GetPanelItemInfo@CPluginW995@@UEAA_NAEBUCEPanelInfo@@_N_JAEAU_WIN32_FIND_DATAW@@PEAPEA_W@Z 0000000180041028     ConEmuPlugin995.obj
 0002:0000e03c       $unwind$?GetPanelDir@CPluginW995@@UEAAPEA_WKPEA_WH@Z 000000018004103c     ConEmuPlugin995.obj
 0002:0000e058       $unwind$?InputBox@CPluginW995@@UEAA_NPEB_W000AEAPEA_W@Z 0000000180041058     ConEmuPlugin995.obj
 0002:0000e070       $unwind$?LoadFarColors@CPluginW995@@UEAAXAEAY0BAA@E@Z 0000000180041070     ConEmuPlugin995.obj
 0002:0000e070       $unwind$?LoadFarColors@CPluginAnsi@@UEAAXAEAY0BAA@E@Z 0000000180041070     ConEmuPluginA.obj
 0002:0000e088       $unwind$?SetStartupInfoPtr@CPluginW995@@UEAAXPEAX@Z 0000000180041088     ConEmuPlugin995.obj
 0002:0000e088       $unwind$?SetStartupInfoPtr@CPluginAnsi@@UEAAXPEAX@Z 0000000180041088     ConEmuPluginA.obj
 0002:0000e09c       $unwind$?ShowPluginMenu@CPluginW995@@UEAAHPEAUConEmuPluginMenuItem@@HH@Z 000000018004109c     ConEmuPlugin995.obj
 0002:0000e0b4       $unwind$?UpdateConEmuTabsApi@CPluginW995@@UEAA_NH@Z 00000001800410b4     ConEmuPlugin995.obj
 0002:0000e0d8       $unwind$?WaitEndSynchro@CPluginW995@@UEAAXXZ 00000001800410d8     ConEmuPlugin995.obj
 0002:0000e0ec       $unwind$?CallGuiMacroDlg@@YA_JPEAXHH_J@Z 00000001800410ec     ConEmuPlugin995.obj
 0002:0000e108       $unwind$?CallGuiMacroProc@@YAXXZ 0000000180041108     ConEmuPlugin995.obj
 0002:0000e124       $unwind$??0CPluginAnsi@@QEAA@XZ 0000000180041124     ConEmuPluginA.obj
 0002:0000e134       $cppxdata$??0CPluginAnsi@@QEAA@XZ 0000000180041134     ConEmuPluginA.obj
 0002:0000e13d       $ip2state$??0CPluginAnsi@@QEAA@XZ 000000018004113d     ConEmuPluginA.obj
 0002:0000e144       $unwind$?GetActiveWindowType@CPluginAnsi@@UEAAHXZ 0000000180041144     ConEmuPluginA.obj
 0002:0000e158       $unwind$?GetMsg@CPluginAnsi@@UEAAPEB_WHPEA_W_K@Z 0000000180041158     ConEmuPluginA.obj
 0002:0000e158       $unwind$?GetPanelItemInfo@CPluginAnsi@@UEAA_NAEBUCEPanelInfo@@_N_JAEAU_WIN32_FIND_DATAW@@PEAPEA_W@Z 0000000180041158     ConEmuPluginA.obj
 0002:0000e158       $unwind$?ToUnicode@CPluginBase@@SAPEA_WPEBD@Z 0000000180041158     ConEmuPluginBase.obj
 0002:0000e158       $unwind$?getStateFromIterators@UWMap4@FH4@@SAHAEBViterator@12@H0H0@Z 0000000180041158     libvcruntime:frame.obj
 0002:0000e158       $unwind$?_VerifyVersionInfo@@YA_NPEAU_OSVERSIONINFOEXW@@K_K@Z 0000000180041158     common-kernel64:WObjects.obj
 0002:0000e168       $unwind$?GetPanelDir@CPluginAnsi@@UEAAPEA_WKPEA_WH@Z 0000000180041168     ConEmuPluginA.obj
 0002:0000e184       $unwind$?GetPanelInfo@CPluginAnsi@@UEAA_NKPEAUCEPanelInfo@@@Z 0000000180041184     ConEmuPluginA.obj
 0002:0000e1a8       $unwind$?InputBox@CPluginAnsi@@UEAA_NPEB_W000AEAPEA_W@Z 00000001800411a8     ConEmuPluginA.obj
 0002:0000e1cc       $unwind$?OpenEditor@CPluginAnsi@@UEAA_NPEB_W_N11HH@Z 00000001800411cc     ConEmuPluginA.obj
 0002:0000e1e8       $unwind$?PostMacroApi@CPluginAnsi@@UEAAXPEB_WPEAU_INPUT_RECORD@@_N@Z 00000001800411e8     ConEmuPluginA.obj
 0002:0000e1fc       $unwind$?ShowMessage@CPluginAnsi@@UEAAHPEB_WH_N@Z 00000001800411fc     ConEmuPluginA.obj
 0002:0000e1fc       $unwind$?OnWriteConsoleOutput@CPluginBase@@SAHPEAUHookCallbackArg@@@Z 00000001800411fc     ConEmuPluginBase.obj
 0002:0000e1fc       $unwind$?PanelControl@CPluginBase@@QEAA_JPEAXH_J0@Z 00000001800411fc     ConEmuPluginBase.obj
 0002:0000e1fc       $unwind$??$__acrt_mbs_to_wcs_cp@U__crt_win32_buffer_internal_dynamic_resizing@@@@YAHQEBDAEAV?$__crt_win32_buffer@_WU__crt_win32_buffer_internal_dynamic_resizing@@@@I@Z 00000001800411fc     libucrt:argv_wildcards.obj
 0002:0000e1fc       $unwind$?StringCchVPrintfA@@YAJPEAD_KPEBD0@Z 00000001800411fc     common-kernel64:MStrSafe.obj
 0002:0000e1fc       $unwind$?apiCreateThread@@YAPEAXP6AKPEAX@Z0PEAKPEBDH@Z 00000001800411fc     common-kernel64:WThreads.obj
 0002:0000e1fc       $unwind$?IsConEmuExeExist@@YAHPEB_WAEAY0BAF@_W@Z 00000001800411fc     common-user64:ConEmuCheckEx.obj
 0002:0000e214       $unwind$?ShowPluginMenu@CPluginAnsi@@UEAAHPEAUConEmuPluginMenuItem@@HH@Z 0000000180041214     ConEmuPluginA.obj
 0002:0000e230       $unwind$?UpdateConEmuTabsApi@CPluginAnsi@@UEAA_NH@Z 0000000180041230     ConEmuPluginA.obj
 0002:0000e258       $unwind$?CallGuiMacroDlg@@YA_JPEAXHH_J@Z 0000000180041258     ConEmuPluginA.obj
 0002:0000e274       $unwind$?CallGuiMacroProc@@YAXXZ 0000000180041274     ConEmuPluginA.obj
 0002:0000e294       $unwind$?InitRootRegKey@CPluginBase@@IEAAXXZ 0000000180041294     ConEmuPluginBase.obj
 0002:0000e2b0       $unwind$?DllMain_ProcessAttach@CPluginBase@@KAXPEAUHINSTANCE__@@@Z 00000001800412b0     ConEmuPluginBase.obj
 0002:0000e2c0       $cppxdata$?DllMain_ProcessAttach@CPluginBase@@KAXPEAUHINSTANCE__@@@Z 00000001800412c0     ConEmuPluginBase.obj
 0002:0000e2c9       $stateUnwindMap$?DllMain_ProcessAttach@CPluginBase@@KAXPEAUHINSTANCE__@@@Z 00000001800412c9     ConEmuPluginBase.obj
 0002:0000e2d4       $ip2state$?DllMain_ProcessAttach@CPluginBase@@KAXPEAUHINSTANCE__@@@Z 00000001800412d4     ConEmuPluginBase.obj
 0002:0000e2e0       $unwind$?DllCheckUnique@CPluginBase@@KA_N_N@Z 00000001800412e0     ConEmuPluginBase.obj
 0002:0000e30c       $cppxdata$?DllCheckUnique@CPluginBase@@KA_N_N@Z 000000018004130c     ConEmuPluginBase.obj
 0002:0000e315       $stateUnwindMap$?DllCheckUnique@CPluginBase@@KA_N_N@Z 0000000180041315     ConEmuPluginBase.obj
 0002:0000e322       $ip2state$?DllCheckUnique@CPluginBase@@KA_N_N@Z 0000000180041322     ConEmuPluginBase.obj
 0002:0000e330       $unwind$?ShowProtocolWarning@CPluginBase@@KAXXZ 0000000180041330     ConEmuPluginBase.obj
 0002:0000e348       $cppxdata$?ShowProtocolWarning@CPluginBase@@KAXXZ 0000000180041348     ConEmuPluginBase.obj
 0002:0000e351       $stateUnwindMap$?ShowProtocolWarning@CPluginBase@@KAXXZ 0000000180041351     ConEmuPluginBase.obj
 0002:0000e358       $ip2state$?ShowProtocolWarning@CPluginBase@@KAXXZ 0000000180041358     ConEmuPluginBase.obj
 0002:0000e360       $unwind$?ShowMessageBox@CPluginBase@@KAHPEB_WI@Z 0000000180041360     ConEmuPluginBase.obj
 0002:0000e37c       $unwind$?ShowMessageGui@CPluginBase@@QEAAHHH@Z 000000018004137c     ConEmuPluginBase.obj
 0002:0000e394       $unwind$?UpdatePanelDirs@CPluginBase@@QEAAXXZ 0000000180041394     ConEmuPluginBase.obj
 0002:0000e3b4       $unwind$?StorePanelDirs@CPluginBase@@QEAA_NPEB_W0@Z 00000001800413b4     ConEmuPluginBase.obj
 0002:0000e3b4       $unwind$?try_get_function@@YAPEAXW4function_id@?A0x84e3c32f@@QEBDQEBW4module_id@2@2@Z 00000001800413b4     libvcruntime:winapi_downlevel.obj
 0002:0000e3b4       $unwind$?try_get_function@@YAPEAXW4function_id@?A0x391cf84c@@QEBDQEBW4module_id@2@2@Z 00000001800413b4     libucrt:winapi_thunks.obj
 0002:0000e3d0       $unwind$?RunExternalProgram@CPluginBase@@QEAA_NPEA_W@Z 00000001800413d0     ConEmuPluginBase.obj
 0002:0000e3f0       $cppxdata$?RunExternalProgram@CPluginBase@@QEAA_NPEA_W@Z 00000001800413f0     ConEmuPluginBase.obj
 0002:0000e3f9       $stateUnwindMap$?RunExternalProgram@CPluginBase@@QEAA_NPEA_W@Z 00000001800413f9     ConEmuPluginBase.obj
 0002:0000e40c       $ip2state$?RunExternalProgram@CPluginBase@@QEAA_NPEA_W@Z 000000018004140c     ConEmuPluginBase.obj
 0002:0000e418       $unwind$?ShowPluginMenu@CPluginBase@@QEAAXW4PluginCallCommands@@@Z 0000000180041418     ConEmuPluginBase.obj
 0002:0000e438       $unwind$?ShowConsoleInfo@CPluginBase@@QEAAXXZ 0000000180041438     ConEmuPluginBase.obj
 0002:0000e460       $unwind$?StartDebugger@CPluginBase@@QEAA_NXZ 0000000180041460     ConEmuPluginBase.obj
 0002:0000e484       $unwind$?Attach2Gui@CPluginBase@@QEAA_N_N@Z 0000000180041484     ConEmuPluginBase.obj
 0002:0000e4a8       $unwind$?FindServerCmd@CPluginBase@@QEAA_NKAEAK_N@Z 00000001800414a8     ConEmuPluginBase.obj
 0002:0000e4c4       $unwind$?ShowMessage@CPluginBase@@QEAAHHH@Z 00000001800414c4     ConEmuPluginBase.obj
 0002:0000e4dc       $unwind$?UpdateConEmuTabs@CPluginBase@@QEAA_N_N@Z 00000001800414dc     ConEmuPluginBase.obj
 0002:0000e500       $cppxdata$?UpdateConEmuTabs@CPluginBase@@QEAA_N_N@Z 0000000180041500     ConEmuPluginBase.obj
 0002:0000e509       $stateUnwindMap$?UpdateConEmuTabs@CPluginBase@@QEAA_N_N@Z 0000000180041509     ConEmuPluginBase.obj
 0002:0000e510       $ip2state$?UpdateConEmuTabs@CPluginBase@@QEAA_N_N@Z 0000000180041510     ConEmuPluginBase.obj
 0002:0000e518       $unwind$?CheckResources@CPluginBase@@QEAAX_N@Z 0000000180041518     ConEmuPluginBase.obj
 0002:0000e534       $unwind$?InitResources@CPluginBase@@QEAAXXZ 0000000180041534     ConEmuPluginBase.obj
 0002:0000e558       $unwind$?OpenPluginCommon@CPluginBase@@QEAAPEAXH_J_N@Z 0000000180041558     ConEmuPluginBase.obj
 0002:0000e56c       $unwind$?ProcessSetWindowCommand@CPluginBase@@QEAAXXZ 000000018004156c     ConEmuPluginBase.obj
 0002:0000e580       $unwind$?CommonPluginStartup@CPluginBase@@QEAAXXZ 0000000180041580     ConEmuPluginBase.obj
 0002:0000e594       $unwind$?ProcessCommand@CPluginBase@@QEAA_NKHPEAXPEAPEAUCESERVER_REQ@@_N@Z 0000000180041594     ConEmuPluginBase.obj
 0002:0000e5b8       $cppxdata$?ProcessCommand@CPluginBase@@QEAA_NKHPEAXPEAPEAUCESERVER_REQ@@_N@Z 00000001800415b8     ConEmuPluginBase.obj
 0002:0000e5c1       $stateUnwindMap$?ProcessCommand@CPluginBase@@QEAA_NKHPEAXPEAPEAUCESERVER_REQ@@_N@Z 00000001800415c1     ConEmuPluginBase.obj
 0002:0000e5c8       $ip2state$?ProcessCommand@CPluginBase@@QEAA_NKHPEAXPEAPEAUCESERVER_REQ@@_N@Z 00000001800415c8     ConEmuPluginBase.obj
 0002:0000e5d4       $unwind$?FarSetConsoleSize@CPluginBase@@SA_NFF@Z 00000001800415d4     ConEmuPluginBase.obj
 0002:0000e5f0       $unwind$?ReloadFarInfo@CPluginBase@@QEAA_N_N@Z 00000001800415f0     ConEmuPluginBase.obj
 0002:0000e610       $unwind$?FillUpdateBackground@CPluginBase@@QEAAXPEAUPaintBackgroundArg@@@Z 0000000180041610     ConEmuPluginBase.obj
 0002:0000e628       $unwind$?GetPanelInfo@CPluginBase@@QEAA_NKPEAUBkPanelInfo@@@Z 0000000180041628     ConEmuPluginBase.obj
 0002:0000e640       $unwind$?ProcessDragFrom@CPluginBase@@QEAAXXZ 0000000180041640     ConEmuPluginBase.obj
 0002:0000e668       $unwind$?ProcessDragTo@CPluginBase@@QEAAXXZ 0000000180041668     ConEmuPluginBase.obj
 0002:0000e68c       $unwind$?IsCurrentTabModal@CPluginBase@@QEAA_NXZ 000000018004168c     ConEmuPluginBase.obj
 0002:0000e69c       $cppxdata$?IsCurrentTabModal@CPluginBase@@QEAA_NXZ 000000018004169c     ConEmuPluginBase.obj
 0002:0000e6a5       $stateUnwindMap$?CreateTabs@CPluginBase@@SA_NH@Z 00000001800416a5     ConEmuPluginBase.obj
 0002:0000e6a5       $stateUnwindMap$?IsCurrentTabModal@CPluginBase@@QEAA_NXZ 00000001800416a5     ConEmuPluginBase.obj
 0002:0000e6a5       $stateUnwindMap$?SendTabs@CPluginBase@@SAXH_N@Z 00000001800416a5     ConEmuPluginBase.obj
 0002:0000e6ac       $ip2state$?IsCurrentTabModal@CPluginBase@@QEAA_NXZ 00000001800416ac     ConEmuPluginBase.obj
 0002:0000e6b4       $unwind$?ShowTabsList@CPluginBase@@QEAAXXZ 00000001800416b4     ConEmuPluginBase.obj
 0002:0000e6c8       $unwind$?ShowPanelsList@CPluginBase@@QEAAXXZ 00000001800416c8     ConEmuPluginBase.obj
 0002:0000e6e0       $unwind$?EditViewConsoleOutput@CPluginBase@@QEAAX_N@Z 00000001800416e0     ConEmuPluginBase.obj
 0002:0000e6e0       $unwind$?x_ismbbtype_l@@YAHPEAU__crt_locale_pointers@@IHH@Z 00000001800416e0     libucrt:ismbbyte.obj
 0002:0000e6f0       $unwind$?PrintText@CPluginBase@@QEAA_NPEB_W@Z 00000001800416f0     ConEmuPluginBase.obj
 0002:0000e708       $unwind$?cmd_OpenEditorLine@CPluginBase@@QEAA_NPEAUCESERVER_REQ_FAREDITOR@@@Z 0000000180041708     ConEmuPluginBase.obj
 0002:0000e724       $cppxdata$?cmd_OpenEditorLine@CPluginBase@@QEAA_NPEAUCESERVER_REQ_FAREDITOR@@@Z 0000000180041724     ConEmuPluginBase.obj
 0002:0000e72d       $stateUnwindMap$?cmd_OpenEditorLine@CPluginBase@@QEAA_NPEAUCESERVER_REQ_FAREDITOR@@@Z 000000018004172d     ConEmuPluginBase.obj
 0002:0000e734       $ip2state$?cmd_OpenEditorLine@CPluginBase@@QEAA_NPEAUCESERVER_REQ_FAREDITOR@@@Z 0000000180041734     ConEmuPluginBase.obj
 0002:0000e73c       $unwind$?ActivatePlugin@CPluginBase@@QEAA_NKPEAXK@Z 000000018004173c     ConEmuPluginBase.obj
 0002:0000e73c       $unwind$?cmd_RedrawFarCall@CPluginBase@@QEAA_NAEAPEAUCESERVER_REQ@@PEAPEAU2@@Z 000000018004173c     ConEmuPluginBase.obj
 0002:0000e73c       $unwind$_invalid_parameter 000000018004173c     libucrt:invalid_parameter.obj
 0002:0000e750       $unwind$?cmd_LeftClickSync@CPluginBase@@QEAAXPEAX@Z 0000000180041750     ConEmuPluginBase.obj
 0002:0000e764       $unwind$?cmd_EMenu@CPluginBase@@QEAAXPEAX@Z 0000000180041764     ConEmuPluginBase.obj
 0002:0000e780       $unwind$?cmd_ExternalCallback@CPluginBase@@QEAA_NPEAX@Z 0000000180041780     ConEmuPluginBase.obj
 0002:0000e790       $unwind$?cmd_ConSetFont@CPluginBase@@QEAAXPEAX@Z 0000000180041790     ConEmuPluginBase.obj
 0002:0000e7a0       $unwind$?OnPanelViewCallbacks@CPluginBase@@SA_NPEAUHookCallbackArg@@P6AHPEAXPEAU_INPUT_RECORD@@KPEAKPEAH@Z5@Z 00000001800417a0     ConEmuPluginBase.obj
 0002:0000e7b8       $unwind$?OnConsoleReadInputPost@CPluginBase@@SAHPEAUHookCallbackArg@@@Z 00000001800417b8     ConEmuPluginBase.obj
 0002:0000e7d8       $unwind$?OnConsoleDetaching@CPluginBase@@SAHPEAUHookCallbackArg@@@Z 00000001800417d8     ConEmuPluginBase.obj
 0002:0000e7e8       $unwind$?OnLibraryLoaded@CPluginBase@@SAXPEAUHINSTANCE__@@@Z 00000001800417e8     ConEmuPluginBase.obj
 0002:0000e7f8       $unwind$?NotifyConEmuUnloaded@CPluginBase@@SAXXZ 00000001800417f8     ConEmuPluginBase.obj
 0002:0000e814       $unwind$?LoadFarVersion@CPluginBase@@SA_NXZ 0000000180041814     ConEmuPluginBase.obj
 0002:0000e82c       $unwind$?UngetDummyMouseEvent@CPluginBase@@SA_N_NPEAUHookCallbackArg@@@Z 000000018004182c     ConEmuPluginBase.obj
 0002:0000e840       $unwind$?OnConsolePeekReadInput@CPluginBase@@SAX_N@Z 0000000180041840     ConEmuPluginBase.obj
 0002:0000e858       $unwind$?WaitPluginActivation@CPluginBase@@SAKKPEAPEAXHK@Z 0000000180041858     ConEmuPluginBase.obj
 0002:0000e874       $unwind$?MonitorThreadProcW@CPluginBase@@SAKPEAX@Z 0000000180041874     ConEmuPluginBase.obj
 0002:0000e89c       $cppxdata$?MonitorThreadProcW@CPluginBase@@SAKPEAX@Z 000000018004189c     ConEmuPluginBase.obj
 0002:0000e8a5       $stateUnwindMap$?MonitorThreadProcW@CPluginBase@@SAKPEAX@Z 00000001800418a5     ConEmuPluginBase.obj
 0002:0000e8a5       $stateUnwindMap$?RegisterSubplugin@CPluginBackground@@QEAAHPEAURegisterBackgroundArg@@@Z 00000001800418a5     PluginBackground.obj
 0002:0000e8ac       $ip2state$?MonitorThreadProcW@CPluginBase@@SAKPEAX@Z 00000001800418ac     ConEmuPluginBase.obj
 0002:0000e8b8       $unwind$?CheckConEmuDetached@CPluginBase@@SAXXZ 00000001800418b8     ConEmuPluginBase.obj
 0002:0000e8d8       $cppxdata$?CheckConEmuDetached@CPluginBase@@SAXXZ 00000001800418d8     ConEmuPluginBase.obj
 0002:0000e8e1       $stateUnwindMap$?CheckConEmuDetached@CPluginBase@@SAXXZ 00000001800418e1     ConEmuPluginBase.obj
 0002:0000e8e8       $ip2state$?CheckConEmuDetached@CPluginBase@@SAXXZ 00000001800418e8     ConEmuPluginBase.obj
 0002:0000e8f0       $unwind$?OpenMapHeader@CPluginBase@@SAHXZ 00000001800418f0     ConEmuPluginBase.obj
 0002:0000e8f0       $unwind$?write_stored_string_tchar@?$output_processor@_WV?$string_output_adapter@_W@__crt_stdio_output@@V?$standard_base@_WV?$string_output_adapter@_W@__crt_stdio_output@@@2@@__crt_stdio_output@@AEAA_N_W@Z 00000001800418f0     libucrt:output.obj
 0002:0000e904       $unwind$?InitHWND@CPluginBase@@SAXXZ 0000000180041904     ConEmuPluginBase.obj
 0002:0000e91c       $unwind$?GetMainThreadId@CPluginBase@@SAKXZ 000000018004191c     ConEmuPluginBase.obj
 0002:0000e934       $unwind$?RunExternalProgramW@CPluginBase@@SA_NPEA_W0_N@Z 0000000180041934     ConEmuPluginBase.obj
 0002:0000e954       $cppxdata$?RunExternalProgramW@CPluginBase@@SA_NPEA_W0_N@Z 0000000180041954     ConEmuPluginBase.obj
 0002:0000e95d       $stateUnwindMap$?RunExternalProgramW@CPluginBase@@SA_NPEA_W0_N@Z 000000018004195d     ConEmuPluginBase.obj
 0002:0000e96f       $ip2state$?RunExternalProgramW@CPluginBase@@SA_NPEA_W0_N@Z 000000018004196f     ConEmuPluginBase.obj
 0002:0000e980       $unwind$?CreateTabs@CPluginBase@@SA_NH@Z 0000000180041980     ConEmuPluginBase.obj
 0002:0000e990       $cppxdata$?CreateTabs@CPluginBase@@SA_NH@Z 0000000180041990     ConEmuPluginBase.obj
 0002:0000e999       $ip2state$?CreateTabs@CPluginBase@@SA_NH@Z 0000000180041999     ConEmuPluginBase.obj
 0002:0000e9a0       $unwind$?AddTab@CPluginBase@@QEAA_NAEAHH_N1HPEB_W2HHHH@Z 00000001800419a0     ConEmuPluginBase.obj
 0002:0000e9c4       $unwind$?SendTabs@CPluginBase@@SAXH_N@Z 00000001800419c4     ConEmuPluginBase.obj
 0002:0000e9d8       $cppxdata$?SendTabs@CPluginBase@@SAXH_N@Z 00000001800419d8     ConEmuPluginBase.obj
 0002:0000e9e1       $ip2state$?SendTabs@CPluginBase@@SAXH_N@Z 00000001800419e1     ConEmuPluginBase.obj
 0002:0000e9ec       $unwind$?CloseTabs@CPluginBase@@SAXXZ 00000001800419ec     ConEmuPluginBase.obj
 0002:0000e9fc       $unwind$?LoadPanelTabsFromRegistry@CPluginBase@@IEAAXXZ 00000001800419fc     ConEmuPluginBase.obj
 0002:0000ea08       $unwind$?Plugin@@YAPEAVCPluginBase@@XZ 0000000180041a08     ConEmuPluginBase.obj
 0002:0000ea18       $cppxdata$?Plugin@@YAPEAVCPluginBase@@XZ 0000000180041a18     ConEmuPluginBase.obj
 0002:0000ea21       $stateUnwindMap$?Plugin@@YAPEAVCPluginBase@@XZ 0000000180041a21     ConEmuPluginBase.obj
 0002:0000ea36       $ip2state$?Plugin@@YAPEAVCPluginBase@@XZ 0000000180041a36     ConEmuPluginBase.obj
 0002:0000ea4c       $unwind$?LoadModuleVersion@@YA_NPEB_WAEAUtagVS_FIXEDFILEINFO@@PEA_W_K@Z 0000000180041a4c     ConEmuPluginBase.obj
 0002:0000ea6c       $unwind$?LoadFarVersion@@YA_NAEAUFarVersion@@AEAY0CAA@_W@Z 0000000180041a6c     ConEmuPluginBase.obj
 0002:0000ea88       $unwind$??1MWow64Disable@@QEAA@XZ 0000000180041a88     ConEmuPluginBase.obj
 0002:0000ea98       $cppxdata$??1MWow64Disable@@QEAA@XZ 0000000180041a98     ConEmuPluginBase.obj
 0002:0000ea9d       $ip2state$??1MWow64Disable@@QEAA@XZ 0000000180041a9d     ConEmuPluginBase.obj
 0002:0000eaa0       $unwind$?InternalOpenCreate@?$MFileMapping@UCESERVER_CONSOLE_MAPPING_HDR@@@@IEAAPEAUCESERVER_CONSOLE_MAPPING_HDR@@_N0H@Z 0000000180041aa0     ConEmuPluginBase.obj
 0002:0000eaa0       $unwind$?InternalOpenCreate@?$MFileMapping@UPanelViewSetMapping@@@@IEAAPEAUPanelViewSetMapping@@_N0H@Z 0000000180041aa0     PluginBackground.obj
 0002:0000eaa0       $unwind$__C_specific_handler 0000000180041aa0     libvcruntime:riscchandler.obj
 0002:0000eaa0       $unwind$?InternalOpenCreate@?$MFileMapping@UConEmuGuiMapping@@@@IEAAPEAUConEmuGuiMapping@@_N0H@Z 0000000180041aa0     common-kernel64:ConEmuCheck.obj
 0002:0000eabc       $unwind$?LoadThSet@CPluginBackground@@IEAAHH@Z 0000000180041abc     PluginBackground.obj
 0002:0000eae8       $cppxdata$?LoadThSet@CPluginBackground@@IEAAHH@Z 0000000180041ae8     PluginBackground.obj
 0002:0000eaf1       $stateUnwindMap$?LoadThSet@CPluginBackground@@IEAAHH@Z 0000000180041af1     PluginBackground.obj
 0002:0000eaf8       $ip2state$?LoadThSet@CPluginBackground@@IEAAHH@Z 0000000180041af8     PluginBackground.obj
 0002:0000eb00       $unwind$?UpdateBackground@CPluginBackground@@IEAAXXZ 0000000180041b00     PluginBackground.obj
 0002:0000eb2c       $cppxdata$?UpdateBackground@CPluginBackground@@IEAAXXZ 0000000180041b2c     PluginBackground.obj
 0002:0000eb35       $stateUnwindMap$?UpdateBackground@CPluginBackground@@IEAAXXZ 0000000180041b35     PluginBackground.obj
 0002:0000eb3c       $ip2state$?UpdateBackground@CPluginBackground@@IEAAXXZ 0000000180041b3c     PluginBackground.obj
 0002:0000eb48       $unwind$??0CPluginBackground@@QEAA@XZ 0000000180041b48     PluginBackground.obj
 0002:0000eb64       $cppxdata$??0CPluginBackground@@QEAA@XZ 0000000180041b64     PluginBackground.obj
 0002:0000eb6d       $stateUnwindMap$??0CPluginBackground@@QEAA@XZ 0000000180041b6d     PluginBackground.obj
 0002:0000eb73       $ip2state$??0CPluginBackground@@QEAA@XZ 0000000180041b73     PluginBackground.obj
 0002:0000eb7c       $unwind$??1CPluginBackground@@QEAA@XZ 0000000180041b7c     PluginBackground.obj
 0002:0000eb94       $cppxdata$??1CPluginBackground@@QEAA@XZ 0000000180041b94     PluginBackground.obj
 0002:0000eb99       $ip2state$??1CPluginBackground@@QEAA@XZ 0000000180041b99     PluginBackground.obj
 0002:0000eb9c       $unwind$?RegisterSubplugin@CPluginBackground@@QEAAHPEAURegisterBackgroundArg@@@Z 0000000180041b9c     PluginBackground.obj
 0002:0000ebb4       $cppxdata$?RegisterSubplugin@CPluginBackground@@QEAAHPEAURegisterBackgroundArg@@@Z 0000000180041bb4     PluginBackground.obj
 0002:0000ebbd       $ip2state$?RegisterSubplugin@CPluginBackground@@QEAAHPEAURegisterBackgroundArg@@@Z 0000000180041bbd     PluginBackground.obj
 0002:0000ebc8       $unwind$?GetTo@?$MFileMapping@UPanelViewSetMapping@@@@QEAA_NPEAUPanelViewSetMapping@@H@Z 0000000180041bc8     PluginBackground.obj
 0002:0000ebe8       $unwind$?PlugServerStart@@YA_NXZ 0000000180041be8     PluginSrv.obj
 0002:0000ebf0       $unwind$?PlugServerCommand@@YAHPEAXPEAUCESERVER_REQ@@AEAPEAU1@AEAK3_J@Z 0000000180041bf0     PluginSrv.obj
 0002:0000ec14       $cppxdata$?PlugServerCommand@@YAHPEAXPEAUCESERVER_REQ@@AEAPEAU1@AEAK3_J@Z 0000000180041c14     PluginSrv.obj
 0002:0000ec1d       $stateUnwindMap$?PlugServerCommand@@YAHPEAXPEAUCESERVER_REQ@@AEAPEAU1@AEAK3_J@Z 0000000180041c1d     PluginSrv.obj
 0002:0000ec2a       $ip2state$?PlugServerCommand@@YAHPEAXPEAUCESERVER_REQ@@AEAPEAU1@AEAK3_J@Z 0000000180041c2a     PluginSrv.obj
 0002:0000ec3c       $unwind$?PlugServerFree@@YAXPEAUCESERVER_REQ@@_J@Z 0000000180041c3c     PluginSrv.obj
 0002:0000ec3c       $unwind$_putwch_nolock     0000000180041c3c     libucrt:putwch.obj
 0002:0000ec44       $unwind$?DumpError@?$PipeServer@UCESERVER_REQ@@@@IEAAXPEAUPipeInst@1@PEB_WH@Z 0000000180041c44     PluginSrv.obj
 0002:0000ec60       $unwind$?PipeServerRead@?$PipeServer@UCESERVER_REQ@@@@IEAAHPEAUPipeInst@1@@Z 0000000180041c60     PluginSrv.obj
 0002:0000ec84       $unwind$?PipeServerWrite@?$PipeServer@UCESERVER_REQ@@@@IEAAHPEAUPipeInst@1@PEBXKPEAKH@Z 0000000180041c84     PluginSrv.obj
 0002:0000eca0       $unwind$?WaitForClient@?$PipeServer@UCESERVER_REQ@@@@IEAA_NPEAUPipeInst@1@AEAH1@Z 0000000180041ca0     PluginSrv.obj
 0002:0000ecbc       $unwind$?WriteDummyAnswer@?$PipeServer@UCESERVER_REQ@@@@IEAAHPEAUPipeInst@1@@Z 0000000180041cbc     PluginSrv.obj
 0002:0000ecd0       $unwind$?PipeServerThread@?$PipeServer@UCESERVER_REQ@@@@IEAAKPEAUPipeInst@1@@Z 0000000180041cd0     PluginSrv.obj
 0002:0000ece8       $unwind$?StartPipeInstance@?$PipeServer@UCESERVER_REQ@@@@IEAA_NPEAUPipeInst@1@@Z 0000000180041ce8     PluginSrv.obj
 0002:0000ed00       $unwind$?StartPipeServer@?$PipeServer@UCESERVER_REQ@@@@QEAA_N_NPEB_W_JPEAU_SECURITY_ATTRIBUTES@@P6AHPEAXPEAUCESERVER_REQ@@AEAPEAU3@AEAK72@ZP6AX52@ZP6AH42@ZP6AH42@ZP6AH42@Z@Z 0000000180041d00     PluginSrv.obj
 0002:0000ed00       $unwind$__GSHandlerCheck_EH4 0000000180041d00     LIBCMT:gshandlereh4.obj
 0002:0000ed00       $unwind$__GSHandlerCheck_SEH 0000000180041d00     LIBCMT:gshandlerseh.obj
 0002:0000ed00       $unwind$??$TypeMatchHelper@V__FrameHandler3@@@@YAHPEBU_s_HandlerType@@PEBU_s_CatchableType@@PEBU_s_ThrowInfo@@@Z 0000000180041d00     libvcruntime:frame.obj
 0002:0000ed00       $unwind$??$TypeMatchHelper@V__FrameHandler4@@@@YAHPEAUHandlerType4@FH4@@PEBU_s_CatchableType@@PEBU_s_ThrowInfo@@@Z 0000000180041d00     libvcruntime:frame.obj
 0002:0000ed00       $unwind$?initialize_stdio_handles_nolock@@YAXXZ 0000000180041d00     libucrt:ioinit.obj
 0002:0000ed00       $unwind$__acrt_initialize_stdio 0000000180041d00     libucrt:_file.obj
 0002:0000ed00       $unwind$?process@?$output_processor@_WV?$string_output_adapter@_W@__crt_stdio_output@@V?$standard_base@_WV?$string_output_adapter@_W@__crt_stdio_output@@@2@@__crt_stdio_output@@QEAAHXZ 0000000180041d00     libucrt:output.obj
 0002:0000ed00       $unwind$?type_case_integer@?$output_processor@DV?$string_output_adapter@D@__crt_stdio_output@@V?$standard_base@DV?$string_output_adapter@D@__crt_stdio_output@@@2@@__crt_stdio_output@@AEAA_NI_N@Z 0000000180041d00     libucrt:output.obj
 0002:0000ed00       $unwind$?type_case_integer@?$output_processor@_WV?$string_output_adapter@_W@__crt_stdio_output@@V?$standard_base@_WV?$string_output_adapter@_W@__crt_stdio_output@@@2@@__crt_stdio_output@@AEAA_NI_N@Z 0000000180041d00     libucrt:output.obj
 0002:0000ed00       $unwind$?GetBuffer@CEStr@@QEAAPEA_W_J@Z 0000000180041d00     common-kernel64:CEStr.obj
 0002:0000ed00       $unwind$?ExecuteNewCmd@@YA_NAEAPEAUCESERVER_REQ@@AEAKK_K@Z 0000000180041d00     common-kernel64:ConEmuCheck.obj
 0002:0000ed00       $unwind$?WaitUnlocked@MSection@@IEAAXKK@Z 0000000180041d00     common-kernel64:MSection.obj
 0002:0000ed18       $unwind$?GetConEmuHWND@@YAPEAUHWND__@@H@Z 0000000180041d18     common-kernel64:ConEmuCheck.obj
 0002:0000ed34       $unwind$?isConsoleWindow@@YA_NPEAUHWND__@@@Z 0000000180041d34     common-kernel64:ConEmuCheck.obj
 0002:0000ed4c       $unwind$?GuiMessageBox@@YAHPEAUHWND__@@PEB_W1H@Z 0000000180041d4c     common-kernel64:ConEmuCheck.obj
 0002:0000ed6c       $unwind$?ExecuteOpenPipe@@YAPEAXPEB_WAEAY0CAI@_W0KKHPEAXH@Z 0000000180041d6c     common-kernel64:ConEmuCheck.obj
 0002:0000ed84       $unwind$__scrt_dllmain_exception_filter 0000000180041d84     LIBCMT:utility.obj
 0002:0000ed84       $unwind$?Is_bad_exception_allowed@@YAEPEBU_s_ESTypeList@@@Z 0000000180041d84     libvcruntime:frame.obj
 0002:0000ed84       $unwind$_ischartype_l      0000000180041d84     libucrt:strtox.obj
 0002:0000ed84       $unwind$_recalloc_base     0000000180041d84     libucrt:recalloc.obj
 0002:0000ed84       $unwind$__acrt_free_locale 0000000180041d84     libucrt:locale_refcounting.obj
 0002:0000ed84       $unwind$__acrt_lowio_create_handle_array 0000000180041d84     libucrt:osfinfo.obj
 0002:0000ed84       $unwind$?setSBCS@@YAXPEAU__crt_multibyte_data@@@Z 0000000180041d84     libucrt:mbctype.obj
 0002:0000ed84       $unwind$_seh_filter_exe    0000000180041d84     libucrt:exception_filter.obj
 0002:0000ed84       $unwind$_initterm          0000000180041d84     libucrt:initterm.obj
 0002:0000ed84       $unwind$??$ensure_buffer_is_big_enough@D@formatting_buffer@__crt_stdio_output@@QEAA_N_K@Z 0000000180041d84     libucrt:output.obj
 0002:0000ed84       $unwind$??$ensure_buffer_is_big_enough@_W@formatting_buffer@__crt_stdio_output@@QEAA_N_K@Z 0000000180041d84     libucrt:output.obj
 0002:0000ed84       $unwind$?Set@CEStr@@QEAAPEB_WPEB_W_J@Z 0000000180041d84     common-kernel64:CEStr.obj
 0002:0000ed84       $unwind$?ExecuteNewCmd@@YAPEAUCESERVER_REQ@@K_K@Z 0000000180041d84     common-kernel64:ConEmuCheck.obj
 0002:0000ed84       $unwind$??0CEnvStrings@@QEAA@PEA_W@Z 0000000180041d84     common-kernel64:EnvVar.obj
 0002:0000ed84       $unwind$?ExpandEnvStr@@YAPEA_WPEB_W@Z 0000000180041d84     common-kernel64:EnvVar.obj
 0002:0000ed84       $unwind$?GetEnvVar@@YAPEA_WPEB_W@Z 0000000180041d84     common-kernel64:EnvVar.obj
 0002:0000ed84       $unwind$?Init@HkFunc@@QEAA_NPEB_WPEAUHINSTANCE__@@@Z 0000000180041d84     common-kernel64:HkFunc.obj
 0002:0000ed84       $unwind$?AddRef@MSection@@IEAAXK@Z 0000000180041d84     common-kernel64:MSection.obj
 0002:0000ed84       $unwind$?Lock@MSection@@IEAAHHK@Z 0000000180041d84     common-kernel64:MSection.obj
 0002:0000ed84       $unwind$?ReleaseRef@MSection@@IEAAHK@Z 0000000180041d84     common-kernel64:MSection.obj
 0002:0000ed84       $unwind$?lstrdup@@YAPEA_WPEB_W_K@Z 0000000180041d84     common-kernel64:MStrDup.obj
 0002:0000ed84       $unwind$?IsModuleValid@@YA_NPEAUHINSTANCE__@@H@Z 0000000180041d84     common-kernel64:WModuleCheck.obj
 0002:0000ed98       $unwind$??$free_environment@D@@YAXQEAPEAD@Z 0000000180041d98     libucrt:environment_initialization.obj
 0002:0000ed98       $unwind$??$free_environment@_W@@YAXQEAPEA_W@Z 0000000180041d98     libucrt:environment_initialization.obj
 0002:0000ed98       $unwind$?SetCommand@CESERVER_REQ_NEWCMD@@QEAAXPEB_W@Z 0000000180041d98     common-kernel64:Common.obj
 0002:0000ed98       $unwind$?ExecutePrepareCmd@@YAXPEAUCESERVER_REQ@@K_K@Z 0000000180041d98     common-kernel64:ConEmuCheck.obj
 0002:0000ed98       $unwind$?ExecutePrepareCmd@@YAXPEAUCESERVER_REQ_HDR@@K_K@Z 0000000180041d98     common-kernel64:ConEmuCheck.obj
 0002:0000eda4       $unwind$?ExecuteGuiCmd@@YAPEAUCESERVER_REQ@@PEAUHWND__@@PEAU1@0H@Z 0000000180041da4     common-kernel64:ConEmuCheck.obj
 0002:0000edc4       $unwind$?ExecuteSrvCmd@@YAPEAUCESERVER_REQ@@KPEAU1@PEAUHWND__@@HKH@Z 0000000180041dc4     common-kernel64:ConEmuCheck.obj
 0002:0000ede8       $unwind$?ExecuteCmd@@YAPEAUCESERVER_REQ@@PEB_WPEAU1@KPEAUHWND__@@HKH@Z 0000000180041de8     common-kernel64:ConEmuCheck.obj
 0002:0000ee0c       $unwind$?LoadSrvMapping@@YAHPEAUHWND__@@AEAUCESERVER_CONSOLE_MAPPING_HDR@@@Z 0000000180041e0c     common-kernel64:ConEmuCheck.obj
 0002:0000ee2c       $unwind$?ModuleName@@YAPEB_WPEB_W@Z 0000000180041e2c     common-kernel64:ConEmuCheck.obj
 0002:0000ee40       $unwind$?sprintf_c@@YAHPEAD_JPEBDZZ 0000000180041e40     common-kernel64:MStrSafe.obj
 0002:0000ee40       $unwind$?swprintf_c@@YAHPEA_W_JPEB_WZZ 0000000180041e40     common-kernel64:MStrSafe.obj
 0002:0000ee4c       $unwind$?msprintf@@YAPEB_WPEA_W_KPEB_WZZ 0000000180041e4c     common-kernel64:MStrSafe.obj
 0002:0000ee6c       $unwind$?lstrcmpni@@YAHPEB_W0H@Z 0000000180041e6c     common-kernel64:MStrSafe.obj
 0002:0000ee8c       $unwind$?IsFilePath@@YA_NPEB_W_N@Z 0000000180041e8c     common-kernel64:CmdLine.obj
 0002:0000eea4       $unwind$?apiTerminateThreadEx@@YAHPEAXKPEBDH@Z 0000000180041ea4     common-kernel64:WThreads.obj
 0002:0000eec0       $unwind$?SetThreadName@@YAXKPEAD@Z 0000000180041ec0     common-kernel64:WThreads.obj
 0002:0000eee0       $unwind$?apiThreadHelper@@YAKPEAX@Z 0000000180041ee0     common-kernel64:WThreads.obj
 0002:0000eef4       $unwind$?lstrmerge@@YAPEA_WPEB_W00000000@Z 0000000180041ef4     common-kernel64:MStrDup.obj
 0002:0000ef14       $unwind$?lstrmerge@@YA_NPEAPEA_WPEB_W1111111@Z 0000000180041f14     common-kernel64:MStrDup.obj
 0002:0000ef20       $unwind$?SetEnvStrings@CESERVER_REQ_NEWCMD@@QEAAXPEB_WK@Z 0000000180041f20     common-kernel64:Common.obj
 0002:0000ef3c       $unwind$?LocalSecurity@MNullDesc@@QEAAPEAU_SECURITY_ATTRIBUTES@@XZ 0000000180041f3c     common-kernel64:MSecurity.obj
 0002:0000ef58       $unwind$?type_case_a@?$output_processor@DV?$string_output_adapter@D@__crt_stdio_output@@V?$standard_base@DV?$string_output_adapter@D@__crt_stdio_output@@@2@@__crt_stdio_output@@AEAA_NXZ 0000000180041f58     libucrt:output.obj
 0002:0000ef58       $unwind$??0CEStr@@QEAA@PEB_W00000000@Z 0000000180041f58     common-kernel64:CEStr.obj
 0002:0000ef64       $unwind$iswctype           0000000180041f64     libucrt:iswctype.obj
 0002:0000ef64       $unwind$?Close@MHandle@@QEAAXXZ 0000000180041f64     common-kernel64:WObjects.obj
 0002:0000ef70       $unwind$?FileExists@@YA_NPEB_WPEA_K@Z 0000000180041f70     common-kernel64:WObjects.obj
 0002:0000ef94       $unwind$?isTerminalMode@@YA_NXZ 0000000180041f94     common-kernel64:MProcess.obj
 0002:0000efac       $unwind$__dcrt_lowio_ensure_console_output_initialized 0000000180041fac     libucrt:initcon.obj
 0002:0000efac       $unwind$_isleadbyte_l      0000000180041fac     libucrt:_wctype.obj
 0002:0000efac       $unwind$?getSystemCP@@YAHH@Z 0000000180041fac     libucrt:mbctype.obj
 0002:0000efac       $unwind$?Close@?$MToolHelp@UtagPROCESSENTRY32W@@$1?Process32FirstW@@YAHPEAXPEAU1@@Z$1?Process32NextW@@YAH01@Z@@QEAAXXZ 0000000180041fac     common-kernel64:MProcess.obj
 0002:0000efb4       $unwind$?Find@?$MToolHelp@UtagPROCESSENTRY32W@@$1?Process32FirstW@@YAHPEAXPEAU1@@Z$1?Process32NextW@@YAH01@Z@@QEAA_NAEBV?$function@$$A6A_NAEBUtagPROCESSENTRY32W@@@Z@std@@AEAUtagPROCESSENTRY32W@@@Z 0000000180041fb4     common-kernel64:MProcess.obj
 0002:0000efcc       $unwind$?Find@MToolHelpProcess@@QEAA_NKAEAUtagPROCESSENTRY32W@@@Z 0000000180041fcc     common-kernel64:MProcess.obj
 0002:0000efdc       $unwind$??$_Emplace_reallocate@AEBUtagPROCESSENTRY32W@@@?$vector@UtagPROCESSENTRY32W@@V?$MArrayAllocator@UtagPROCESSENTRY32W@@@@@std@@QEAAPEAUtagPROCESSENTRY32W@@QEAU2@AEBU2@@Z 0000000180041fdc     common-kernel64:MProcess.obj
 0002:0000eff8       $unwind$?should_round_up@@YA_NQEBN_KFW4__acrt_rounding_mode@@@Z 0000000180041ff8     libucrt:cvt.obj
 0002:0000eff8       $unwind$??$parse_command_line@D@@YAXPEADPEAPEAD0PEA_K2@Z 0000000180041ff8     libucrt:argv_parsing.obj
 0002:0000eff8       $unwind$?MyEnterCriticalSection@MSection@@IEAA_NK@Z 0000000180041ff8     common-kernel64:MSection.obj
 0002:0000eff8       $unwind$?CheckCallbackPtr@@YA_NPEAUHINSTANCE__@@_KPEAP6A_JXZHHH@Z 0000000180041ff8     common-kernel64:WModuleCheck.obj
 0002:0000f014       $unwind$?RecreateAndLock@MSectionSimple@@QEAA_NXZ 0000000180042014     common-kernel64:MSectionSimple.obj
 0002:0000f01c       $unwind$?SetConEmuEnvVar@@YAXPEAUHWND__@@@Z 000000018004201c     common-user64:SetEnvVar.obj
 0002:0000f02c       $unwind$?SetConEmuEnvHWND@@YAXPEB_WPEAUHWND__@@@Z 000000018004202c     common-user64:SetEnvVar.obj
 0002:0000f03c       $unwind$?FindConEmuBaseDir@@YAHAEAY0BAF@_W0PEAUHINSTANCE__@@@Z 000000018004203c     common-user64:ConEmuCheckEx.obj
 0002:0000f064       $cppxdata$?FindConEmuBaseDir@@YAHAEAY0BAF@_W0PEAUHINSTANCE__@@@Z 0000000180042064     common-user64:ConEmuCheckEx.obj
 0002:0000f06d       $stateUnwindMap$?FindConEmuBaseDir@@YAHAEAY0BAF@_W0PEAUHINSTANCE__@@@Z 000000018004206d     common-user64:ConEmuCheckEx.obj
 0002:0000f07b       $ip2state$?FindConEmuBaseDir@@YAHAEAY0BAF@_W0PEAUHINSTANCE__@@@Z 000000018004207b     common-user64:ConEmuCheckEx.obj
 0002:0000f088       $unwind$?EvaluateDefaultFontWidth@@YAHHPEB_W@Z 0000000180042088     common-user64:EmergencyShow.obj
 0002:0000f0a4       $unwind$?SetUserFriendlyFont@@YAXPEAUHWND__@@HH@Z 00000001800420a4     common-user64:EmergencyShow.obj
 0002:0000f0c8       $unwind$?CorrectConsolePos@@YAXPEAUHWND__@@@Z 00000001800420c8     common-user64:EmergencyShow.obj
 0002:0000f0e0       $unwind$?EmergencyShow@@YAXPEAUHWND__@@HH@Z 00000001800420e0     common-user64:EmergencyShow.obj
 0002:0000f0fc       $unwind$?SearchAppPaths@@YA_NPEB_WAEAUCEStr@@_NPEAVCEnvRestorer@@@Z 00000001800420fc     common-user64:WFiles.obj
 0002:0000f124       $cppxdata$?SearchAppPaths@@YA_NPEB_WAEAUCEStr@@_NPEAVCEnvRestorer@@@Z 0000000180042124     common-user64:WFiles.obj
 0002:0000f12d       $stateUnwindMap$?SearchAppPaths@@YA_NPEB_WAEAUCEStr@@_NPEAVCEnvRestorer@@@Z 000000018004212d     common-user64:WFiles.obj
 0002:0000f135       $ip2state$?SearchAppPaths@@YA_NPEB_WAEAUCEStr@@_NPEAVCEnvRestorer@@@Z 0000000180042135     common-user64:WFiles.obj
 0002:0000f140       $unwind$?SetConsoleInfo@@YAHPEAUHWND__@@PEAUCONSOLE_INFO@@@Z 0000000180042140     common-user64:WConsoleEx.obj
 0002:0000f15c       $unwind$?GetConsoleSizeInfo@@YAXPEAUCONSOLE_INFO@@@Z 000000018004215c     common-user64:WConsoleEx.obj
 0002:0000f16c       $unwind$?SetConsoleFontSizeTo@@YAXPEAUHWND__@@HHPEB_WGG@Z 000000018004216c     common-user64:WConsoleEx.obj
 0002:0000f18c       $unwind$?UpdateComspec@@YAXPEAUConEmuComspec@@_N@Z 000000018004218c     common-user64:WUser.obj
 0002:0000f1a4       $unwind$?write_string@?$string_output_adapter@D@__crt_stdio_output@@QEBAXQEBDHQEAHAEAV__crt_deferred_errno_cache@@@Z 00000001800421a4     libucrt:output.obj
 0002:0000f1a4       $unwind$?SetEnvVarExpanded@@YAXPEB_W0@Z 00000001800421a4     common-user64:WUser.obj
 0002:0000f1c0       $xdatasym                  00000001800421c0     LIBCMT:amdsecgs.obj
 0002:0000f1c8       $xdatasym                  00000001800421c8     LIBCMT:chkstk.obj
 0002:0000f1d0       $unwind$?dllmain_crt_process_attach@@YAHQEAUHINSTANCE__@@QEAX@Z 00000001800421d0     LIBCMT:dll_dllmain.obj
 0002:0000f20c       $unwind$?dllmain_crt_process_detach@@YAH_N@Z 000000018004220c     LIBCMT:dll_dllmain.obj
 0002:0000f260       $unwind$?dllmain_dispatch@@YAHQEAUHINSTANCE__@@KQEAX@Z 0000000180042260     LIBCMT:dll_dllmain.obj
 0002:0000f288       $unwind$?filt$0@?0??dllmain_dispatch@@YAHQEAUHINSTANCE__@@KQEAX@Z@4HA 0000000180042288     LIBCMT:dll_dllmain.obj
 0002:0000f288       $unwind$?filt$0@?0??FrameUnwindToState@__FrameHandler4@@SAXPEA_KPEAU_xDISPATCHER_CONTEXT@@PEAUFuncInfo4@FH4@@H@Z@4HA 0000000180042288     libvcruntime:frame.obj
 0002:0000f288       $unwind$?fin$1@?0??FrameUnwindToState@__FrameHandler4@@SAXPEA_KPEAU_xDISPATCHER_CONTEXT@@PEAUFuncInfo4@FH4@@H@Z@4HA 0000000180042288     libvcruntime:frame.obj
 0002:0000f290       $unwind$__scrt_is_nonwritable_in_current_image 0000000180042290     LIBCMT:utility.obj
 0002:0000f2b0       $unwind$__scrt_is_nonwritable_in_current_image$filt$0 00000001800422b0     LIBCMT:utility.obj
 0002:0000f2b8       $unwind$__report_securityfailure 00000001800422b8     LIBCMT:gs_report.obj
 0002:0000f2c0       $unwind$__report_gsfailure 00000001800422c0     LIBCMT:gs_report.obj
 0002:0000f2c8       $unwind$capture_current_context 00000001800422c8     LIBCMT:gs_report.obj
 0002:0000f2d4       $unwind$capture_previous_context 00000001800422d4     LIBCMT:gs_report.obj
 0002:0000f2e0       $unwind$__scrt_fastfail    00000001800422e0     LIBCMT:utility_desktop.obj
 0002:0000f2f0       $unwind$__security_init_cookie 00000001800422f0     LIBCMT:gs_support.obj
 0002:0000f2fc       $unwind$__isa_available_init 00000001800422fc     LIBCMT:cpu_disp.obj
 0002:0000f310       $xdatasym                  0000000180042310     LIBCMT:guard_dispatch.obj
 0002:0000f318       $xdatasym                  0000000180042318     LIBCMT:guard_xfg_dispatch.obj
 0002:0000f31c       $unwind$?DecompFuncInfo@FH4@@YA_JPEAEAEAUFuncInfo4@1@_KH_N@Z 000000018004231c     libvcruntime:risctrnsctrl.obj
 0002:0000f334       $unwind$?UnwindNestedFrames@__FrameHandler4@@SAXPEA_KPEAUEHExceptionRecord@@PEAU_CONTEXT@@0PEAXPEAUFuncInfo4@FH4@@HHPEAUHandlerType4@5@PEAU_xDISPATCHER_CONTEXT@@E@Z 0000000180042334     libvcruntime:risctrnsctrl.obj
 0002:0000f348       $unwind$?GetRangeOfTrysToCheck@__FrameHandler4@@SA?AU?$pair@Viterator@TryBlockMap4@FH4@@V123@@std@@AEAVTryBlockMap4@FH4@@HPEAU_xDISPATCHER_CONTEXT@@PEAUFuncInfo4@5@H@Z 0000000180042348     libvcruntime:risctrnsctrl.obj
 0002:0000f364       $unwind$__CxxFrameHandler4 0000000180042364     libvcruntime:risctrnsctrl.obj
 0002:0000f378       $unwind$??$_CallSETranslator@V__FrameHandler4@@@@YAHPEAUEHExceptionRecord@@PEA_KPEAU_CONTEXT@@PEAU_xDISPATCHER_CONTEXT@@PEAUFuncInfo4@FH4@@K1H@Z 0000000180042378     libvcruntime:risctrnsctrl.obj
 0002:0000f398       $unwind$?filt$0@?0???$_CallSETranslator@V__FrameHandler4@@@@YAHPEAUEHExceptionRecord@@PEA_KPEAU_CONTEXT@@PEAU_xDISPATCHER_CONTEXT@@PEAUFuncInfo4@FH4@@K1H@Z@4HA 0000000180042398     libvcruntime:risctrnsctrl.obj
 0002:0000f3a8       $xdatasym                  00000001800423a8     libvcruntime:memcpy.obj
 0002:0000f3b8       $unwind$wcsstr             00000001800423b8     libvcruntime:wcsstr.obj
 0002:0000f3c8       $xdatasym                  00000001800423c8     libvcruntime:memset.obj
 0002:0000f3d8       $unwind$__DestructExceptionObject 00000001800423d8     libvcruntime:ehhelpers.obj
 0002:0000f3f8       $unwind$__DestructExceptionObject$filt$0 00000001800423f8     libvcruntime:ehhelpers.obj
 0002:0000f3f8       $unwind$?fin$1@?0??CxxCallCatchBlock@__FrameHandler4@@SAPEAXPEAU_EXCEPTION_RECORD@@@Z@4HA 00000001800423f8     libvcruntime:frame.obj
 0002:0000f404       $unwind$__std_exception_copy 0000000180042404     libvcruntime:std_exception.obj
 0002:0000f404       $unwind$_free_osfhnd       0000000180042404     libucrt:osfinfo.obj
 0002:0000f418       $unwind$_CxxThrowException 0000000180042418     libvcruntime:throw.obj
 0002:0000f428       $xdatasym                  0000000180042428     libvcruntime:memcmp.obj
 0002:0000f42c       $unwind$?StateFromIp@__FrameHandler4@@SAHPEAUFuncInfo4@FH4@@PEAU_xDISPATCHER_CONTEXT@@_K@Z 000000018004242c     libvcruntime:ehstate.obj
 0002:0000f440       $unwind$?getStartStop@UWMap4@FH4@@QEAAXHHAEAViterator@12@0@Z 0000000180042440     libvcruntime:frame.obj
 0002:0000f458       $unwind$?FrameUnwindToState@__FrameHandler4@@SAXPEA_KPEAU_xDISPATCHER_CONTEXT@@PEAUFuncInfo4@FH4@@H@Z 0000000180042458     libvcruntime:frame.obj
 0002:0000f4a0       $unwind$?CxxCallCatchBlock@__FrameHandler4@@SAPEAXPEAU_EXCEPTION_RECORD@@@Z 00000001800424a0     libvcruntime:frame.obj
 0002:0000f4fc       $unwind$?IsInExceptionSpec@@YAEPEAUEHExceptionRecord@@PEBU_s_ESTypeList@@@Z 00000001800424fc     libvcruntime:frame.obj
 0002:0000f518       $unwind$??$__InternalCxxFrameHandler@V__FrameHandler4@@@@YA?AW4_EXCEPTION_DISPOSITION@@PEAUEHExceptionRecord@@PEA_KPEAU_CONTEXT@@PEAU_xDISPATCHER_CONTEXT@@PEAUFuncInfo4@FH4@@H1E@Z 0000000180042518     libvcruntime:frame.obj
 0002:0000f530       $unwind$??$BuildCatchObjectHelperInternal@V__FrameHandler4@@@@YAHPEAUEHExceptionRecord@@PEAXPEAUHandlerType4@FH4@@PEBU_s_CatchableType@@@Z 0000000180042530     libvcruntime:frame.obj
 0002:0000f570       $unwind$??$BuildCatchObjectInternal@V__FrameHandler4@@@@YAXPEAUEHExceptionRecord@@PEAXPEAUHandlerType4@FH4@@PEBU_s_CatchableType@@@Z 0000000180042570     libvcruntime:frame.obj
 0002:0000f59c       $unwind$??$FindHandler@V__FrameHandler4@@@@YAXPEAUEHExceptionRecord@@PEA_KPEAU_CONTEXT@@PEAU_xDISPATCHER_CONTEXT@@PEAUFuncInfo4@FH4@@EH1@Z 000000018004259c     libvcruntime:frame.obj
 0002:0000f5bc       $unwind$??$CatchIt@V__FrameHandler4@@@@YAXPEAUEHExceptionRecord@@PEA_KPEAU_CONTEXT@@PEAU_xDISPATCHER_CONTEXT@@PEAUFuncInfo4@FH4@@PEAUHandlerType4@4@PEBU_s_CatchableType@@PEAUTryBlockMapEntry4@4@H1EE@Z 00000001800425bc     libvcruntime:frame.obj
 0002:0000f5d4       $unwind$??$FindHandlerForForeignException@V__FrameHandler4@@@@YAXPEAUEHExceptionRecord@@PEA_KPEAU_CONTEXT@@PEAU_xDISPATCHER_CONTEXT@@PEAUFuncInfo4@FH4@@HH1@Z 00000001800425d4     libvcruntime:frame.obj
 0002:0000f5f8       $xdatasym                  00000001800425f8     libvcruntime:notify.obj
 0002:0000f608       $xdatasym                  0000000180042608     libvcruntime:handlers.obj
 0002:0000f628       $unwind$??$common_vsprintf@Vstandard_base@__crt_stdio_output@@D@@YAH_KQEAD0QEBDQEAU__crt_locale_pointers@@1@Z 0000000180042628     libucrt:output.obj
 0002:0000f628       $unwind$??$common_vsprintf@Vstandard_base@__crt_stdio_output@@_W@@YAH_KQEA_W0QEB_WQEAU__crt_locale_pointers@@QEAD@Z 0000000180042628     libucrt:output.obj
 0002:0000f648       $unwind$?process@?$output_processor@DV?$string_output_adapter@D@__crt_stdio_output@@V?$standard_base@DV?$string_output_adapter@D@__crt_stdio_output@@@2@@__crt_stdio_output@@QEAAHXZ 0000000180042648     libucrt:output.obj
 0002:0000f658       $unwind$?parse_int_from_format_string@?$output_processor@DV?$string_output_adapter@D@__crt_stdio_output@@V?$standard_base@DV?$string_output_adapter@D@__crt_stdio_output@@@2@@__crt_stdio_output@@AEAA_NQEAH@Z 0000000180042658     libucrt:output.obj
 0002:0000f66c       $unwind$?state_case_type@?$output_processor@DV?$string_output_adapter@D@__crt_stdio_output@@V?$standard_base@DV?$string_output_adapter@D@__crt_stdio_output@@@2@@__crt_stdio_output@@AEAA_NXZ 000000018004266c     libucrt:output.obj
 0002:0000f684       $unwind$?write_stored_string_tchar@?$output_processor@DV?$string_output_adapter@D@__crt_stdio_output@@V?$standard_base@DV?$string_output_adapter@D@__crt_stdio_output@@@2@@__crt_stdio_output@@AEAA_ND@Z 0000000180042684     libucrt:output.obj
 0002:0000f69c       $unwind$?write_string@?$string_output_adapter@_W@__crt_stdio_output@@QEBAXQEB_WHQEAHAEAV__crt_deferred_errno_cache@@@Z 000000018004269c     libucrt:output.obj
 0002:0000f6b4       $unwind$?parse_int_from_format_string@?$output_processor@_WV?$string_output_adapter@_W@__crt_stdio_output@@V?$standard_base@_WV?$string_output_adapter@_W@__crt_stdio_output@@@2@@__crt_stdio_output@@AEAA_NQEAH@Z 00000001800426b4     libucrt:output.obj
 0002:0000f6c8       $unwind$?state_case_type@?$output_processor@_WV?$string_output_adapter@_W@__crt_stdio_output@@V?$standard_base@_WV?$string_output_adapter@_W@__crt_stdio_output@@@2@@__crt_stdio_output@@AEAA_NXZ 00000001800426c8     libucrt:output.obj
 0002:0000f6ec       $unwind$?type_case_c_tchar@?$output_processor@_WV?$string_output_adapter@_W@__crt_stdio_output@@V?$standard_base@_WV?$string_output_adapter@_W@__crt_stdio_output@@@2@@__crt_stdio_output@@AEAA_N_W@Z 00000001800426ec     libucrt:output.obj
 0002:0000f6fc       $unwind$?type_case_a@?$output_processor@_WV?$string_output_adapter@_W@__crt_stdio_output@@V?$standard_base@_WV?$string_output_adapter@_W@__crt_stdio_output@@@2@@__crt_stdio_output@@AEAA_NXZ 00000001800426fc     libucrt:output.obj
 0002:0000f70c       $unwind$??$write_multiple_characters@V?$string_output_adapter@D@__crt_stdio_output@@D@__crt_stdio_output@@YAXAEBV?$string_output_adapter@D@0@DHQEAH@Z 000000018004270c     libucrt:output.obj
 0002:0000f70c       $unwind$??$write_multiple_characters@V?$string_output_adapter@_W@__crt_stdio_output@@D@__crt_stdio_output@@YAXAEBV?$string_output_adapter@_W@0@DHQEAH@Z 000000018004270c     libucrt:output.obj
 0002:0000f718       $unwind$??$parse_integer@KV?$c_string_character_source@D@__crt_strtox@@@__crt_strtox@@YAKQEAU__crt_locale_pointers@@V?$c_string_character_source@D@0@H_N@Z 0000000180042718     libucrt:strtox.obj
 0002:0000f734       $unwind$??$parse_integer@KV?$c_string_character_source@_W@__crt_strtox@@@__crt_strtox@@YAKQEAU__crt_locale_pointers@@V?$c_string_character_source@_W@0@H_N@Z 0000000180042734     libucrt:strtox.obj
 0002:0000f74c       $unwind$__acrt_call_reportfault 000000018004274c     libucrt:invalid_parameter.obj
 0002:0000f76c       $unwind$?common_exit@@YAXHW4_crt_exit_cleanup_mode@@W4_crt_exit_return_mode@@@Z 000000018004276c     libucrt:exit.obj
 0002:0000f778       $unwind$??R<lambda_6e4b09c48022b2350581041d5f6b0c4c>@@QEBA@XZ 0000000180042778     libucrt:exit.obj
 0002:0000f798       $unwind$??$?RV<lambda_d80eeec6fff315bfe5c115232f3240e3>@@AEAV<lambda_6e4b09c48022b2350581041d5f6b0c4c>@@V<lambda_2358e3775559c9db80273638284d5e45>@@@?$__crt_seh_guarded_call@X@@QEAAX$$QEAV<lambda_d80eeec6fff315bfe5c115232f3240e3>@@AEAV<lambda_6e4b09c48022b2350581041d5f6b0c4c>@@$$QEAV<lambda_2358e3775559c9db80273638284d5e45>@@@Z 0000000180042798     libucrt:exit.obj
 0002:0000f7bc       $unwind$_configure_narrow_argv 00000001800427bc     libucrt:argv_parsing.obj
 0002:0000f7d0       $unwind$_register_onexit_function 00000001800427d0     libucrt:onexit.obj
 0002:0000f7d8       $unwind$_execute_onexit_table 00000001800427d8     libucrt:onexit.obj
 0002:0000f7e0       $unwind$??R<lambda_22ebabd17bc4fa466a2aca6d8deb888d>@@QEBAHXZ 00000001800427e0     libucrt:onexit.obj
 0002:0000f7f8       $unwind$__acrt_fp_strflt_to_string 00000001800427f8     libucrt:_fptostr.obj
 0002:0000f7f8       $unwind$__acrt_DownlevelLocaleNameToLCID 00000001800427f8     libucrt:lcidtoname_downlevel.obj
 0002:0000f7f8       $unwind$??R<lambda_f03950bc5685219e0bcd2087efbe011e>@@QEBAHXZ 00000001800427f8     libucrt:onexit.obj
 0002:0000f810       $unwind$??$?RV<lambda_638799b9deba96c50f710eeac98168cd>@@AEAV<lambda_22ebabd17bc4fa466a2aca6d8deb888d>@@V<lambda_a6f7d7db0129f75315ebf26d50c089f1>@@@?$__crt_seh_guarded_call@H@@QEAAH$$QEAV<lambda_638799b9deba96c50f710eeac98168cd>@@AEAV<lambda_22ebabd17bc4fa466a2aca6d8deb888d>@@$$QEAV<lambda_a6f7d7db0129f75315ebf26d50c089f1>@@@Z 0000000180042810     libucrt:onexit.obj
 0002:0000f834       $unwind$??$?RV<lambda_7777bce6b2f8c936911f934f8298dc43>@@AEAV<lambda_f03950bc5685219e0bcd2087efbe011e>@@V<lambda_3883c3dff614d5e0c5f61bb1ac94921c>@@@?$__crt_seh_guarded_call@H@@QEAAH$$QEAV<lambda_7777bce6b2f8c936911f934f8298dc43>@@AEAV<lambda_f03950bc5685219e0bcd2087efbe011e>@@$$QEAV<lambda_3883c3dff614d5e0c5f61bb1ac94921c>@@@Z 0000000180042834     libucrt:onexit.obj
 0002:0000f858       $unwind$terminate          0000000180042858     libucrt:terminate.obj
 0002:0000f878       $xdatasym                  0000000180042878     libucrt:strncmp.obj
 0002:0000f87c       $unwind$_free_base         000000018004287c     libucrt:free_base.obj
 0002:0000f87c       $unwind$?destroy_fls@@YAXPEAX@Z 000000018004287c     libucrt:per_thread_data.obj
 0002:0000f87c       $unwind$__acrt_locale_free_numeric 000000018004287c     libucrt:initnum.obj
 0002:0000f87c       $unwind$__acrt_locale_free_lc_time_if_unreferenced 000000018004287c     libucrt:locale_refcounting.obj
 0002:0000f884       $unwind$?fp_format_e@@YAHQEBNQEAD_K12H_NIQEAU__crt_locale_pointers@@W4__acrt_rounding_mode@@@Z 0000000180042884     libucrt:cvt.obj
 0002:0000f884       $unwind$_mbtowc_l          0000000180042884     libucrt:mbtowc.obj
 0002:0000f884       $unwind$__acrt_LCMapStringEx 0000000180042884     libucrt:winapi_thunks.obj
 0002:0000f898       $unwind$_wctomb_s_l        0000000180042898     libucrt:wctomb.obj
 0002:0000f8a8       $unwind$?construct_ptd_array@@YAXQEAU__acrt_ptd@@@Z 00000001800428a8     libucrt:per_thread_data.obj
 0002:0000f8b0       $unwind$?destroy_ptd_array@@YAXQEAU__acrt_ptd@@@Z 00000001800428b0     libucrt:per_thread_data.obj
 0002:0000f8b8       $unwind$??$?RV<lambda_0ae27a3a962d80f24befdcbee591983d>@@AEAV<lambda_8d0ee55de4b1038c4002e0adecdf1839>@@V<lambda_dc504788e8f1664fe9b84e20bfb512f2>@@@?$__crt_seh_guarded_call@X@@QEAAX$$QEAV<lambda_0ae27a3a962d80f24befdcbee591983d>@@AEAV<lambda_8d0ee55de4b1038c4002e0adecdf1839>@@$$QEAV<lambda_dc504788e8f1664fe9b84e20bfb512f2>@@@Z 00000001800428b8     libucrt:per_thread_data.obj
 0002:0000f8dc       $unwind$??$?RV<lambda_aa87e3671a710a21b5dc78c0bdf72e11>@@AEAV<lambda_92619d2358a28f41a33ba319515a20b9>@@V<lambda_6992ecaafeb10aed2b74cb1fae11a551>@@@?$__crt_seh_guarded_call@X@@QEAAX$$QEAV<lambda_aa87e3671a710a21b5dc78c0bdf72e11>@@AEAV<lambda_92619d2358a28f41a33ba319515a20b9>@@$$QEAV<lambda_6992ecaafeb10aed2b74cb1fae11a551>@@@Z 00000001800428dc     libucrt:per_thread_data.obj
 0002:0000f900       $unwind$??$?RV<lambda_f2e299630e499de9f9a165e60fcd3db5>@@AEAV<lambda_2ae9d31cdba2644fcbeaf08da7c24588>@@V<lambda_40d01ff24d0e7b3814fdbdcee8eab3c7>@@@?$__crt_seh_guarded_call@X@@QEAAX$$QEAV<lambda_f2e299630e499de9f9a165e60fcd3db5>@@AEAV<lambda_2ae9d31cdba2644fcbeaf08da7c24588>@@$$QEAV<lambda_40d01ff24d0e7b3814fdbdcee8eab3c7>@@@Z 0000000180042900     libucrt:per_thread_data.obj
 0002:0000f924       $unwind$??$?RV<lambda_2d41944a1d46af3157314b8a01080d33>@@AEAV<lambda_8f455de75cd7d7f24b4096f044d8b9e6>@@V<lambda_aa500f224e6afead328df44964fe2772>@@@?$__crt_seh_guarded_call@X@@QEAAX$$QEAV<lambda_2d41944a1d46af3157314b8a01080d33>@@AEAV<lambda_8f455de75cd7d7f24b4096f044d8b9e6>@@$$QEAV<lambda_aa500f224e6afead328df44964fe2772>@@@Z 0000000180042924     libucrt:per_thread_data.obj
 0002:0000f948       $unwind$__acrt_fp_format   0000000180042948     libucrt:cvt.obj
 0002:0000f960       $unwind$?fp_format_e_internal@@YAHQEAD_KH_NIQEAU_strflt@@2QEAU__crt_locale_pointers@@@Z 0000000180042960     libucrt:cvt.obj
 0002:0000f978       $unwind$?fp_format_a@@YAHQEBNPEAD_KQEAD2H_NIQEAU__crt_locale_pointers@@W4__acrt_rounding_mode@@@Z 0000000180042978     libucrt:cvt.obj
 0002:0000f994       $unwind$__dcrt_get_narrow_environment_from_os 0000000180042994     libucrt:get_environment_from_os.obj
 0002:0000f994       $unwind$?fp_format_f_internal@@YAHQEAD_KHQEAU_strflt@@_NQEAU__crt_locale_pointers@@@Z 0000000180042994     libucrt:cvt.obj
 0002:0000f994       $unwind$??$__acrt_wcs_to_mbs_cp@U__crt_win32_buffer_internal_dynamic_resizing@@@@YAHQEB_WAEAV?$__crt_win32_buffer@DU__crt_win32_buffer_internal_dynamic_resizing@@@@I@Z 0000000180042994     libucrt:argv_wildcards.obj
 0002:0000f9ac       $unwind$?fp_format_g@@YAHQEBNQEAD_K12H_NIQEAU__crt_locale_pointers@@@Z 00000001800429ac     libucrt:cvt.obj
 0002:0000f9c0       $unwind$__acrt_uninitialize_locale 00000001800429c0     libucrt:wsetlocale.obj
 0002:0000f9c0       $unwind$__acrt_get_sigabrt_handler 00000001800429c0     libucrt:signal.obj
 0002:0000f9c8       $unwind$??$?RV<lambda_410d79af7f07d98d83a3f525b3859a53>@@AEAV<lambda_3e16ef9562a7dcce91392c22ab16ea36>@@V<lambda_38119f0e861e05405d8a144b9b982f0a>@@@?$__crt_seh_guarded_call@X@@QEAAX$$QEAV<lambda_410d79af7f07d98d83a3f525b3859a53>@@AEAV<lambda_3e16ef9562a7dcce91392c22ab16ea36>@@$$QEAV<lambda_38119f0e861e05405d8a144b9b982f0a>@@@Z 00000001800429c8     libucrt:wsetlocale.obj
 0002:0000f9f0       $unwind$__acrt_initialize_lowio 00000001800429f0     libucrt:ioinit.obj
 0002:0000fa10       $unwind$?initialize_inherited_file_handles_nolock@@YAXXZ 0000000180042a10     libucrt:ioinit.obj
 0002:0000fa2c       $unwind$_isctype_l         0000000180042a2c     libucrt:isctype.obj
 0002:0000fa48       $unwind$??$common_expand_argv_wildcards@D@@YAHQEAPEADQEAPEAPEAD@Z 0000000180042a48     libucrt:argv_wildcards.obj
 0002:0000fa60       $unwind$??$copy_and_add_argument_to_buffer@D@@YAHQEBD0_KAEAV?$argument_list@D@?A0x5f5c8891@@@Z 0000000180042a60     libucrt:argv_wildcards.obj
 0002:0000fa7c       $unwind$??$expand_argument_wildcards@D@@YAHQEAD0AEAV?$argument_list@D@?A0x5f5c8891@@@Z 0000000180042a7c     libucrt:argv_wildcards.obj
 0002:0000faa0       $unwind$__acrt_GetModuleFileNameA 0000000180042aa0     libucrt:getmodulefilenamea.obj
 0002:0000fabc       $unwind$__dcrt_write_console 0000000180042abc     libucrt:initcon.obj
 0002:0000fabc       $unwind$??$__acrt_wcs_to_mbs_cp@U__crt_win32_buffer_no_resizing@@@@YAHQEB_WAEAV?$__crt_win32_buffer@DU__crt_win32_buffer_no_resizing@@@@I@Z 0000000180042abc     libucrt:getmodulefilenamea.obj
 0002:0000fad0       $unwind$_setmbcp_nolock    0000000180042ad0     libucrt:mbctype.obj
 0002:0000faf0       $unwind$?update_thread_multibyte_data_internal@@YAPEAU__crt_multibyte_data@@QEAU__acrt_ptd@@QEAPEAU1@@Z 0000000180042af0     libucrt:mbctype.obj
 0002:0000fb18       $unwind$?setmbcp_internal@@YAHH_NQEAU__acrt_ptd@@QEAPEAU__crt_multibyte_data@@@Z 0000000180042b18     libucrt:mbctype.obj
 0002:0000fb28       $unwind$?setSBUpLow@@YAXPEAU__crt_multibyte_data@@@Z 0000000180042b28     libucrt:mbctype.obj
 0002:0000fb44       $unwind$??$?RV<lambda_efdfa57d1f175319df784efa44bb7b81>@@AEAV<lambda_5f0a4c1567f8adc6734073e5d1e1b35c>@@V<lambda_2e8a7d3640ea6ccb4c2413664c2db6fd>@@@?$__crt_seh_guarded_call@X@@QEAAX$$QEAV<lambda_efdfa57d1f175319df784efa44bb7b81>@@AEAV<lambda_5f0a4c1567f8adc6734073e5d1e1b35c>@@$$QEAV<lambda_2e8a7d3640ea6ccb4c2413664c2db6fd>@@@Z 0000000180042b44     libucrt:mbctype.obj
 0002:0000fb68       $unwind$__acrt_WideCharToMultiByte 0000000180042b68     libucrt:widechartomultibyte.obj
 0002:0000fb74       $unwind$__acrt_initialize_winapi_thunks 0000000180042b74     libucrt:winapi_thunks.obj
 0002:0000fb7c       $unwind$_query_new_handler 0000000180042b7c     libucrt:new_handler.obj
 0002:0000fb9c       $unwind$raise              0000000180042b9c     libucrt:signal.obj
 0002:0000fbd8       $unwind$??$?RV<lambda_450d765d439847d4c735a33c368b5fc0>@@AEAV<lambda_44731a7d0e6d81c3e6aa82d741081786>@@V<lambda_601a2a7da3b7a96e9554ac7215c4b07c>@@@?$__crt_seh_guarded_call@P6AXH@Z@@QEAAP6AXH@Z$$QEAV<lambda_450d765d439847d4c735a33c368b5fc0>@@AEAV<lambda_44731a7d0e6d81c3e6aa82d741081786>@@$$QEAV<lambda_601a2a7da3b7a96e9554ac7215c4b07c>@@@Z 0000000180042bd8     libucrt:signal.obj
 0002:0000fbfc       $unwind$?common_flush_all@@YAH_N@Z 0000000180042bfc     libucrt:fflush.obj
 0002:0000fc04       $unwind$??$?RV<lambda_842d9ff0dc9ef11c61343bbaebe7f885>@@AEAV<lambda_c5860995281e5c4ce005b3de8f5874ee>@@V<lambda_d90129c13df834fdcbf8d2b88dafcf2d>@@@?$__crt_seh_guarded_call@X@@QEAAX$$QEAV<lambda_842d9ff0dc9ef11c61343bbaebe7f885>@@AEAV<lambda_c5860995281e5c4ce005b3de8f5874ee>@@$$QEAV<lambda_d90129c13df834fdcbf8d2b88dafcf2d>@@@Z 0000000180042c04     libucrt:fflush.obj
 0002:0000fc28       $unwind$??$?RV<lambda_886d6c58226a84441f68b9f2b8217b83>@@AEAV<lambda_ab61a845afdef5b7c387490eaf3616ee>@@V<lambda_f7f22ab5edc0698d5f6905b0d3f44752>@@@?$__crt_seh_guarded_call@X@@QEAAX$$QEAV<lambda_886d6c58226a84441f68b9f2b8217b83>@@AEAV<lambda_ab61a845afdef5b7c387490eaf3616ee>@@$$QEAV<lambda_f7f22ab5edc0698d5f6905b0d3f44752>@@@Z 0000000180042c28     libucrt:fflush.obj
 0002:0000fc50       $unwind$?__mbsrtowcs_utf8@__crt_mbstring@@YA_KPEA_WPEAPEBD_KPEAU_Mbstatet@@@Z 0000000180042c50     libucrt:mbrtowc.obj
 0002:0000fc68       $unwind$__acrt_update_thread_locale_data 0000000180042c68     libucrt:locale_refcounting.obj
 0002:0000fc8c       $unwind$__acrt_fltout      0000000180042c8c     libucrt:cfout.obj
 0002:0000fcac       $unwind$?divide@__crt_strtox@@YA_KAEAUbig_integer@1@AEBU21@@Z 0000000180042cac     libucrt:cfout.obj
 0002:0000fcc4       $chain$0$?divide@__crt_strtox@@YA_KAEAUbig_integer@1@AEBU21@@Z 0000000180042cc4     libucrt:cfout.obj
 0002:0000fcd8       $chain$1$?divide@__crt_strtox@@YA_KAEAUbig_integer@1@AEBU21@@Z 0000000180042cd8     libucrt:cfout.obj
 0002:0000fce8       $unwind$_fcloseall         0000000180042ce8     libucrt:closeall.obj
 0002:0000fd0c       $unwind$__acrt_locale_free_monetary 0000000180042d0c     libucrt:initmon.obj
 0002:0000fd14       $unwind$__acrt_locale_free_time 0000000180042d14     libucrt:inittime.obj
 0002:0000fd24       $unwind$__acrt_GetStringTypeA 0000000180042d24     libucrt:getstringtypea.obj
 0002:0000fd4c       $unwind$__acrt_lowio_destroy_handle_array 0000000180042d4c     libucrt:osfinfo.obj
 0002:0000fd5c       $unwind$__acrt_lowio_ensure_fh_exists 0000000180042d5c     libucrt:osfinfo.obj
 0002:0000fd88       $unwind$qsort              0000000180042d88     libucrt:qsort.obj
 0002:0000fda0       $chain$4$qsort             0000000180042da0     libucrt:qsort.obj
 0002:0000fdc4       $chain$5$qsort             0000000180042dc4     libucrt:qsort.obj
 0002:0000fdd4       $unwind$strpbrk            0000000180042dd4     libucrt:strpbrk.obj
 0002:0000fde4       $unwind$__acrt_LCMapStringA 0000000180042de4     libucrt:lcmapstringa.obj
 0002:0000fdf4       $unwind$?__acrt_LCMapStringA_stat@@YAHPEAU__crt_locale_pointers@@PEB_WKPEBDHPEADHHH@Z 0000000180042df4     libucrt:lcmapstringa.obj
 0002:0000fe1c       $unwind$_close             0000000180042e1c     libucrt:close.obj
 0002:0000fe1c       $unwind$_commit            0000000180042e1c     libucrt:commit.obj
 0002:0000fe24       $unwind$??$?RV<lambda_a37b2b86f63e897a80ea819b0eb08c01>@@AEAV<lambda_38ce7e780aa69e748d6df282ebc68efe>@@V<lambda_99fb1378e971ab6e7edea83e3a7a83a2>@@@?$__crt_seh_guarded_call@H@@QEAAH$$QEAV<lambda_a37b2b86f63e897a80ea819b0eb08c01>@@AEAV<lambda_38ce7e780aa69e748d6df282ebc68efe>@@$$QEAV<lambda_99fb1378e971ab6e7edea83e3a7a83a2>@@@Z 0000000180042e24     libucrt:commit.obj
 0002:0000fe48       $unwind$_write             0000000180042e48     libucrt:write.obj
 0002:0000fe78       $unwind$_write_nolock      0000000180042e78     libucrt:write.obj
 0002:0000fe90       $unwind$?write_double_translated_ansi_nolock@@YA?AUwrite_result@?A0x17268360@@HQEBDI@Z 0000000180042e90     libucrt:write.obj
 0002:0000feb4       $unwind$?write_text_ansi_nolock@@YA?AUwrite_result@?A0x17268360@@HQEBDI@Z 0000000180042eb4     libucrt:write.obj
 0002:0000feb4       $unwind$?write_text_utf16le_nolock@@YA?AUwrite_result@?A0x17268360@@HQEBDI@Z 0000000180042eb4     libucrt:write.obj
 0002:0000fed4       $unwind$?write_text_utf8_nolock@@YA?AUwrite_result@?A0x17268360@@HQEBDI@Z 0000000180042ed4     libucrt:write.obj
 0002:0000fef8       $unwind$?__mbrtoc32_utf8@__crt_mbstring@@YA_KPEA_UPEBD_KPEAU_Mbstatet@@@Z 0000000180042ef8     libucrt:mbrtoc32.obj
 0002:0000ff18       $xdatasym                  0000000180042f18     libucrt:log10.obj
 0002:0000ff24       $unwind$__acrt_fenv_set_control 0000000180042f24     libucrt:_fenvutils.obj
 0002:0000ff34       $unwind$fclose             0000000180042f34     libucrt:fclose.obj
 0002:0000ff58       $unwind$common_control87   0000000180042f58     libucrt:ieee.obj
 0002:0000ff84       $unwind$_handle_error      0000000180042f84     libucrt:libm_error.obj
 0002:0000ffa4       $unwind$__acrt_initialize_fma3 0000000180042fa4     libucrt:fma3_available.obj
 0002:0000ffac       $unwind$_log_special_common 0000000180042fac     libucrt:log_special.obj
 0002:0000ffb8       $unwind$??$?RV<lambda_751a882b2c74d4b022dec766aa51a29a>@@AEAV<lambda_628dfdc04ba53c8bfc02c9951375f3f5>@@V<lambda_f6c7be5f7998530c34de24c7437d6b54>@@@?$__crt_seh_guarded_call@H@@QEAAH$$QEAV<lambda_751a882b2c74d4b022dec766aa51a29a>@@AEAV<lambda_628dfdc04ba53c8bfc02c9951375f3f5>@@$$QEAV<lambda_f6c7be5f7998530c34de24c7437d6b54>@@@Z 0000000180042fb8     libucrt:close.obj
 0002:0000ffe0       $xdatasym                  0000000180042fe0     libucrt:fpsr.obj
 0002:0000ffe8       $unwind$_raise_exc_ex      0000000180042fe8     libucrt:fpexcept.obj
 0002:0000fffc       $unwind$_ctrlfp            0000000180042ffc     libucrt:fpctrl.obj
 0002:00010024       $unwind$?apiGetConsoleFontSize@@YAHPEAXAEAH1AEAY0CA@_W@Z 0000000180043024     common-kernel64:WConsole.obj
 0002:00010040       $unwind$?apiSetConsoleFontSize@@YAHPEAXHHPEB_W@Z 0000000180043040     common-kernel64:WConsole.obj
 0002:0001005c       $unwind$_IsNonwritableInCurrentImage 000000018004305c     LIBCMT:pesect.obj
 0002:000102e0       .edata                     00000001800432e0     ConEmu.x64.exp
 0002:00010308       rgpv                       0000000180043308     ConEmu.x64.exp
 0002:00010374       rgszName                   0000000180043374     ConEmu.x64.exp
 0002:000103e0       rgwOrd                     00000001800433e0     ConEmu.x64.exp
 0002:00010416       szName                     0000000180043416     ConEmu.x64.exp
 0002:00010425       $N00001                    0000000180043425     ConEmu.x64.exp
 0002:00010435       $N00002                    0000000180043435     ConEmu.x64.exp
 0002:0001043d       $N00003                    000000018004343d     ConEmu.x64.exp
 0002:00010449       $N00004                    0000000180043449     ConEmu.x64.exp
 0002:00010454       $N00005                    0000000180043454     ConEmu.x64.exp
 0002:00010462       $N00006                    0000000180043462     ConEmu.x64.exp
 0002:00010473       $N00007                    0000000180043473     ConEmu.x64.exp
 0002:00010481       $N00008                    0000000180043481     ConEmu.x64.exp
 0002:00010490       $N00009                    0000000180043490     ConEmu.x64.exp
 0002:000104a0       $N00010                    00000001800434a0     ConEmu.x64.exp
 0002:000104ab       $N00011                    00000001800434ab     ConEmu.x64.exp
 0002:000104b1       $N00012                    00000001800434b1     ConEmu.x64.exp
 0002:000104c4       $N00013                    00000001800434c4     ConEmu.x64.exp
 0002:000104d7       $N00014                    00000001800434d7     ConEmu.x64.exp
 0002:000104ea       $N00015                    00000001800434ea     ConEmu.x64.exp
 0002:000104fd       $N00016                    00000001800434fd     ConEmu.x64.exp
 0002:0001050f       $N00017                    000000018004350f     ConEmu.x64.exp
 0002:0001051e       $N00018                    000000018004351e     ConEmu.x64.exp
 0002:0001052a       $N00019                    000000018004352a     ConEmu.x64.exp
 0002:00010533       $N00020                    0000000180043533     ConEmu.x64.exp
 0002:00010542       $N00021                    0000000180043542     ConEmu.x64.exp
 0002:00010554       $N00022                    0000000180043554     ConEmu.x64.exp
 0002:00010560       $N00023                    0000000180043560     ConEmu.x64.exp
 0002:00010574       $N00024                    0000000180043574     ConEmu.x64.exp
 0002:00010588       $N00025                    0000000180043588     ConEmu.x64.exp
 0002:0001059d       $N00026                    000000018004359d     ConEmu.x64.exp
 0002:000105b1       $N00027                    00000001800435b1     ConEmu.x64.exp
 0002:00010ce2       .idata$6                   0000000180043ce2     version:VERSION.dll
 0002:0001121c       .idata$6                   000000018004421c     kernel32:KERNEL32.dll
 0002:0001132a       .idata$6                   000000018004432a     user32:USER32.dll
 0002:000113ca       .idata$6                   00000001800443ca     gdi32:GDI32.dll
 0002:00011406       .idata$6                   0000000180044406     advapi32:ADVAPI32.dll
 0003:00000140       ?rc@?CE@??Open@CPluginW2800@@UEAAPEAXPEBX@Z@4UFarMacroCall@@A 0000000180045140     ConEmuPlugin2800.obj
 0003:00000168       ?val@?CE@??Open@CPluginW2800@@UEAAPEAXPEBX@Z@4UFarMacroValue@@A 0000000180045168     ConEmuPlugin2800.obj
 0003:000002c0       ?__vcrt_flsindex@@3KA      00000001800452c0     libvcruntime:per_thread_data.obj
 0003:000002d0       ?errno_no_memory@@3HA      00000001800452d0     libucrt:errno.obj
 0003:000002d4       ?doserrno_no_memory@@3KA   00000001800452d4     libucrt:errno.obj
 0003:000002e0       ?__acrt_flsindex@@3KA      00000001800452e0     libucrt:per_thread_data.obj
 0003:000007b0       _mbctypes                  00000001800457b0     libucrt:mbctype.obj
 0003:000008c0       _mbcasemaps                00000001800458c0     libucrt:mbctype.obj
 0003:000009c0       ?__rgctypeflag@@3PADA      00000001800459c0     libucrt:mbctype.obj
 0003:000009d0       ?__rgcode_page_info@@3PAUcode_page_info@@A 00000001800459d0     libucrt:mbctype.obj
 0003:00000c70       ?dazSupported@?1??common_control87@@9@9 0000000180045c70     libucrt:ieee.obj
 0003:00000c80       ?__dcrt_lowio_console_output_handle@@3PEAXEA 0000000180045c80     libucrt:initcon.obj
 0003:00000c90       ?dazSupported@?1??_ctrlfp@@9@9 0000000180045c90     libucrt:fpctrl.obj
 0003:00001190       ?store@?M@??GetPanelInfo@CPluginW1900@@UEAA_NKPEAUCEPanelInfo@@@Z@4UPanelInfo@@A 0000000180046190     ConEmuPlugin1900.obj
 0003:00001200       ?szMenu@?1??GetPluginInfoPtr@CPluginW1900@@UEAAXPEAX@Z@4PAPEA_WA 0000000180046200     ConEmuPlugin1900.obj
 0003:00001210       ?szMenu1@?1??GetPluginInfoPtr@CPluginW1900@@UEAAXPEAX@Z@4PA_WA 0000000180046210     ConEmuPlugin1900.obj
 0003:00001410       ?WLastActive@?1??UpdateConEmuTabsApi@CPluginW1900@@UEAA_NH@Z@4UWindowInfo@@A 0000000180046410     ConEmuPlugin1900.obj
 0003:00001458       ?pwList@@3PEAV?$MArray@UWindowInfo@@@@EA 0000000180046458     ConEmuPlugin2800.obj
 0003:00001460       ?store@?M@??GetPanelInfo@CPluginW2800@@UEAA_NKPEAUCEPanelInfo@@@Z@4UPanelInfo@@A 0000000180046460     ConEmuPlugin2800.obj
 0003:000014c8       ?szMenu@?1??GetPluginInfoPtr@CPluginW2800@@UEAAXPEAX@Z@4PAPEA_WA 00000001800464c8     ConEmuPlugin2800.obj
 0003:000014d0       ?szMenu1@?1??GetPluginInfoPtr@CPluginW2800@@UEAAXPEAX@Z@4PA_WA 00000001800464d0     ConEmuPlugin2800.obj
 0003:000016d0       ?WLastActive@?1??UpdateConEmuTabsApi@CPluginW2800@@UEAA_NH@Z@4UWindowInfo@@A 00000001800466d0     ConEmuPlugin2800.obj
 0003:00001728       ?ghSyncDlg@@3PEAXEA        0000000180046728     ConEmuPlugin995.obj
 0003:00001730       ?store@?M@??GetPanelInfo@CPluginW995@@UEAA_NKPEAUCEPanelInfo@@@Z@4UPanelInfo@@A 0000000180046730     ConEmuPlugin995.obj
 0003:00001778       ?szMenu@?1??GetPluginInfoPtr@CPluginW995@@UEAAXPEAX@Z@4PAPEA_WA 0000000180046778     ConEmuPlugin995.obj
 0003:00001780       ?szMenu1@?1??GetPluginInfoPtr@CPluginW995@@UEAAXPEAX@Z@4PA_WA 0000000180046780     ConEmuPlugin995.obj
 0003:00001990       ?store@?M@??GetPanelInfo@CPluginAnsi@@UEAA_NKPEAUCEPanelInfo@@@Z@4UPanelInfo@@A 0000000180046990     ConEmuPluginA.obj
 0003:00001b90       ?szMenu@?1??GetPluginInfoPtr@CPluginAnsi@@UEAAXPEAX@Z@4PAPEADA 0000000180046b90     ConEmuPluginA.obj
 0003:00001ba0       ?szMenu1@?1??GetPluginInfoPtr@CPluginAnsi@@UEAAXPEAX@Z@4PADA 0000000180046ba0     ConEmuPluginA.obj
 0003:00002f1c       ?gbTryOpenMapHeader@@3HA   0000000180047f1c     ConEmuPluginBase.obj
 0003:00002f20       ?gbStartupHooksAfterMap@@3HA 0000000180047f20     ConEmuPluginBase.obj
 0003:00002f24       ?siEnabled@?1??CheckBufferEnabled@CPluginBase@@QEAA_NXZ@4HA 0000000180047f24     ConEmuPluginBase.obj
 0003:00002f28       ?dwLastTickCount@?7??CheckResources@CPluginBase@@QEAAX_N@Z@4KA 0000000180047f28     ConEmuPluginBase.obj
 0003:00002f2c       ?$TSS0@?7??CheckResources@CPluginBase@@QEAAX_N@Z@4HA 0000000180047f2c     ConEmuPluginBase.obj
 0003:00002f30       ?dwLastTickCount@?9??OnConsolePeekReadInput@CPluginBase@@SAX_N@Z@4KA 0000000180047f30     ConEmuPluginBase.obj
 0003:00003198       ?gHeapInit@?A0x333b15f0@@3U?$atomic@H@std@@A 0000000180048198     common-kernel64:Memory.obj
 0003:0000319c       ?gHeapCounter@?A0x333b15f0@@3U?$atomic@H@std@@A 000000018004819c     common-kernel64:Memory.obj
 0003:000031a0       ?ghHeap@?A0x333b15f0@@3PEAXEA 00000001800481a0     common-kernel64:Memory.obj
 0003:000031c0       ?szFile@?1??ModuleName@@YAPEB_WPEB_W@Z@4PA_WA 00000001800481c0     common-kernel64:ConEmuCheck.obj
 0003:00003210       ?g_Threads@@3PAUConEmuThreadInfo@@A 0000000180048210     common-kernel64:WThreads.obj
 0003:0000ba10       ?gh_UnknownTerminatedThread@@3PEAXEA 0000000180050a10     common-kernel64:WThreads.obj
 0003:0000ba1c       ?szNil@?1??GetCommand@CESERVER_REQ_NEWCMD@@QEAAPEA_WXZ@4PA_WA 0000000180050a1c     common-kernel64:Common.obj
 0003:0000ba30       ?rtlVerifyVersionInfo@?1??_VerifyVersionInfo@@YA_NPEAU_OSVERSIONINFOEXW@@K_K@Z@4P6AH0K1@ZEA 0000000180050a30     common-kernel64:WObjects.obj
 0003:0000ba38       ?hasRtl@?1??_VerifyVersionInfo@@YA_NPEAU_OSVERSIONINFOEXW@@K_K@Z@4HA 0000000180050a38     common-kernel64:WObjects.obj
 0003:0000ba3c       ?ibIsWin6@?1??IsWin6@@YA_NXZ@4HA 0000000180050a3c     common-kernel64:WObjects.obj
 0003:0000ba40       ?ibIsWin7@?1??IsWin7@@YA_NXZ@4HA 0000000180050a40     common-kernel64:WObjects.obj
 0003:0000ba44       ?is64bitOs@?1??IsWindows64@@YA_NXZ@4_NA 0000000180050a44     common-kernel64:WObjects.obj
 0003:0000ba45       ?isOsChecked@?1??IsWindows64@@YA_NXZ@4_NA 0000000180050a45     common-kernel64:WObjects.obj
 0003:0000ba4c       ?terminalMode@?1??isTerminalMode@@YA_NXZ@4_NA 0000000180050a4c     common-kernel64:MProcess.obj
 0003:0000ba4d       ?terminalChecked@?1??isTerminalMode@@YA_NXZ@4_NA 0000000180050a4d     common-kernel64:MProcess.obj
 0003:0000ba4e       ?bSysInfoRetrieved@?1??IsModuleValid@@YA_NPEAUHINSTANCE__@@H@Z@4_NA 0000000180050a4e     common-kernel64:WModuleCheck.obj
 0003:0000ba50       ?si@?1??IsModuleValid@@YA_NPEAUHINSTANCE__@@H@Z@4U_SYSTEM_INFO@@A 0000000180050a50     common-kernel64:WModuleCheck.obj
 0003:0000ba98       ?g_tss_cv@@3U_RTL_CONDITION_VARIABLE@@A 0000000180050a98     LIBCMT:thread_safe_statics.obj
 0003:0000baa0       ?g_tss_event@@3PEAXEA      0000000180050aa0     LIBCMT:thread_safe_statics.obj
 0003:0000baa8       ?g_tss_mutex@@3U_RTL_CRITICAL_SECTION@@A 0000000180050aa8     LIBCMT:thread_safe_statics.obj
 0003:0000bad0       ?g_sleep_condition_variable_cs@@3P6AHPEAU_RTL_CONDITION_VARIABLE@@PEAU_RTL_CRITICAL_SECTION@@K@ZEA 0000000180050ad0     LIBCMT:thread_safe_statics.obj
 0003:0000bad8       ?g_wake_all_condition_variable@@3P6AXPEAU_RTL_CONDITION_VARIABLE@@@ZEA 0000000180050ad8     LIBCMT:thread_safe_statics.obj
 0003:0000bae0       ?__proc_attached@@3HA      0000000180050ae0     LIBCMT:dll_dllmain.obj
 0003:0000baf8       ?is_initialized_as_dll@@3_NA 0000000180050af8     LIBCMT:utility.obj
 0003:0000baf9       ?module_local_atexit_table_initialized@@3_NA 0000000180050af9     LIBCMT:utility.obj
 0003:0000bb00       ?module_local_atexit_table@@3U_onexit_table_t@@A 0000000180050b00     LIBCMT:utility.obj
 0003:0000bb18       ?module_local_at_quick_exit_table@@3U_onexit_table_t@@A 0000000180050b18     LIBCMT:utility.obj
 0003:0000bb30       GS_ExceptionRecord         0000000180050b30     LIBCMT:gs_report.obj
 0003:0000bbd0       GS_ContextRecord           0000000180050bd0     LIBCMT:gs_report.obj
 0003:0000c0e0       ?__vcrt_startup_thread_ptd@@3U__vcrt_ptd@@A 00000001800510e0     libvcruntime:per_thread_data.obj
 0003:0000c168       __vcrt_lock_table          0000000180051168     libvcruntime:locks.obj
 0003:0000c190       __vcrt_locks_initialized   0000000180051190     libvcruntime:locks.obj
 0003:0000c1d8       ?heap@@3V_HeapManager@@A   00000001800511d8     libvcruntime:undname.obj
 0003:0000c200       ?module_handles@@3PAPEAUHINSTANCE__@@A 0000000180051200     libvcruntime:winapi_downlevel.obj
 0003:0000c218       ?function_pointers@@3PAPEAXA 0000000180051218     libvcruntime:winapi_downlevel.obj
 0003:0000c240       ?__acrt_invalid_parameter_handler@@3V?$dual_state_global@P6AXPEB_W00I_K@Z@__crt_state_management@@A 0000000180051240     libucrt:invalid_parameter.obj
 0003:0000c248       ?c_termination_complete@@3JA 0000000180051248     libucrt:exit.obj
 0003:0000c250       ?thread_local_exit_callback_func@@3P6AXPEAXK0@ZEA 0000000180051250     libucrt:exit.obj
 0003:0000c260       ?program_name@?1???$common_configure_argv@D@@YAHW4_crt_argv_mode@@@Z@4PADA 0000000180051260     libucrt:argv_parsing.obj
 0003:0000c3b8       ?internal_state@?1??_mbtowc_l@@9@4U_Mbstatet@@A 00000001800513b8     libucrt:mbtowc.obj
 0003:0000c3d0       ?enable_percent_n@@3_KA    00000001800513d0     libucrt:printf_count_output.obj
 0003:0000c810       ?__acrt_lock_table@@3PAU_RTL_CRITICAL_SECTION@@A 0000000180051810     libucrt:locks.obj
 0003:0000ca40       ?__acrt_locks_initialized@@3IA 0000000180051a40     libucrt:locks.obj
 0003:0000ca60       ?fSystemSet@@3HA           0000000180051a60     libucrt:mbctype.obj
 0003:0000ca64       ?initialized@?1??__acrt_initialize_multibyte@@9@4_NA 0000000180051a64     libucrt:mbctype.obj
 0003:0000caa0       ?module_handles@@3PAPEAUHINSTANCE__@@A 0000000180051aa0     libucrt:winapi_thunks.obj
 0003:0000cb40       ?encoded_function_pointers@@3PAPEAXA 0000000180051b40     libucrt:winapi_thunks.obj
 0003:0000cc58       ?__acrt_new_handler@@3V?$dual_state_global@P6AH_K@Z@__crt_state_management@@A 0000000180051c58     libucrt:new_handler.obj
 0003:0000cc60       ?ctrlc_action@@3V?$dual_state_global@P6AXH@Z@__crt_state_management@@A 0000000180051c60     libucrt:signal.obj
 0003:0000cc68       ?ctrlbreak_action@@3V?$dual_state_global@P6AXH@Z@__crt_state_management@@A 0000000180051c68     libucrt:signal.obj
 0003:0000cc70       ?abort_action@@3V?$dual_state_global@P6AXH@Z@__crt_state_management@@A 0000000180051c70     libucrt:signal.obj
 0003:0000cc78       ?term_action@@3V?$dual_state_global@P6AXH@Z@__crt_state_management@@A 0000000180051c78     libucrt:signal.obj
 0003:0000cc80       ?user_matherr@@3V?$dual_state_global@P6AHPEAU_exception@@@Z@__crt_state_management@@A 0000000180051c80     libucrt:matherr.obj
 0003:0000cc88       ?__acrt_global_new_mode@@3V?$dual_state_global@J@__crt_state_management@@A 0000000180051c88     libucrt:new_mode.obj
 0003:0000cc98       ?internal_pst@?1??__mbrtoc32_utf8@__crt_mbstring@@YA_KPEA_UPEBD_KPEAU_Mbstatet@@@Z@4U3@A 0000000180051c98     libucrt:mbrtoc32.obj
 0003:0000cca0       ?__acrt_app_type@@3W4_crt_app_type@@A 0000000180051ca0     libucrt:report_runtime_error.obj
 0003:0000cd04       ?gbPauseConsoleWasRequested@@3_NA 0000000180051d04     common-kernel64:WConsole.obj
 0003:0000cd08       ?GetCurrentConsoleFontEx@?1??apiGetCurrentConsoleFontEx@@YAHPEAXHPEAUMY_CONSOLE_FONT_INFOEX@@@Z@4P6AH0H1@ZEA 0000000180051d08     common-kernel64:WConsole.obj
 0003:0000cd10       ?bFuncChecked@?1??apiGetCurrentConsoleFontEx@@YAHPEAXHPEAUMY_CONSOLE_FONT_INFOEX@@@Z@4_NA 0000000180051d10     common-kernel64:WConsole.obj
 0003:0000cd18       ?SetCurrentConsoleFontEx@?1??apiSetCurrentConsoleFontEx@@YAHPEAXHPEAUMY_CONSOLE_FONT_INFOEX@@@Z@4P6AH0H1@ZEA 0000000180051d18     common-kernel64:WConsole.obj
 0003:0000cd20       ?bFuncChecked@?1??apiSetCurrentConsoleFontEx@@YAHPEAXHPEAUMY_CONSOLE_FONT_INFOEX@@@Z@4_NA 0000000180051d20     common-kernel64:WConsole.obj
 0005:00000000       MoveSmall                  0000000180055000     libvcruntime:memcpy.obj
 0005:00000080       MsetTab                    0000000180055080     libvcruntime:memset.obj
 0006:000000a0       $R000000                   00000001800560a0     ConEmu.res
 0006:000003b0       $R000310                   00000001800563b0     ConEmu.res
